00000000  8816C57D          mov [0x7dc5],dl
00000004  BD0090            mov bp,0x9000
00000007  89EC              mov sp,bp
00000009  E88C01            call 0x198
0000000C  BABE7D            mov dx,0x7dbe
0000000F  E83400            call 0x46
00000012  E85401            call 0x169
00000015  EBFE              jmp short 0x15
00000017  60                pusha
00000018  B40E              mov ah,0xe
0000001A  8A07              mov al,[bx]
0000001C  CD10              int 0x10
0000001E  43                inc bx
0000001F  803F00            cmp byte [bx],0x0
00000022  75F6              jnz 0x1a
00000024  61                popa
00000025  C3                ret
00000026  60                pusha
00000027  B40E              mov ah,0xe
00000029  E8EBFF            call 0x17
0000002C  B00D              mov al,0xd
0000002E  CD10              int 0x10
00000030  B00A              mov al,0xa
00000032  CD10              int 0x10
00000034  61                popa
00000035  C3                ret
00000036  60                pusha
00000037  E80C00            call 0x46
0000003A  B40E              mov ah,0xe
0000003C  B00D              mov al,0xd
0000003E  CD10              int 0x10
00000040  B00A              mov al,0xa
00000042  CD10              int 0x10
00000044  61                popa
00000045  C3                ret
00000046  60                pusha
00000047  88D0              mov al,dl
00000049  E81300            call 0x5f
0000004C  A37A7C            mov [0x7c7a],ax
0000004F  88F0              mov al,dh
00000051  E80B00            call 0x5f
00000054  A3787C            mov [0x7c78],ax
00000057  BB767C            mov bx,0x7c76
0000005A  E8BAFF            call 0x17
0000005D  61                popa
0000005E  C3                ret
0000005F  89C3              mov bx,ax
00000061  83E30F            and bx,byte +0xf
00000064  8AA77D7C          mov ah,[bx+0x7c7d]
00000068  89C3              mov bx,ax
0000006A  81E3F000          and bx,0xf0
0000006E  C1EB04            shr bx,byte 0x4
00000071  8A877D7C          mov al,[bx+0x7c7d]
00000075  C3                ret
00000076  307830            xor [bx+si+0x30],bh
00000079  3030              xor [bx+si],dh
0000007B  3000              xor [bx+si],al
0000007D  3031              xor [bx+di],dh
0000007F  3233              xor dh,[bp+di]
00000081  3435              xor al,0x35
00000083  3637              ss aaa
00000085  3839              cmp [bx+di],bh
00000087  61                popa
00000088  626364            bound sp,[bp+di+0x64]
0000008B  656660            gs pushad
0000008E  BA0080            mov dx,0x8000
00000091  0B00              or ax,[bx+si]
00000093  8A03              mov al,[bp+di]
00000095  B40F              mov ah,0xf
00000097  668902            mov [bp+si],eax
0000009A  83C301            add bx,byte +0x1
0000009D  83C202            add dx,byte +0x2
000000A0  803B00            cmp byte [bp+di],0x0
000000A3  75EE              jnz 0x93
000000A5  61                popa
000000A6  C3                ret
000000A7  E8E1FF            call 0x8b
000000AA  FF                db 0xff
000000AB  FFC3              inc bx
000000AD  60                pusha
000000AE  88D0              mov al,dl
000000B0  E81F00            call 0xd2
000000B3  0000              add [bx+si],al
000000B5  66A37A7C          mov [0x7c7a],eax
000000B9  0000              add [bx+si],al
000000BB  88F0              mov al,dh
000000BD  E81200            call 0xd2
000000C0  0000              add [bx+si],al
000000C2  66A3787C          mov [0x7c78],eax
000000C6  0000              add [bx+si],al
000000C8  BB767C            mov bx,0x7c76
000000CB  0000              add [bx+si],al
000000CD  E8BBFF            call 0x8b
000000D0  FF                db 0xff
000000D1  FF61C3            jmp [bx+di-0x3d]
000000D4  6689C3            mov ebx,eax
000000D7  83E30F            and bx,byte +0xf
000000DA  8AA37D7C          mov ah,[bp+di+0x7c7d]
000000DE  0000              add [bx+si],al
000000E0  6689C3            mov ebx,eax
000000E3  81E3F000          and bx,0xf0
000000E7  0000              add [bx+si],al
000000E9  C1EB04            shr bx,byte 0x4
000000EC  8A837D7C          mov al,[bp+di+0x7c7d]
000000F0  0000              add [bx+si],al
000000F2  C3                ret
000000F3  60                pusha
000000F4  6652              push edx
000000F6  B402              mov ah,0x2
000000F8  88F0              mov al,dh
000000FA  B500              mov ch,0x0
000000FC  B600              mov dh,0x0
000000FE  B102              mov cl,0x2
00000100  CD13              int 0x13
00000102  665A              pop edx
00000104  7206              jc 0x10c
00000106  38C6              cmp dh,al
00000108  750D              jnz 0x117
0000010A  61                popa
0000010B  C3                ret
0000010C  66BB227DE811      mov ebx,0x11e87d22
00000112  FF                db 0xff
00000113  FF                db 0xff
00000114  FF                db 0xff
00000115  EBFE              jmp short 0x115
00000117  66BB367DE806      mov ebx,0x6e87d36
0000011D  FF                db 0xff
0000011E  FF                db 0xff
0000011F  FF                db 0xff
00000120  EBFE              jmp short 0x120
00000122  45                inc bp
00000123  7272              jc 0x197
00000125  6F                outsw
00000126  7220              jc 0x148
00000128  7265              jc 0x18f
0000012A  61                popa
0000012B  64696E672064      imul bp,[fs:bp+0x67],word 0x6420
00000131  69736B2E00        imul si,[bp+di+0x6b],word 0x2e
00000136  44                inc sp
00000137  69736B2072        imul si,[bp+di+0x6b],word 0x7220
0000013C  6561              gs popa
0000013E  6420696E          and [fs:bx+di+0x6e],ch
00000142  636F6D            arpl [bx+0x6d],bp
00000145  706C              jo 0x1b3
00000147  657465            gs jz 0x1af
0000014A  0000              add [bx+si],al
0000014C  0000              add [bx+si],al
0000014E  0000              add [bx+si],al
00000150  0000              add [bx+si],al
00000152  00FF              add bh,bh
00000154  FF00              inc word [bx+si]
00000156  0000              add [bx+si],al
00000158  9ACF00FFFF        call 0xffff:0xcf
0000015D  0000              add [bx+si],al
0000015F  0092CF00          add [bp+si+0xcf],dl
00000163  17                pop ss
00000164  004B7D            add [bp+di+0x7d],cl
00000167  0000              add [bx+si],al
00000169  FA                cli
0000016A  0F0116637D        lgdt [0x7d63]
0000016F  0F20C0            mov eax,cr0
00000172  6683C801          or eax,byte +0x1
00000176  0F22C0            mov cr0,eax
00000179  EA7E7D0800        jmp 0x8:0x7d7e
0000017E  66B810008ED8      mov eax,0xd88e0010
00000184  8ED0              mov ss,ax
00000186  8EC0              mov es,ax
00000188  8EE0              mov fs,ax
0000018A  8EE8              mov gs,ax
0000018C  BD0090            mov bp,0x9000
0000018F  0000              add [bx+si],al
00000191  89EC              mov sp,bp
00000193  E81300            call 0x1a9
00000196  0000              add [bx+si],al
00000198  BBC67D            mov bx,0x7dc6
0000019B  E888FE            call 0x26
0000019E  BB0010            mov bx,0x1000
000001A1  B680              mov dh,0x80
000001A3  8A16C57D          mov dl,[0x7dc5]
000001A7  E849FF            call 0xf3
000001AA  C3                ret
000001AB  BBDF7D            mov bx,0x7ddf
000001AE  0000              add [bx+si],al
000001B0  E8F2FE            call 0xa5
000001B3  FF                db 0xff
000001B4  FF66BA            jmp [bp-0x46]
000001B7  BE7DE8            mov si,0xe87d
000001BA  EF                out dx,ax
000001BB  FE                db 0xfe
000001BC  FF                db 0xff
000001BD  FF                db 0xff
000001BE  E83D92            call 0x93fe
000001C1  FF                db 0xff
000001C2  FF                db 0xff
000001C3  EBFE              jmp short 0x1c3
000001C5  004C6F            add [si+0x6f],cl
000001C8  61                popa
000001C9  64696E67206B      imul bp,[fs:bp+0x67],word 0x6b20
000001CF  65726E            gs jc 0x240
000001D2  656C              gs insb
000001D4  20696E            and [bx+di+0x6e],ch
000001D7  206D65            and [di+0x65],ch
000001DA  6D                insw
000001DB  6F                outsw
000001DC  7279              jc 0x257
000001DE  00456E            add [di+0x6e],al
000001E1  7465              jz 0x248
000001E3  7265              jc 0x24a
000001E5  642033            and [fs:bp+di],dh
000001E8  322D              xor ch,[di]
000001EA  626974            bound bp,[bx+di+0x74]
000001ED  20504D            and [bx+si+0x4d],dl
000001F0  0000              add [bx+si],al
000001F2  0000              add [bx+si],al
000001F4  0000              add [bx+si],al
000001F6  0000              add [bx+si],al
000001F8  0000              add [bx+si],al
000001FA  0000              add [bx+si],al
000001FC  0000              add [bx+si],al
000001FE  55                push bp
000001FF  AA                stosb
00000200  83EC14            sub sp,byte +0x14
00000203  89E0              mov ax,sp
00000205  C7000C41          mov word [bx+si],0x410c
00000209  0000              add [bx+si],al
0000020B  C740044841        mov word [bx+si+0x4],0x4148
00000210  0000              add [bx+si],al
00000212  894808            mov [bx+si+0x8],cx
00000215  89500C            mov [bx+si+0xc],dx
00000218  66C74010010089C1  mov dword [bx+si+0x10],0xc1890001
00000220  E8CD08            call 0xaf0
00000223  0000              add [bx+si],al
00000225  0F0B              ud2
00000227  56                push si
00000228  83EC30            sub sp,byte +0x30
0000022B  89E0              mov ax,sp
0000022D  8908              mov [bx+si],cx
0000022F  8D4C24            lea cx,[si+0x24]
00000232  0489              add al,0x89
00000234  118D7424          adc [di+0x2474],cx
00000238  08890EBA          or [bx+di-0x45f2],cl
0000023C  801900            sbb byte [bx+di],0x0
0000023F  00895604          add [bx+di+0x456],cl
00000243  894608            mov [bp+0x8],ax
00000246  8D4C24            lea cx,[si+0x24]
00000249  18C7              sbb bh,al
0000024B  018C4100          add [si+0x41],cx
0000024F  006A02            add [bp+si+0x2],ch
00000252  58                pop ax
00000253  894104            mov [bx+di+0x4],ax
00000256  83611000          and word [bx+di+0x10],byte +0x0
0000025A  89560C            mov [bp+0xc],dx
0000025D  8B5424            mov dx,[si+0x24]
00000260  38897108          cmp [bx+di+0x871],cl
00000264  89410C            mov [bx+di+0xc],ax
00000267  E894FF            call 0x1fe
0000026A  FF                db 0xff
0000026B  FF0F              dec word [bx]
0000026D  0B5683            or dx,[bp-0x7d]
00000270  EC                in al,dx
00000271  208B4424          and [bp+di+0x2444],cl
00000275  2889E689          sub [bx+di-0x761a],cl
00000279  0E                push cs
0000027A  895604            mov [bp+0x4],dx
0000027D  8D4C24            lea cx,[si+0x24]
00000280  088931C7          or [bx+di-0x38cf],cl
00000284  41                inc cx
00000285  0401              add al,0x1
00000287  0000              add [bx+si],al
00000289  00836110          add [bp+di+0x1061],al
0000028D  00C7              add bh,al
0000028F  41                inc cx
00000290  080C              or [si],cl
00000292  41                inc cx
00000293  0000              add [bx+si],al
00000295  83610C00          and word [bx+di+0xc],byte +0x0
00000299  89C2              mov dx,ax
0000029B  E860FF            call 0x1fe
0000029E  FF                db 0xff
0000029F  FF0F              dec word [bx]
000002A1  0BFF              or di,di
000002A3  7424              jz 0x2c9
000002A5  04E8              add al,0xe8
000002A7  E90D00            jmp 0x2b7
000002AA  00580F            add [bx+si+0xf],bl
000002AD  0BFF              or di,di
000002AF  7424              jz 0x2d5
000002B1  04E8              add al,0xe8
000002B3  250E00            and ax,0xe
000002B6  00580F            add [bx+si+0xf],bl
000002B9  0B5756            or dx,[bx+0x56]
000002BC  83EC30            sub sp,byte +0x30
000002BF  89E0              mov ax,sp
000002C1  8908              mov [bx+si],cx
000002C3  8D4C24            lea cx,[si+0x24]
000002C6  0489              add al,0x89
000002C8  118D7424          adc [di+0x2474],cx
000002CC  08890EBF          or [bx+di-0x40f2],cl
000002D0  801900            sbb byte [bx+di],0x0
000002D3  00897E04          add [bx+di+0x47e],cl
000002D7  894608            mov [bp+0x8],ax
000002DA  8D4C24            lea cx,[si+0x24]
000002DD  18C7              sbb bh,al
000002DF  0120              add [bx+si],sp
000002E1  45                inc bp
000002E2  0000              add [bx+si],al
000002E4  C741040300        mov word [bx+di+0x4],0x3
000002E9  0000              add [bx+si],al
000002EB  83611000          and word [bx+di+0x10],byte +0x0
000002EF  8B5424            mov dx,[si+0x24]
000002F2  3C89              cmp al,0x89
000002F4  7E0C              jng 0x302
000002F6  897108            mov [bx+di+0x8],si
000002F9  C7410C0200        mov word [bx+di+0xc],0x2
000002FE  0000              add [bx+si],al
00000300  E8FBFE            call 0x1fe
00000303  FF                db 0xff
00000304  FF0F              dec word [bx]
00000306  0BFF              or di,di
00000308  7424              jz 0x32e
0000030A  04E8              add al,0xe8
0000030C  48                dec ax
0000030D  0E                push cs
0000030E  0000              add [bx+si],al
00000310  58                pop ax
00000311  0F0B              ud2
00000313  FF7424            push word [si+0x24]
00000316  0CFF              or al,0xff
00000318  7424              jz 0x33e
0000031A  0CFF              or al,0xff
0000031C  7424              jz 0x342
0000031E  0CE8              or al,0xe8
00000320  C51D              lds bx,[di]
00000322  0000              add [bx+si],al
00000324  83C40C            add sp,byte +0xc
00000327  0F0B              ud2
00000329  6690              xchg eax,eax
0000032B  6690              xchg eax,eax
0000032D  6690              xchg eax,eax
0000032F  90                nop
00000330  E80307            call 0xa36
00000333  0000              add [bx+si],al
00000335  EBFE              jmp short 0x335
00000337  90                nop
00000338  8B5424            mov dx,[si+0x24]
0000033B  088B4424          or [bp+di+0x2444],cl
0000033F  040F              add al,0xf
00000341  B608              mov dh,0x8
00000343  E9F41C            jmp 0x203a
00000346  0000              add [bx+si],al
00000348  8B5424            mov dx,[si+0x24]
0000034B  088B4424          or [bp+di+0x2444],cl
0000034F  048B              add al,0x8b
00000351  000F              add [bx],cl
00000353  B608              mov dh,0x8
00000355  E9E21C            jmp 0x203a
00000358  0000              add [bx+si],al
0000035A  57                push di
0000035B  56                push si
0000035C  8B4424            mov ax,[si+0x24]
0000035F  108B7014          adc [bp+di+0x1470],cl
00000363  8B4018            mov ax,[bx+si+0x18]
00000366  8B780C            mov di,[bx+si+0xc]
00000369  6A03              push byte +0x3
0000036B  681841            push word 0x4118
0000036E  0000              add [bx+si],al
00000370  56                push si
00000371  FFD7              call di
00000373  83C40C            add sp,byte +0xc
00000376  84C0              test al,al
00000378  7404              jz 0x37e
0000037A  B001              mov al,0x1
0000037C  EB0D              jmp short 0x38b
0000037E  6A07              push byte +0x7
00000380  68C241            push word 0x41c2
00000383  0000              add [bx+si],al
00000385  56                push si
00000386  FFD7              call di
00000388  83C40C            add sp,byte +0xc
0000038B  5E                pop si
0000038C  5F                pop di
0000038D  C3                ret
0000038E  55                push bp
0000038F  53                push bx
00000390  57                push di
00000391  56                push si
00000392  83EC0C            sub sp,byte +0xc
00000395  8B7C24            mov di,[si+0x24]
00000398  248B              and al,0x8b
0000039A  44                inc sp
0000039B  2420              and al,0x20
0000039D  8B28              mov bp,[bx+si]
0000039F  8D5D08            lea bx,[di+0x8]
000003A2  8D450C            lea ax,[di+0xc]
000003A5  89E1              mov cx,sp
000003A7  8901              mov [bx+di],ax
000003A9  8B4718            mov ax,[bx+0x18]
000003AC  6A08              push byte +0x8
000003AE  682C40            push word 0x402c
000003B1  0000              add [bx+si],al
000003B3  FF7714            push word [bx+0x14]
000003B6  FF500C            call [bx+si+0xc]
000003B9  83C40C            add sp,byte +0xc
000003BC  8D7424            lea si,[si+0x24]
000003BF  0489              add al,0x89
000003C1  3E884604          mov [ds:bp+0x4],al
000003C5  C6460500          mov byte [bp+0x5],0x0
000003C9  6A04              push byte +0x4
000003CB  5F                pop di
000003CC  89F1              mov cx,si
000003CE  BA1840            mov dx,0x4018
000003D1  0000              add [bx+si],al
000003D3  682013            push word 0x1320
000003D6  0000              add [bx+si],al
000003D8  55                push bp
000003D9  57                push di
000003DA  E8EC16            call 0x1ac9
000003DD  0000              add [bx+si],al
000003DF  83C40C            add sp,byte +0xc
000003E2  89F1              mov cx,si
000003E4  BA1C40            mov dx,0x401c
000003E7  0000              add [bx+si],al
000003E9  68D614            push word 0x14d6
000003EC  0000              add [bx+si],al
000003EE  53                push bx
000003EF  57                push di
000003F0  E8D616            call 0x1ac9
000003F3  0000              add [bx+si],al
000003F5  83C40C            add sp,byte +0xc
000003F8  89F1              mov cx,si
000003FA  BA4440            mov dx,0x4044
000003FD  0000              add [bx+si],al
000003FF  682212            push word 0x1222
00000402  0000              add [bx+si],al
00000404  8D4424            lea ax,[si+0x24]
00000407  0450              add al,0x50
00000409  6A03              push byte +0x3
0000040B  E8BB16            call 0x1ac9
0000040E  0000              add [bx+si],al
00000410  83C40C            add sp,byte +0xc
00000413  89F1              mov cx,si
00000415  E80E15            call 0x1926
00000418  0000              add [bx+si],al
0000041A  83C40C            add sp,byte +0xc
0000041D  5E                pop si
0000041E  5F                pop di
0000041F  5B                pop bx
00000420  5D                pop bp
00000421  C3                ret
00000422  8B4424            mov ax,[si+0x24]
00000425  04FF              add al,0xff
00000427  7424              jz 0x44d
00000429  08FF              or bh,bh
0000042B  30E8              xor al,ch
0000042D  A5                movsw
0000042E  0200              add al,[bx+si]
00000430  00595A            add [bx+di+0x5a],bl
00000433  C3                ret
00000434  55                push bp
00000435  53                push bx
00000436  57                push di
00000437  56                push si
00000438  83EC14            sub sp,byte +0x14
0000043B  8B6C24            mov bp,[si+0x24]
0000043E  2C8B              sub al,0x8b
00000440  44                inc sp
00000441  2428              and al,0x28
00000443  8B18              mov bx,[bx+si]
00000445  8D7B08            lea di,[bp+di+0x8]
00000448  8D430C            lea ax,[bp+di+0xc]
0000044B  8904              mov [si],ax
0000044D  248D              and al,0x8d
0000044F  43                inc bx
00000450  10894424          adc [bx+di+0x2444],cl
00000454  048D              add al,0x8d
00000456  43                inc bx
00000457  118D4C24          adc [di+0x244c],cx
0000045B  0889018B          or [bx+di-0x74ff],cl
0000045F  45                inc bp
00000460  186A09            sbb [bp+si+0x9],ch
00000463  684740            push word 0x4047
00000466  0000              add [bx+si],al
00000468  FF7514            push word [di+0x14]
0000046B  FF500C            call [bx+si+0xc]
0000046E  83C40C            add sp,byte +0xc
00000471  8D7424            lea si,[si+0x24]
00000474  0C89              or al,0x89
00000476  2E884604          mov [cs:bp+0x4],al
0000047A  C6460500          mov byte [bp+0x5],0x0
0000047E  6A07              push byte +0x7
00000480  5D                pop bp
00000481  89F1              mov cx,si
00000483  BA5040            mov dx,0x4050
00000486  0000              add [bx+si],al
00000488  685A11            push word 0x115a
0000048B  0000              add [bx+si],al
0000048D  53                push bx
0000048E  55                push bp
0000048F  E83716            call 0x1ac9
00000492  0000              add [bx+si],al
00000494  83C40C            add sp,byte +0xc
00000497  89F1              mov cx,si
00000499  BA5740            mov dx,0x4057
0000049C  0000              add [bx+si],al
0000049E  684F16            push word 0x164f
000004A1  0000              add [bx+si],al
000004A3  57                push di
000004A4  55                push bp
000004A5  E82116            call 0x1ac9
000004A8  0000              add [bx+si],al
000004AA  83C40C            add sp,byte +0xc
000004AD  89F1              mov cx,si
000004AF  BA3440            mov dx,0x4034
000004B2  0000              add [bx+si],al
000004B4  688E11            push word 0x118e
000004B7  0000              add [bx+si],al
000004B9  FF7424            push word [si+0x24]
000004BC  046A              add al,0x6a
000004BE  08E8              or al,ch
000004C0  07                pop es
000004C1  16                push ss
000004C2  0000              add [bx+si],al
000004C4  83C40C            add sp,byte +0xc
000004C7  89F1              mov cx,si
000004C9  BA5E40            mov dx,0x405e
000004CC  0000              add [bx+si],al
000004CE  683811            push word 0x1138
000004D1  0000              add [bx+si],al
000004D3  FF7424            push word [si+0x24]
000004D6  086A0A            or [bp+si+0xa],ch
000004D9  E8ED15            call 0x1ac9
000004DC  0000              add [bx+si],al
000004DE  83C40C            add sp,byte +0xc
000004E1  89F1              mov cx,si
000004E3  BA6840            mov dx,0x4068
000004E6  0000              add [bx+si],al
000004E8  684811            push word 0x1148
000004EB  0000              add [bx+si],al
000004ED  8D4424            lea ax,[si+0x24]
000004F0  0C50              or al,0x50
000004F2  6A12              push byte +0x12
000004F4  E8D215            call 0x1ac9
000004F7  0000              add [bx+si],al
000004F9  83C40C            add sp,byte +0xc
000004FC  89F1              mov cx,si
000004FE  E82514            call 0x1926
00000501  0000              add [bx+si],al
00000503  83C414            add sp,byte +0x14
00000506  5E                pop si
00000507  5F                pop di
00000508  5B                pop bx
00000509  5D                pop bp
0000050A  C3                ret
0000050B  56                push si
0000050C  89D6              mov si,dx
0000050E  89C8              mov ax,cx
00000510  8B5424            mov dx,[si+0x24]
00000513  0889F1FF          or [bx+di-0xf],cl
00000517  30E8              xor al,ch
00000519  51                push cx
0000051A  0E                push cs
0000051B  0000              add [bx+si],al
0000051D  59                pop cx
0000051E  5E                pop si
0000051F  C3                ret
00000520  55                push bp
00000521  53                push bx
00000522  57                push di
00000523  56                push si
00000524  83EC34            sub sp,byte +0x34
00000527  8B4424            mov ax,[si+0x24]
0000052A  4C                dec sp
0000052B  8B4C24            mov cx,[si+0x24]
0000052E  48                dec ax
0000052F  8B19              mov bx,[bx+di]
00000531  8B7104            mov si,[bx+di+0x4]
00000534  8B7814            mov di,[bx+si+0x14]
00000537  8B4018            mov ax,[bx+si+0x18]
0000053A  894424            mov [si+0x24],ax
0000053D  0C8B              or al,0x8b
0000053F  68106A            push word 0x6a10
00000542  2257FF            and dl,[bx-0x1]
00000545  D559              aad 0x59
00000547  5A                pop dx
00000548  84C0              test al,al
0000054A  740A              jz 0x556
0000054C  B001              mov al,0x1
0000054E  83C434            add sp,byte +0x34
00000551  5E                pop si
00000552  5F                pop di
00000553  5B                pop bx
00000554  5D                pop bp
00000555  C3                ret
00000556  897424            mov [si+0x24],si
00000559  048D              add al,0x8d
0000055B  0433              add al,0x33
0000055D  8D4C24            lea cx,[si+0x24]
00000560  28891C24          sub [bx+di+0x241c],cl
00000564  8919              mov [bx+di],bx
00000566  894104            mov [bx+di+0x4],ax
00000569  83610800          and word [bx+di+0x8],byte +0x0
0000056D  C744240800        mov word [si+0x24],0x8
00000572  0000              add [bx+si],al
00000574  008D4C24          add [di+0x244c],cl
00000578  28E8              sub al,ch
0000057A  190D              sbb [di],cx
0000057C  0000              add [bx+si],al
0000057E  81FA0000          cmp dx,0x0
00000582  1100              adc [bx+si],ax
00000584  0F84F900          jz near 0x681
00000588  0000              add [bx+si],al
0000058A  89C3              mov bx,ax
0000058C  89D6              mov si,dx
0000058E  8D4C24            lea cx,[si+0x24]
00000591  106801            adc [bx+si+0x1],ch
00000594  0001              add [bx+di],al
00000596  00E8              add al,ch
00000598  0E                push cs
00000599  17                pop ss
0000059A  0000              add [bx+si],al
0000059C  58                pop ax
0000059D  807C2410          cmp byte [si+0x24],0x10
000005A1  8074368A          xor byte [si+0x36],0x8a
000005A5  44                inc sp
000005A6  241B              and al,0x1b
000005A8  2A4424            sub al,[si+0x24]
000005AB  1A3C              sbb bh,[si]
000005AD  018B5424          add [bp+di+0x2454],cx
000005B1  080F              or [bx],cl
000005B3  84C2              test dl,al
000005B5  0000              add [bx+si],al
000005B7  0089D829          add [bx+di+0x29d8],cl
000005BB  D00F              ror byte [bx],1
000005BD  82                db 0x82
000005BE  FA                cli
000005BF  0000              add [bx+si],al
000005C1  0085D274          add [di+0x74d2],al
000005C5  233B              and di,[bp+di]
000005C7  54                push sp
000005C8  2404              and al,0x4
000005CA  7317              jnc 0x5e3
000005CC  8B0C              mov cx,[si]
000005CE  2480              and al,0x80
000005D0  3C11              cmp al,0x11
000005D2  C07D14E9          sar byte [di+0x14],byte 0xe9
000005D6  E200              loop 0x5d8
000005D8  0000              add [bx+si],al
000005DA  8B5424            mov dx,[si+0x24]
000005DD  08E9              or cl,ch
000005DF  97                xchg ax,di
000005E0  0000              add [bx+si],al
000005E2  000F              add [bx],cl
000005E4  85D3              test bx,dx
000005E6  0000              add [bx+si],al
000005E8  0085DB74          add [di+0x74db],al
000005EC  1A3B              sbb bh,[bp+di]
000005EE  5C                pop sp
000005EF  2404              and al,0x4
000005F1  730E              jnc 0x601
000005F3  8B0C              mov cx,[si]
000005F5  2480              and al,0x80
000005F7  3C19              cmp al,0x19
000005F9  BF7F0B            mov di,0xb7f
000005FC  E9BB00            jmp 0x6ba
000005FF  0000              add [bx+si],al
00000601  0F85B500          jnz near 0x6ba
00000605  0000              add [bx+si],al
00000607  0314              add dx,[si]
00000609  2450              and al,0x50
0000060B  52                push dx
0000060C  57                push di
0000060D  8B4424            mov ax,[si+0x24]
00000610  18FF              sbb bh,bh
00000612  50                push ax
00000613  0C83              or al,0x83
00000615  C40C              les cx,[si]
00000617  84C0              test al,al
00000619  0F852DFF          jnz near 0x54a
0000061D  FF                db 0xff
0000061E  FF8B4424          dec word [bp+di+0x2444]
00000622  18894424          sbb [bx+di+0x2444],cl
00000626  248B              and al,0x8b
00000628  44                inc sp
00000629  2410              and al,0x10
0000062B  8B4C24            mov cx,[si+0x24]
0000062E  1489              adc al,0x89
00000630  4C                dec sp
00000631  2420              and al,0x20
00000633  894424            mov [si+0x24],ax
00000636  1C8D              sbb al,0x8d
00000638  4C                dec sp
00000639  241C              and al,0x1c
0000063B  E8B719            call 0x1ff5
0000063E  0000              add [bx+si],al
00000640  3D0000            cmp ax,0x0
00000643  1100              adc [bx+si],ax
00000645  740F              jz 0x656
00000647  50                push ax
00000648  57                push di
00000649  FFD5              call bp
0000064B  59                pop cx
0000064C  5A                pop dx
0000064D  84C0              test al,al
0000064F  74E6              jz 0x637
00000651  E9F6FE            jmp 0x54a
00000654  FF                db 0xff
00000655  FF31              push word [bx+di]
00000657  D24281            rol byte [bp+si-0x7f],cl
0000065A  FE800000          inc byte [bx+si+0x0]
0000065E  007217            add [bp+si+0x17],dh
00000661  6A02              push byte +0x2
00000663  5A                pop dx
00000664  81FE0008          cmp si,0x800
00000668  0000              add [bx+si],al
0000066A  720C              jc 0x678
0000066C  81FE0000          cmp si,0x0
00000670  0100              add [bx+si],ax
00000672  6A04              push byte +0x4
00000674  5A                pop dx
00000675  83DA00            sbb dx,byte +0x0
00000678  01DA              add dx,bx
0000067A  895424            mov [si+0x24],dx
0000067D  08E9              or cl,ch
0000067F  F2                repne
00000680  FE                db 0xfe
00000681  FF                db 0xff
00000682  FF8B0C24          dec word [bp+di+0x240c]
00000686  8B5424            mov dx,[si+0x24]
00000689  0468              add al,0x68
0000068B  90                nop
0000068C  43                inc bx
0000068D  0000              add [bx+si],al
0000068F  FF7424            push word [si+0x24]
00000692  0CE8              or al,0xe8
00000694  261A00            sbb al,[es:bx+si]
00000697  005959            add [bx+di+0x59],bl
0000069A  52                push dx
0000069B  50                push ax
0000069C  57                push di
0000069D  8B4424            mov ax,[si+0x24]
000006A0  18FF              sbb bh,bh
000006A2  50                push ax
000006A3  0C83              or al,0x83
000006A5  C40C              les cx,[si]
000006A7  84C0              test al,al
000006A9  0F859DFE          jnz near 0x54a
000006AD  FF                db 0xff
000006AE  FF6A22            jmp far [bp+si+0x22]
000006B1  57                push di
000006B2  FFD5              call bp
000006B4  83C43C            add sp,byte +0x3c
000006B7  E995FE            jmp 0x54f
000006BA  FF                db 0xff
000006BB  FF8B0C24          dec word [bp+di+0x240c]
000006BF  89D0              mov ax,dx
000006C1  8B5424            mov dx,[si+0x24]
000006C4  0468              add al,0x68
000006C6  A04300            mov al,[0x43]
000006C9  005350            add [bp+di+0x50],dl
000006CC  E842FC            call 0x311
000006CF  FF                db 0xff
000006D0  FF83C40C          inc word [bp+di+0xcc4]
000006D4  0F0B              ud2
000006D6  57                push di
000006D7  56                push si
000006D8  81EC8000          sub sp,0x80
000006DC  0000              add [bx+si],al
000006DE  8BB42490          mov si,[si-0x6fdc]
000006E2  0000              add [bx+si],al
000006E4  008B8424          add [bp+di+0x2484],cl
000006E8  8C00              mov [bx+si],es
000006EA  0000              add [bx+si],al
000006EC  8B4E1C            mov cx,[bp+0x1c]
000006EF  F6C110            test cl,0x10
000006F2  7516              jnz 0x70a
000006F4  F6C120            test cl,0x20
000006F7  753D              jnz 0x736
000006F9  8B08              mov cx,[bx+si]
000006FB  89F2              mov dx,si
000006FD  81C48000          add sp,0x80
00000701  0000              add [bx+si],al
00000703  5E                pop si
00000704  5F                pop di
00000705  E98504            jmp 0xb8d
00000708  0000              add [bx+si],al
0000070A  8B00              mov ax,[bx+si]
0000070C  BA8000            mov dx,0x80
0000070F  0000              add [bx+si],al
00000711  89C1              mov cx,ax
00000713  80E10F            and cl,0xf
00000716  80F90A            cmp cl,0xa
00000719  7205              jc 0x720
0000071B  80C157            add cl,0x57
0000071E  EB03              jmp short 0x723
00000720  80C930            or cl,0x30
00000723  89C7              mov di,ax
00000725  C1EF04            shr di,byte 0x4
00000728  884C14            mov [si+0x14],cl
0000072B  FF4A83            dec word [bp+si-0x7d]
0000072E  F8                clc
0000072F  0F89F877          jns near 0x7f2b
00000733  DDEB              fucomp st3
00000735  2A8B00BA          sub cl,[bp+di-0x4600]
00000739  800000            add byte [bx+si],0x0
0000073C  0089C180          add [bx+di-0x7f3f],cl
00000740  E10F              loope 0x751
00000742  80F90A            cmp cl,0xa
00000745  7205              jc 0x74c
00000747  80C137            add cl,0x37
0000074A  EB03              jmp short 0x74f
0000074C  80C930            or cl,0x30
0000074F  89C7              mov di,ax
00000751  C1EF04            shr di,byte 0x4
00000754  884C14            mov [si+0x14],cl
00000757  FF4A83            dec word [bp+si-0x7d]
0000075A  F8                clc
0000075B  0F89F877          jns near 0x7f57
0000075F  DD89E1E8          fisttp qword [bx+di-0x171f]
00000763  B40D              mov ah,0xd
00000765  0000              add [bx+si],al
00000767  89D7              mov di,dx
00000769  89F1              mov cx,si
0000076B  BA5042            mov dx,0x4250
0000076E  0000              add [bx+si],al
00000770  57                push di
00000771  50                push ax
00000772  6A02              push byte +0x2
00000774  E8CC04            call 0xc43
00000777  0000              add [bx+si],al
00000779  83C40C            add sp,byte +0xc
0000077C  81C48000          add sp,0x80
00000780  0000              add [bx+si],al
00000782  5E                pop si
00000783  5F                pop di
00000784  C3                ret
00000785  50                push ax
00000786  8B4C24            mov cx,[si+0x24]
00000789  0C8B              or al,0x8b
0000078B  44                inc sp
0000078C  2408              and al,0x8
0000078E  832424            and word [si],byte +0x24
00000791  0081F980          add [bx+di-0x7f07],al
00000795  0000              add [bx+si],al
00000797  00730B            add [bp+di+0xb],dh
0000079A  880C              mov [si],cl
0000079C  2431              and al,0x31
0000079E  C9                leave
0000079F  41                inc cx
000007A0  E98600            jmp 0x829
000007A3  0000              add [bx+si],al
000007A5  89CA              mov dx,cx
000007A7  81F90008          cmp cx,0x800
000007AB  0000              add [bx+si],al
000007AD  7317              jnc 0x7c6
000007AF  C1EA06            shr dx,byte 0x6
000007B2  80CAC0            or dl,0xc0
000007B5  8814              mov [si],dl
000007B7  2480              and al,0x80
000007B9  E13F              loope 0x7fa
000007BB  80C980            or cl,0x80
000007BE  884C24            mov [si+0x24],cl
000007C1  016A02            add [bp+si+0x2],bp
000007C4  EB64              jmp short 0x82a
000007C6  81F90000          cmp cx,0x0
000007CA  0100              add [bx+si],ax
000007CC  7326              jnc 0x7f4
000007CE  C1EA0C            shr dx,byte 0xc
000007D1  80CAE0            or dl,0xe0
000007D4  8814              mov [si],dl
000007D6  2489              and al,0x89
000007D8  CAC1EA            retf 0xeac1
000007DB  06                push es
000007DC  80E23F            and dl,0x3f
000007DF  80CA80            or dl,0x80
000007E2  885424            mov [si+0x24],dl
000007E5  0180E13F          add [bx+si+0x3fe1],ax
000007E9  80C980            or cl,0x80
000007EC  884C24            mov [si+0x24],cl
000007EF  026A03            add ch,[bp+si+0x3]
000007F2  EB36              jmp short 0x82a
000007F4  C1EA12            shr dx,byte 0x12
000007F7  80E207            and dl,0x7
000007FA  80CAF0            or dl,0xf0
000007FD  8814              mov [si],dl
000007FF  2489              and al,0x89
00000801  CAC1EA            retf 0xeac1
00000804  0C80              or al,0x80
00000806  E23F              loop 0x847
00000808  80CA80            or dl,0x80
0000080B  885424            mov [si+0x24],dl
0000080E  0189CAC1          add [bx+di-0x3e36],cx
00000812  EA0680E23F        jmp 0x3fe2:0x8006
00000817  80CA80            or dl,0x80
0000081A  885424            mov [si+0x24],dl
0000081D  0280E13F          add al,[bx+si+0x3fe1]
00000821  80C980            or cl,0x80
00000824  884C24            mov [si+0x24],cl
00000827  036A04            add bp,[bp+si+0x4]
0000082A  59                pop cx
0000082B  89E2              mov dx,sp
0000082D  51                push cx
0000082E  52                push dx
0000082F  50                push ax
00000830  E8DC01            call 0xa0f
00000833  0000              add [bx+si],al
00000835  83C40C            add sp,byte +0xc
00000838  59                pop cx
00000839  C3                ret
0000083A  8B4C24            mov cx,[si+0x24]
0000083D  04BA              add al,0xba
0000083F  7C40              jl 0x881
00000841  0000              add [bx+si],al
00000843  FF7424            push word [si+0x24]
00000846  08E8              or al,ch
00000848  220B              and cl,[bp+di]
0000084A  0000              add [bx+si],al
0000084C  59                pop cx
0000084D  C3                ret
0000084E  C3                ret
0000084F  55                push bp
00000850  53                push bx
00000851  57                push di
00000852  56                push si
00000853  83EC10            sub sp,byte +0x10
00000856  8B7C24            mov di,[si+0x24]
00000859  288B4424          sub [bp+di+0x2444],cl
0000085D  2483              and al,0x83
0000085F  3800              cmp [bx+si],al
00000861  7446              jz 0x8a9
00000863  8B7714            mov si,[bx+0x14]
00000866  8B5F18            mov bx,[bx+0x18]
00000869  8B6B0C            mov bp,[bp+di+0xc]
0000086C  6A04              push byte +0x4
0000086E  681440            push word 0x4014
00000871  0000              add [bx+si],al
00000873  56                push si
00000874  FFD5              call bp
00000876  83C40C            add sp,byte +0xc
00000879  B101              mov cl,0x1
0000087B  84C0              test al,al
0000087D  0F859D00          jnz near 0x91e
00000881  0000              add [bx+si],al
00000883  F6471C04          test byte [bx+0x1c],0x4
00000887  7535              jnz 0x8be
00000889  6A01              push byte +0x1
0000088B  68CC41            push word 0x41cc
0000088E  0000              add [bx+si],al
00000890  56                push si
00000891  FFD5              call bp
00000893  83C40C            add sp,byte +0xc
00000896  84C0              test al,al
00000898  755D              jnz 0x8f7
0000089A  8B4C24            mov cx,[si+0x24]
0000089D  2489              and al,0x89
0000089F  F253              repne push bx
000008A1  E865FC            call 0x509
000008A4  FF                db 0xff
000008A5  FF59EB            call far [bx+di-0x15]
000008A8  628B4718          bound cx,[bp+di+0x1847]
000008AC  6A04              push byte +0x4
000008AE  681040            push word 0x4010
000008B1  0000              add [bx+si],al
000008B3  FF7714            push word [bx+0x14]
000008B6  FF500C            call [bx+si+0xc]
000008B9  83C41C            add sp,byte +0x1c
000008BC  EB67              jmp short 0x925
000008BE  6A02              push byte +0x2
000008C0  68CD41            push word 0x41cd
000008C3  0000              add [bx+si],al
000008C5  56                push si
000008C6  FFD5              call bp
000008C8  83C40C            add sp,byte +0xc
000008CB  84C0              test al,al
000008CD  7528              jnz 0x8f7
000008CF  8D4424            lea ax,[si+0x24]
000008D2  03C6              add ax,si
000008D4  0001              add [bx+di],al
000008D6  8D7C24            lea di,[si+0x24]
000008D9  0489              add al,0x89
000008DB  37                aaa
000008DC  895F04            mov [bx+0x4],bx
000008DF  894708            mov [bx+0x8],ax
000008E2  8B4C24            mov cx,[si+0x24]
000008E5  2489              and al,0x89
000008E7  FA                cli
000008E8  68A041            push word 0x41a0
000008EB  0000              add [bx+si],al
000008ED  E819FC            call 0x509
000008F0  FF                db 0xff
000008F1  FF5984            call far [bx+di-0x7c]
000008F4  C0                db 0xc0
000008F5  7404              jz 0x8fb
000008F7  B101              mov cl,0x1
000008F9  EB25              jmp short 0x920
000008FB  6A02              push byte +0x2
000008FD  68C041            push word 0x41c0
00000900  0000              add [bx+si],al
00000902  57                push di
00000903  E8DE0C            call 0x15e4
00000906  0000              add [bx+si],al
00000908  83C40C            add sp,byte +0xc
0000090B  84C0              test al,al
0000090D  B101              mov cl,0x1
0000090F  750F              jnz 0x920
00000911  6A01              push byte +0x1
00000913  680C41            push word 0x410c
00000916  0000              add [bx+si],al
00000918  56                push si
00000919  FFD5              call bp
0000091B  83C40C            add sp,byte +0xc
0000091E  89C1              mov cx,ax
00000920  89C8              mov ax,cx
00000922  83C410            add sp,byte +0x10
00000925  5E                pop si
00000926  5F                pop di
00000927  5B                pop bx
00000928  5D                pop bp
00000929  C3                ret
0000092A  8B11              mov dx,[bx+di]
0000092C  42                inc dx
0000092D  8911              mov [bx+di],dx
0000092F  81FACF07          cmp dx,0x7cf
00000933  0000              add [bx+si],al
00000935  0F862300          jna near 0x95c
00000939  0000              add [bx+si],al
0000093B  C3                ret
0000093C  56                push si
0000093D  8B4104            mov ax,[bx+di+0x4]
00000940  31D2              xor dx,dx
00000942  81FAD007          cmp dx,0x7d0
00000946  0000              add [bx+si],al
00000948  740F              jz 0x959
0000094A  0F                db 0x0f
0000094B  B7B4              mov bh,0xb4
0000094D  50                push ax
0000094E  A00000            mov al,[0x0]
00000951  006689            add [bp-0x77],ah
00000954  3450              xor al,0x50
00000956  42                inc dx
00000957  EBE9              jmp short 0x942
00000959  8301B0            add word [bx+di],byte -0x50
0000095C  5E                pop si
0000095D  C3                ret
0000095E  53                push bx
0000095F  89D3              mov bx,dx
00000961  0F                db 0x0f
00000962  B7C3              mov bh,0xc3
00000964  8901              mov [bx+di],ax
00000966  663DD0077205      cmp eax,0x57207d0
0000096C  E8CBFF            call 0x93a
0000096F  FF                db 0xff
00000970  FFB00E66          push word [bx+si+0x660e]
00000974  BAD403            mov dx,0x3d4
00000977  EE                out dx,al
00000978  88F8              mov al,bh
0000097A  66BAD503EEB0      mov edx,0xb0ee03d5
00000980  0F66BAD403        pcmpgtd mm7,[bp+si+0x3d4]
00000985  EE                out dx,al
00000986  89D8              mov ax,bx
00000988  66BAD503EE5B      mov edx,0x5bee03d5
0000098E  C3                ret
0000098F  55                push bp
00000990  53                push bx
00000991  57                push di
00000992  56                push si
00000993  50                push ax
00000994  8914              mov [si],dx
00000996  2489              and al,0x89
00000998  CF                iret
00000999  31DB              xor bx,bx
0000099B  8B6C24            mov bp,[si+0x24]
0000099E  1839              sbb [bx+di],bh
000009A0  DD7466            fnsave [si+0x66]
000009A3  8B04              mov ax,[si]
000009A5  248A              and al,0x8a
000009A7  0418              add al,0x18
000009A9  89C2              mov dx,ax
000009AB  80C2E0            add dl,0xe0
000009AE  89C1              mov cx,ax
000009B0  80FA5F            cmp dl,0x5f
000009B3  7202              jc 0x9b7
000009B5  B1FE              mov cl,0xfe
000009B7  3C0A              cmp al,0xa
000009B9  7402              jz 0x9bd
000009BB  89C8              mov ax,cx
000009BD  3C0A              cmp al,0xa
000009BF  751B              jnz 0x9dc
000009C1  8B0F              mov cx,[bx]
000009C3  89C8              mov ax,cx
000009C5  31D2              xor dx,dx
000009C7  6A50              push byte +0x50
000009C9  5E                pop si
000009CA  F7F6              div si
000009CC  F7DA              neg dx
000009CE  01CA              add dx,cx
000009D0  83C250            add dx,byte +0x50
000009D3  89F9              mov cx,di
000009D5  E884FF            call 0x95c
000009D8  FF                db 0xff
000009D9  FF                db 0xff
000009DA  EB2A              jmp short 0xa06
000009DC  8A6708            mov ah,[bx+0x8]
000009DF  8B17              mov dx,[bx]
000009E1  89EE              mov si,bp
000009E3  8B6F04            mov bp,[bx+0x4]
000009E6  884455            mov [si+0x55],al
000009E9  00886455          add [bx+si+0x5564],cl
000009ED  0189F589          add [bx+di-0x760b],cx
000009F1  F9                stc
000009F2  E833FF            call 0x928
000009F5  FF                db 0xff
000009F6  FF813FD0          inc word [bx+di-0x2fc1]
000009FA  07                pop es
000009FB  0000              add [bx+si],al
000009FD  7207              jc 0xa06
000009FF  89F9              mov cx,di
00000A01  E836FF            call 0x93a
00000A04  FF                db 0xff
00000A05  FF43EB            inc word [bp+di-0x15]
00000A08  96                xchg ax,si
00000A09  83C404            add sp,byte +0x4
00000A0C  5E                pop si
00000A0D  5F                pop di
00000A0E  5B                pop bx
00000A0F  5D                pop bp
00000A10  C3                ret
00000A11  56                push si
00000A12  8B7424            mov si,[si+0x24]
00000A15  1081FED0          adc [bx+di-0x2f02],al
00000A19  07                pop es
00000A1A  0000              add [bx+si],al
00000A1C  770F              ja 0xa2d
00000A1E  8B5424            mov dx,[si+0x24]
00000A21  0C8B              or al,0x8b
00000A23  4C                dec sp
00000A24  2408              and al,0x8
00000A26  56                push si
00000A27  E863FF            call 0x98d
00000A2A  FF                db 0xff
00000A2B  FF5881            call far [bx+si-0x7f]
00000A2E  FE                db 0xfe
00000A2F  D107              rol word [bx],1
00000A31  0000              add [bx+si],al
00000A33  0F93C0            setnc al
00000A36  5E                pop si
00000A37  C3                ret
00000A38  57                push di
00000A39  56                push si
00000A3A  83EC24            sub sp,byte +0x24
00000A3D  C6054C            mov byte [di],0x4c
00000A40  6200              bound ax,[bx+si]
00000A42  0001              add [bx+di],al
00000A44  B80080            mov ax,0x8000
00000A47  0B00              or ax,[bx+si]
00000A49  A35062            mov [0x6250],ax
00000A4C  0000              add [bx+si],al
00000A4E  89E6              mov si,sp
00000A50  C646081E          mov byte [bp+0x8],0x1e
00000A54  8326008946        and word [0x8900],byte +0x46
00000A59  0489              add al,0x89
00000A5B  F1                int1
00000A5C  31D2              xor dx,dx
00000A5E  E8FBFE            call 0x95c
00000A61  FF                db 0xff
00000A62  FF                db 0xff
00000A63  BFD007            mov di,0x7d0
00000A66  0000              add [bx+si],al
00000A68  83EF01            sub di,byte +0x1
00000A6B  7226              jc 0xa93
00000A6D  8B04              mov ax,[si]
00000A6F  248B              and al,0x8b
00000A71  4C                dec sp
00000A72  2404              and al,0x4
00000A74  66C70441200089    mov dword [si],0x89002041
00000A7B  F1                int1
00000A7C  E8A9FE            call 0x928
00000A7F  FF                db 0xff
00000A80  FF813C24          inc word [bx+di+0x243c]
00000A84  D007              rol byte [bx],1
00000A86  0000              add [bx+si],al
00000A88  72DE              jc 0xa68
00000A8A  89F1              mov cx,si
00000A8C  E8ABFE            call 0x93a
00000A8F  FF                db 0xff
00000A90  FF                db 0xff
00000A91  EBD5              jmp short 0xa68
00000A93  89E6              mov si,sp
00000A95  89F1              mov cx,si
00000A97  31D2              xor dx,dx
00000A99  E8C0FE            call 0x95c
00000A9C  FF                db 0xff
00000A9D  FF6A0A            jmp far [bp+si+0xa]
00000AA0  5F                pop di
00000AA1  83EF01            sub di,byte +0x1
00000AA4  7211              jc 0xab7
00000AA6  89F1              mov cx,si
00000AA8  BAFC40            mov dx,0x40fc
00000AAB  0000              add [bx+si],al
00000AAD  6A06              push byte +0x6
00000AAF  E8DBFE            call 0x98d
00000AB2  FF                db 0xff
00000AB3  FF58EB            call far [bx+si-0x15]
00000AB6  EA89E1BA9F        jmp 0x9fba:0xe189
00000ABB  40                inc ax
00000ABC  0000              add [bx+si],al
00000ABE  6A10              push byte +0x10
00000AC0  E8CAFE            call 0x98d
00000AC3  FF                db 0xff
00000AC4  FF588D            call far [bx+si-0x73]
00000AC7  4C                dec sp
00000AC8  240C              and al,0xc
00000ACA  C701E440          mov word [bx+di],0x40e4
00000ACE  0000              add [bx+si],al
00000AD0  C741040100        mov word [bx+di+0x4],0x1
00000AD5  0000              add [bx+si],al
00000AD7  83611000          and word [bx+di+0x10],byte +0x0
00000ADB  C741080C41        mov word [bx+di+0x8],0x410c
00000AE0  0000              add [bx+si],al
00000AE2  83610C00          and word [bx+di+0xc],byte +0x0
00000AE6  BAEC40            mov dx,0x40ec
00000AE9  0000              add [bx+si],al
00000AEB  E810F7            call 0x1fe
00000AEE  FF                db 0xff
00000AEF  FF0F              dec word [bx]
00000AF1  0B5756            or dx,[bx+0x56]
00000AF4  83EC30            sub sp,byte +0x30
00000AF7  890C              mov [si],cx
00000AF9  2480              and al,0x80
00000AFB  3D4C62            cmp ax,0x624c
00000AFE  0000              add [bx+si],al
00000B00  007450            add [si+0x50],dh
00000B03  8D7424            lea si,[si+0x24]
00000B06  0C83              or al,0x83
00000B08  2600A15062        add [es:bx+di+0x6250],ah
00000B0D  0000              add [bx+si],al
00000B0F  894604            mov [bp+0x4],ax
00000B12  C646081E          mov byte [bp+0x8],0x1e
00000B16  89F1              mov cx,si
00000B18  31D2              xor dx,dx
00000B1A  E83FFE            call 0x95c
00000B1D  FF                db 0xff
00000B1E  FF89E08D          dec word [bx+di-0x7220]
00000B22  4C                dec sp
00000B23  2404              and al,0x4
00000B25  8D5424            lea dx,[si+0x24]
00000B28  18C7              sbb bh,al
00000B2A  0204              add al,[si]
00000B2C  41                inc cx
00000B2D  0000              add [bx+si],al
00000B2F  31FF              xor di,di
00000B31  47                inc di
00000B32  897A04            mov [bp+si+0x4],di
00000B35  83621000          and word [bp+si+0x10],byte +0x0
00000B39  8901              mov [bx+di],ax
00000B3B  C741043412        mov word [bx+di+0x4],0x1234
00000B40  0000              add [bx+si],al
00000B42  894A08            mov [bp+si+0x8],cx
00000B45  897A0C            mov [bp+si+0xc],di
00000B48  52                push dx
00000B49  56                push si
00000B4A  E8EBFC            call 0x838
00000B4D  FF                db 0xff
00000B4E  FF595A            call far [bx+di+0x5a]
00000B51  EBFE              jmp short 0xb51
00000B53  EBFE              jmp short 0xb53
00000B55  8B4424            mov ax,[si+0x24]
00000B58  048B              add al,0x8b
00000B5A  00EB              add bl,ch
00000B5C  FEC3              inc bl
00000B5E  8B4424            mov ax,[si+0x24]
00000B61  04C7              add al,0xc7
00000B63  40                inc ax
00000B64  0C08              or al,0x8
00000B66  EB7C              jmp short 0xbe4
00000B68  48                dec ax
00000B69  C740087BA4        mov word [bx+si+0x8],0xa47b
00000B6E  41                inc cx
00000B6F  E9C740            jmp 0x4c39
00000B72  04C2              add al,0xc2
00000B74  1F                pop ds
00000B75  CC                int3
00000B76  64C7007E09        mov word [fs:bx+si],0x97e
00000B7B  A010C2            mov al,[0xc210]
00000B7E  0400              add al,0x0
00000B80  8B5424            mov dx,[si+0x24]
00000B83  088B4424          or [bp+di+0x2444],cl
00000B87  048B              add al,0x8b
00000B89  08E9              or cl,ch
00000B8B  0000              add [bx+si],al
00000B8D  0000              add [bx+si],al
00000B8F  55                push bp
00000B90  53                push bx
00000B91  57                push di
00000B92  56                push si
00000B93  83EC28            sub sp,byte +0x28
00000B96  89D6              mov si,dx
00000B98  6A27              push byte +0x27
00000B9A  5F                pop di
00000B9B  BB1027            mov bx,0x2710
00000B9E  0000              add [bx+si],al
00000BA0  66BD640081F9      mov ebp,0xf9810064
00000BA6  0F                db 0x0f
00000BA7  27                daa
00000BA8  0000              add [bx+si],al
00000BAA  7634              jna 0xbe0
00000BAC  89C8              mov ax,cx
00000BAE  31D2              xor dx,dx
00000BB0  F7F3              div bx
00000BB2  89C1              mov cx,ax
00000BB4  89D0              mov ax,dx
00000BB6  31D2              xor dx,dx
00000BB8  66F7F5            div ebp
00000BBB  0F                db 0x0f
00000BBC  B7C0              mov bh,0xc0
00000BBE  0F                db 0x0f
00000BBF  B7D2              mov bh,0xd2
00000BC1  0F                db 0x0f
00000BC2  B784              mov bh,0x84
00000BC4  005242            add [bp+si+0x42],dl
00000BC7  0000              add [bx+si],al
00000BC9  6689443C          mov [si+0x3c],eax
00000BCD  FD                std
00000BCE  0F                db 0x0f
00000BCF  B784              mov bh,0x84
00000BD1  125242            adc dl,[bp+si+0x42]
00000BD4  0000              add [bx+si],al
00000BD6  6689443C          mov [si+0x3c],eax
00000BDA  FF83C7FC          inc word [bp+di-0x339]
00000BDE  EBC4              jmp short 0xba4
00000BE0  83F963            cmp cx,byte +0x63
00000BE3  7621              jna 0xc06
00000BE5  66BB640089C8      mov ebx,0xc8890064
00000BEB  31D2              xor dx,dx
00000BED  66F7F3            div ebx
00000BF0  0F                db 0x0f
00000BF1  B7D2              mov bh,0xd2
00000BF3  0F                db 0x0f
00000BF4  B7C8              mov bh,0xc8
00000BF6  0F                db 0x0f
00000BF7  B784              mov bh,0x84
00000BF9  125242            adc dl,[bp+si+0x42]
00000BFC  0000              add [bx+si],al
00000BFE  6689443C          mov [si+0x3c],eax
00000C02  FF83C7FE          inc word [bp+di-0x139]
00000C06  83F90A            cmp cx,byte +0xa
00000C09  7309              jnc 0xc14
00000C0B  80C130            add cl,0x30
00000C0E  880C              mov [si],cl
00000C10  3C4F              cmp al,0x4f
00000C12  EB10              jmp short 0xc24
00000C14  0F                db 0x0f
00000C15  B784              mov bh,0x84
00000C17  095242            or [bp+si+0x42],dx
00000C1A  0000              add [bx+si],al
00000C1C  6689443C          mov [si+0x3c],eax
00000C20  FF83C7FE          inc word [bp+di-0x139]
00000C24  8D04              lea ax,[si]
00000C26  3C40              cmp al,0x40
00000C28  6A27              push byte +0x27
00000C2A  5B                pop bx
00000C2B  29FB              sub bx,di
00000C2D  89F1              mov cx,si
00000C2F  BA0C41            mov dx,0x410c
00000C32  0000              add [bx+si],al
00000C34  53                push bx
00000C35  50                push ax
00000C36  6A00              push byte +0x0
00000C38  E80800            call 0xc43
00000C3B  0000              add [bx+si],al
00000C3D  83C434            add sp,byte +0x34
00000C40  5E                pop si
00000C41  5F                pop di
00000C42  5B                pop bx
00000C43  5D                pop bp
00000C44  C3                ret
00000C45  55                push bp
00000C46  53                push bx
00000C47  57                push di
00000C48  56                push si
00000C49  83EC14            sub sp,byte +0x14
00000C4C  89D7              mov di,dx
00000C4E  89CE              mov si,cx
00000C50  8B511C            mov dx,[bx+di+0x1c]
00000C53  89D3              mov bx,dx
00000C55  B80000            mov ax,0x0
00000C58  1100              adc [bx+si],ax
00000C5A  83E301            and bx,byte +0x1
00000C5D  7403              jz 0xc62
00000C5F  6A2B              push byte +0x2b
00000C61  58                pop ax
00000C62  8B4C24            mov cx,[si+0x24]
00000C65  2803              sub [bp+di],al
00000C67  5C                pop sp
00000C68  2430              and al,0x30
00000C6A  F6C204            test dl,0x4
00000C6D  894424            mov [si+0x24],ax
00000C70  0475              add al,0x75
00000C72  0431              add al,0x31
00000C74  FF                db 0xff
00000C75  EB10              jmp short 0xc87
00000C77  89D5              mov bp,dx
00000C79  8D14              lea dx,[si]
00000C7B  0F89F9E8          jns near 0xf578
00000C7F  6D                insw
00000C80  0100              add [bx+si],ax
00000C82  0089EA01          add [bx+di+0x1ea],cl
00000C86  C3                ret
00000C87  8B4424            mov ax,[si+0x24]
00000C8A  2C83              sub al,0x83
00000C8C  3E000F            add [ds:bx],cl
00000C8F  84800000          test [bx+si+0x0],al
00000C93  008B6E04          add [bp+di+0x46e],cl
00000C97  29DD              sub bp,bx
00000C99  7679              jna 0xd14
00000C9B  F6C208            test dl,0x8
00000C9E  0F85A500          jnz near 0xd47
00000CA2  0000              add [bx+si],al
00000CA4  89F1              mov cx,si
00000CA6  89EA              mov dx,bp
00000CA8  6A01              push byte +0x1
00000CAA  E8F102            call 0xf9e
00000CAD  0000              add [bx+si],al
00000CAF  59                pop cx
00000CB0  B101              mov cl,0x1
00000CB2  3D0000            cmp ax,0x0
00000CB5  1100              adc [bx+si],ax
00000CB7  0F840201          jz near 0xdbd
00000CBB  0000              add [bx+si],al
00000CBD  89C5              mov bp,ax
00000CBF  895424            mov [si+0x24],dx
00000CC2  088B4E14          or [bp+di+0x144e],cl
00000CC6  8B7618            mov si,[bp+0x18]
00000CC9  89CB              mov bx,cx
00000CCB  89F2              mov dx,si
00000CCD  FF7424            push word [si+0x24]
00000CD0  2857FF            sub [bx-0x1],dl
00000CD3  7424              jz 0xcf9
00000CD5  0CE8              or al,0xe8
00000CD7  8902              mov [bp+si],ax
00000CD9  0000              add [bx+si],al
00000CDB  83C40C            add sp,byte +0xc
00000CDE  84C0              test al,al
00000CE0  0F85D700          jnz near 0xdbb
00000CE4  0000              add [bx+si],al
00000CE6  FF7424            push word [si+0x24]
00000CE9  30FF              xor bh,bh
00000CEB  7424              jz 0xd11
00000CED  3053FF            xor [bp+di-0x1],dl
00000CF0  56                push si
00000CF1  0C83              or al,0x83
00000CF3  C40C              les cx,[si]
00000CF5  84C0              test al,al
00000CF7  B101              mov cl,0x1
00000CF9  0F85C000          jnz near 0xdbd
00000CFD  0000              add [bx+si],al
00000CFF  89E9              mov cx,bp
00000D01  8B5424            mov dx,[si+0x24]
00000D04  085653            or [bp+0x53],dl
00000D07  E8F202            call 0xffc
00000D0A  0000              add [bx+si],al
00000D0C  83C41C            add sp,byte +0x1c
00000D0F  E9B000            jmp 0xdc2
00000D12  0000              add [bx+si],al
00000D14  89C3              mov bx,ax
00000D16  8B6E14            mov bp,[bp+0x14]
00000D19  8B7618            mov si,[bp+0x18]
00000D1C  89E9              mov cx,bp
00000D1E  89F2              mov dx,si
00000D20  FF7424            push word [si+0x24]
00000D23  2857FF            sub [bx-0x1],dl
00000D26  7424              jz 0xd4c
00000D28  0CE8              or al,0xe8
00000D2A  360200            add al,[ss:bx+si]
00000D2D  0083C40C          add [bp+di+0xcc4],al
00000D31  B101              mov cl,0x1
00000D33  84C0              test al,al
00000D35  0F858400          jnz near 0xdbd
00000D39  0000              add [bx+si],al
00000D3B  FF7424            push word [si+0x24]
00000D3E  305355            xor [bp+di+0x55],dl
00000D41  FF560C            call [bp+0xc]
00000D44  83C420            add sp,byte +0x20
00000D47  EB7B              jmp short 0xdc4
00000D49  8B4610            mov ax,[bp+0x10]
00000D4C  894424            mov [si+0x24],ax
00000D4F  108B4E14          adc [bp+di+0x144e],cl
00000D53  C746103000        mov word [bp+0x10],0x30
00000D58  0000              add [bx+si],al
00000D5A  8A4620            mov al,[bp+0x20]
00000D5D  884424            mov [si+0x24],al
00000D60  03C6              add ax,si
00000D62  46                inc si
00000D63  2001              and [bx+di],al
00000D65  8B5E18            mov bx,[bp+0x18]
00000D68  894C24            mov [si+0x24],cx
00000D6B  0889DAFF          or [bx+di-0x26],cl
00000D6F  7424              jz 0xd95
00000D71  2857FF            sub [bx-0x1],dl
00000D74  7424              jz 0xd9a
00000D76  0CE8              or al,0xe8
00000D78  E80100            call 0xd7c
00000D7B  0083C40C          add [bp+di+0xcc4],al
00000D7F  B101              mov cl,0x1
00000D81  84C0              test al,al
00000D83  753A              jnz 0xdbf
00000D85  895C24            mov [si+0x24],bx
00000D88  048B              add al,0x8b
00000D8A  5C                pop sp
00000D8B  2408              and al,0x8
00000D8D  89F1              mov cx,si
00000D8F  89EA              mov dx,bp
00000D91  6A01              push byte +0x1
00000D93  E80802            call 0xf9e
00000D96  0000              add [bx+si],al
00000D98  59                pop cx
00000D99  3D0000            cmp ax,0x0
00000D9C  1100              adc [bx+si],ax
00000D9E  741D              jz 0xdbd
00000DA0  89C7              mov di,ax
00000DA2  895424            mov [si+0x24],dx
00000DA5  0CFF              or al,0xff
00000DA7  7424              jz 0xdcd
00000DA9  30FF              xor bh,bh
00000DAB  7424              jz 0xdd1
00000DAD  30538B            xor [bp+di-0x75],dl
00000DB0  6C                insb
00000DB1  2410              and al,0x10
00000DB3  FF550C            call [di+0xc]
00000DB6  83C40C            add sp,byte +0xc
00000DB9  84C0              test al,al
00000DBB  740C              jz 0xdc9
00000DBD  B101              mov cl,0x1
00000DBF  89C8              mov ax,cx
00000DC1  83C414            add sp,byte +0x14
00000DC4  5E                pop si
00000DC5  5F                pop di
00000DC6  5B                pop bx
00000DC7  5D                pop bp
00000DC8  C3                ret
00000DC9  89F9              mov cx,di
00000DCB  8B5424            mov dx,[si+0x24]
00000DCE  0C55              or al,0x55
00000DD0  53                push bx
00000DD1  E82802            call 0xffc
00000DD4  0000              add [bx+si],al
00000DD6  59                pop cx
00000DD7  5A                pop dx
00000DD8  84C0              test al,al
00000DDA  B101              mov cl,0x1
00000DDC  75E1              jnz 0xdbf
00000DDE  8B4424            mov ax,[si+0x24]
00000DE1  10894610          adc [bx+di+0x1046],cl
00000DE5  8A4424            mov al,[si+0x24]
00000DE8  03884620          add cx,[bx+si+0x2046]
00000DEC  31C9              xor cx,cx
00000DEE  EBCF              jmp short 0xdbf
00000DF0  55                push bp
00000DF1  53                push bx
00000DF2  57                push di
00000DF3  56                push si
00000DF4  83EC20            sub sp,byte +0x20
00000DF7  29CA              sub dx,cx
00000DF9  83FA10            cmp dx,byte +0x10
00000DFC  7211              jc 0xe0f
00000DFE  8D4103            lea ax,[bx+di+0x3]
00000E01  83E0FC            and ax,byte -0x4
00000E04  29C8              sub ax,cx
00000E06  89D5              mov bp,dx
00000E08  29C5              sub bp,ax
00000E0A  83FD04            cmp bp,byte +0x4
00000E0D  730E              jnc 0xe1d
00000E0F  01CA              add dx,cx
00000E11  83C420            add sp,byte +0x20
00000E14  5E                pop si
00000E15  5F                pop di
00000E16  5B                pop bx
00000E17  5D                pop bp
00000E18  E92202            jmp 0x103d
00000E1B  0000              add [bx+si],al
00000E1D  89EE              mov si,bp
00000E1F  C1EE02            shr si,byte 0x2
00000E22  89EB              mov bx,bp
00000E24  83E303            and bx,byte +0x3
00000E27  01C8              add ax,cx
00000E29  83E5FC            and bp,byte -0x4
00000E2C  01C5              add bp,ax
00000E2E  8904              mov [si],ax
00000E30  2489              and al,0x89
00000E32  C2E807            ret 0x7e8
00000E35  0200              add al,[bx+si]
00000E37  0089C701          add [bx+di+0x1c7],cl
00000E3B  EB89              jmp short 0xdc6
00000E3D  E989DA            jmp 0xe8c9
00000E40  E8FA01            call 0x103d
00000E43  0000              add [bx+si],al
00000E45  01F8              add ax,di
00000E47  85F6              test si,si
00000E49  0F840D01          jz near 0xf5a
00000E4D  0000              add [bx+si],al
00000E4F  894424            mov [si+0x24],ax
00000E52  1CB9              sbb al,0xb9
00000E54  C00000            rol byte [bx+si],byte 0x0
00000E57  0089F039          add [bx+di+0x39f0],cl
00000E5B  CE                into
00000E5C  7205              jc 0xe63
00000E5E  B8C000            mov ax,0xc0
00000E61  0000              add [bx+si],al
00000E63  8D5C24            lea bx,[si+0x24]
00000E66  0489              add al,0x89
00000E68  D9                db 0xd9
00000E69  8B14              mov dx,[si]
00000E6B  2468              and al,0x68
00000E6D  AC                lodsb
00000E6E  44                inc sp
00000E6F  0000              add [bx+si],al
00000E71  50                push ax
00000E72  56                push si
00000E73  E8E901            call 0x105f
00000E76  0000              add [bx+si],al
00000E78  83C40C            add sp,byte +0xc
00000E7B  8B5424            mov dx,[si+0x24]
00000E7E  048B              add al,0x8b
00000E80  44                inc sp
00000E81  2408              and al,0x8
00000E83  8B4C24            mov cx,[si+0x24]
00000E86  0C89              or al,0x89
00000E88  0C24              or al,0x24
00000E8A  8B7424            mov si,[si+0x24]
00000E8D  1089C783          adc [bx+di-0x7c39],cl
00000E91  E7FC              out 0xfc,ax
00000E93  89D9              mov cx,bx
00000E95  68AC45            push word 0x45ac
00000E98  0000              add [bx+si],al
00000E9A  57                push di
00000E9B  50                push ax
00000E9C  E8C001            call 0x105f
00000E9F  0000              add [bx+si],al
00000EA1  83C40C            add sp,byte +0xc
00000EA4  8B5C24            mov bx,[si+0x24]
00000EA7  048B              add al,0x8b
00000EA9  44                inc sp
00000EAA  2408              and al,0x8
00000EAC  8B4C24            mov cx,[si+0x24]
00000EAF  0C89              or al,0x89
00000EB1  4C                dec sp
00000EB2  2414              and al,0x14
00000EB4  8B4C24            mov cx,[si+0x24]
00000EB7  10894C24          adc [bx+di+0x244c],cl
00000EBB  188D0483          sbb [di-0x7cfc],cl
00000EBF  31D2              xor dx,dx
00000EC1  39C3              cmp bx,ax
00000EC3  7426              jz 0xeeb
00000EC5  31FF              xor di,di
00000EC7  83FF04            cmp di,byte +0x4
00000ECA  741A              jz 0xee6
00000ECC  8B0C              mov cx,[si]
00000ECE  BB4789            mov bx,0x8947
00000ED1  CDF7              int 0xf7
00000ED3  D5C1              aad 0xc1
00000ED5  ED                in ax,dx
00000ED6  07                pop es
00000ED7  C1E906            shr cx,byte 0x6
00000EDA  09E9              or cx,bp
00000EDC  81E10101          and cx,0x101
00000EE0  0101              add [bx+di],ax
00000EE2  01CA              add dx,cx
00000EE4  EBE1              jmp short 0xec7
00000EE6  83C310            add bx,byte +0x10
00000EE9  EBD6              jmp short 0xec1
00000EEB  89D0              mov ax,dx
00000EED  B9FF00            mov cx,0xff
00000EF0  FF00              inc word [bx+si]
00000EF2  21C8              and ax,cx
00000EF4  C1EA08            shr dx,byte 0x8
00000EF7  21CA              and dx,cx
00000EF9  01C2              add dx,ax
00000EFB  69CA0100          imul cx,dx,word 0x1
00000EFF  0100              add [bx+si],ax
00000F01  C1E910            shr cx,byte 0x10
00000F04  8B4424            mov ax,[si+0x24]
00000F07  1C01              sbb al,0x1
00000F09  C88B6C24          enter 0x6c8b,0x24
00000F0D  1885ED0F          sbb [di+0xfed],al
00000F11  8431              test [bx+di],dh
00000F13  FF                db 0xff
00000F14  FF                db 0xff
00000F15  FFC1              inc cx
00000F17  E502              in ax,0x2
00000F19  31D2              xor dx,dx
00000F1B  31DB              xor bx,bx
00000F1D  8B4C24            mov cx,[si+0x24]
00000F20  1439              adc al,0x39
00000F22  D574              aad 0x74
00000F24  1C8B              sbb al,0x8b
00000F26  3411              xor al,0x11
00000F28  89F7              mov di,si
00000F2A  F7D7              not di
00000F2C  C1EF07            shr di,byte 0x7
00000F2F  C1EE06            shr si,byte 0x6
00000F32  09FE              or si,di
00000F34  81E60101          and si,0x101
00000F38  0101              add [bx+di],ax
00000F3A  01F3              add bx,si
00000F3C  83C204            add dx,byte +0x4
00000F3F  EBE0              jmp short 0xf21
00000F41  B9FF00            mov cx,0xff
00000F44  FF00              inc word [bx+si]
00000F46  89DA              mov dx,bx
00000F48  21CA              and dx,cx
00000F4A  C1EB08            shr bx,byte 0x8
00000F4D  21CB              and bx,cx
00000F4F  01D3              add bx,dx
00000F51  69CB0100          imul cx,bx,word 0x1
00000F55  0100              add [bx+si],ax
00000F57  C1E910            shr cx,byte 0x10
00000F5A  01C8              add ax,cx
00000F5C  83C420            add sp,byte +0x20
00000F5F  5E                pop si
00000F60  5F                pop di
00000F61  5B                pop bx
00000F62  5D                pop bp
00000F63  C3                ret
00000F64  57                push di
00000F65  56                push si
00000F66  89D6              mov si,dx
00000F68  89CF              mov di,cx
00000F6A  8B4424            mov ax,[si+0x24]
00000F6D  0C3D              or al,0x3d
00000F6F  0000              add [bx+si],al
00000F71  1100              adc [bx+si],ax
00000F73  7410              jz 0xf85
00000F75  50                push ax
00000F76  57                push di
00000F77  FF5610            call [bp+0x10]
00000F7A  83C408            add sp,byte +0x8
00000F7D  89C1              mov cx,ax
00000F7F  B001              mov al,0x1
00000F81  84C9              test cl,cl
00000F83  7518              jnz 0xf9d
00000F85  8B4424            mov ax,[si+0x24]
00000F88  1085C074          adc [di+0x74c0],al
00000F8C  0E                push cs
00000F8D  FF7424            push word [si+0x24]
00000F90  1450              adc al,0x50
00000F92  57                push di
00000F93  FF560C            call [bp+0xc]
00000F96  83C40C            add sp,byte +0xc
00000F99  EB02              jmp short 0xf9d
00000F9B  31C0              xor ax,ax
00000F9D  5E                pop si
00000F9E  5F                pop di
00000F9F  C3                ret
00000FA0  55                push bp
00000FA1  53                push bx
00000FA2  57                push di
00000FA3  56                push si
00000FA4  50                push ax
00000FA5  0FB65920          movzx bx,[bx+di+0x20]
00000FA9  FF24              jmp [si]
00000FAB  9D                popf
00000FAC  004000            add [bx+si+0x0],al
00000FAF  0089D3D1          add [bx+di-0x2e2d],cl
00000FB3  EB42              jmp short 0xff7
00000FB5  D1EA              shr dx,1
00000FB7  8914              mov [si],dx
00000FB9  24EB              and al,0xeb
00000FBB  17                pop ss
00000FBC  807C2418          cmp byte [si+0x24],0x18
00000FC0  00740B            add [si+0xb],dh
00000FC3  89D3              mov bx,dx
00000FC5  C7042400          mov word [si],0x24
00000FC9  0000              add [bx+si],al
00000FCB  00EB              add bl,ch
00000FCD  058914            add ax,0x1489
00000FD0  2431              and al,0x31
00000FD2  DB8B7910          fisttp dword [bp+di+0x1079]
00000FD6  8B6914            mov bp,[bx+di+0x14]
00000FD9  8B7118            mov si,[bx+di+0x18]
00000FDC  43                inc bx
00000FDD  4B                dec bx
00000FDE  7411              jz 0xff1
00000FE0  57                push di
00000FE1  55                push bp
00000FE2  FF5610            call [bp+0x10]
00000FE5  83C408            add sp,byte +0x8
00000FE8  84C0              test al,al
00000FEA  74F1              jz 0xfdd
00000FEC  BF0000            mov di,0x0
00000FEF  1100              adc [bx+si],ax
00000FF1  8B14              mov dx,[si]
00000FF3  2489              and al,0x89
00000FF5  F8                clc
00000FF6  83C404            add sp,byte +0x4
00000FF9  5E                pop si
00000FFA  5F                pop di
00000FFB  5B                pop bx
00000FFC  5D                pop bp
00000FFD  C3                ret
00000FFE  55                push bp
00000FFF  53                push bx
00001000  57                push di
00001001  56                push si
00001002  50                push ax
00001003  89D3              mov bx,dx
00001005  89CF              mov di,cx
00001007  8B7424            mov si,[si+0x24]
0000100A  18891424          sbb [bx+di+0x2414],cl
0000100E  F7DB              neg bx
00001010  31ED              xor bp,bp
00001012  4D                dec bp
00001013  8D04              lea ax,[si]
00001015  2B83F8FF          sub ax,[bp+di-0x8]
00001019  7413              jz 0x102e
0000101B  57                push di
0000101C  56                push si
0000101D  8B4424            mov ax,[si+0x24]
00001020  24FF              and al,0xff
00001022  50                push ax
00001023  1083C408          adc [bp+di+0x8c4],al
00001027  45                inc bp
00001028  84C0              test al,al
0000102A  74E7              jz 0x1013
0000102C  EB03              jmp short 0x1031
0000102E  8B2C              mov bp,[si]
00001030  243B              and al,0x3b
00001032  2C24              sub al,0x24
00001034  0F92C0            setc al
00001037  83C404            add sp,byte +0x4
0000103A  5E                pop si
0000103B  5F                pop di
0000103C  5B                pop bx
0000103D  5D                pop bp
0000103E  C3                ret
0000103F  39D1              cmp cx,dx
00001041  741B              jz 0x105e
00001043  53                push bx
00001044  56                push si
00001045  29CA              sub dx,cx
00001047  31C0              xor ax,ax
00001049  31F6              xor si,si
0000104B  31DB              xor bx,bx
0000104D  803C31            cmp byte [si],0x31
00001050  C00F9D            ror byte [bx],byte 0x9d
00001053  C3                ret
00001054  01D8              add ax,bx
00001056  46                inc si
00001057  39F2              cmp dx,si
00001059  75F0              jnz 0x104b
0000105B  5E                pop si
0000105C  5B                pop bx
0000105D  C3                ret
0000105E  31C0              xor ax,ax
00001060  C3                ret
00001061  57                push di
00001062  56                push si
00001063  8B7424            mov si,[si+0x24]
00001066  108B4424          adc [bp+di+0x2444],cl
0000106A  0C29              or al,0x29
0000106C  F07211            lock jc 0x1080
0000106F  8D3C              lea di,[si]
00001071  B289              mov dl,0x89
00001073  11897104          adc [bx+di+0x471],cx
00001077  897908            mov [bx+di+0x8],di
0000107A  89410C            mov [bx+di+0xc],ax
0000107D  5E                pop si
0000107E  5F                pop di
0000107F  C3                ret
00001080  6A23              push byte +0x23
00001082  5A                pop dx
00001083  B9BC44            mov cx,0x44bc
00001086  0000              add [bx+si],al
00001088  FF7424            push word [si+0x24]
0000108B  14E8              adc al,0xe8
0000108D  DD                db 0xdd
0000108E  F1                int1
0000108F  FF                db 0xff
00001090  FF580F            call far [bx+si+0xf]
00001093  0B5756            or dx,[bx+0x56]
00001096  83EC30            sub sp,byte +0x30
00001099  89E0              mov ax,sp
0000109B  8908              mov [bx+si],cx
0000109D  8D4C24            lea cx,[si+0x24]
000010A0  0489              add al,0x89
000010A2  118D7424          adc [di+0x2474],cx
000010A6  088906B8          or [bx+di-0x47fa],cl
000010AA  801900            sbb byte [bx+di],0x0
000010AD  00894604          add [bx+di+0x446],cl
000010B1  894E08            mov [bp+0x8],cx
000010B4  8D4C24            lea cx,[si+0x24]
000010B7  18C7              sbb bh,al
000010B9  01E4              add sp,sp
000010BB  43                inc bx
000010BC  0000              add [bx+si],al
000010BE  6A02              push byte +0x2
000010C0  5F                pop di
000010C1  897904            mov [bx+di+0x4],di
000010C4  83611000          and word [bx+di+0x10],byte +0x0
000010C8  89460C            mov [bp+0xc],ax
000010CB  8B5424            mov dx,[si+0x24]
000010CE  3C89              cmp al,0x89
000010D0  7108              jno 0x10da
000010D2  89790C            mov [bx+di+0xc],di
000010D5  E826F1            call 0x1fe
000010D8  FF                db 0xff
000010D9  FF0F              dec word [bx]
000010DB  0B5756            or dx,[bx+0x56]
000010DE  83EC30            sub sp,byte +0x30
000010E1  89E0              mov ax,sp
000010E3  8908              mov [bx+si],cx
000010E5  8D4C24            lea cx,[si+0x24]
000010E8  0489              add al,0x89
000010EA  118D7424          adc [di+0x2474],cx
000010EE  088906B8          or [bx+di-0x47fa],cl
000010F2  801900            sbb byte [bx+di],0x0
000010F5  00894604          add [bx+di+0x446],cl
000010F9  894E08            mov [bp+0x8],cx
000010FC  8D4C24            lea cx,[si+0x24]
000010FF  18C7              sbb bh,al
00001101  01F4              add sp,si
00001103  43                inc bx
00001104  0000              add [bx+si],al
00001106  6A02              push byte +0x2
00001108  5F                pop di
00001109  897904            mov [bx+di+0x4],di
0000110C  83611000          and word [bx+di+0x10],byte +0x0
00001110  89460C            mov [bp+0xc],ax
00001113  8B5424            mov dx,[si+0x24]
00001116  3C89              cmp al,0x89
00001118  7108              jno 0x1122
0000111A  89790C            mov [bx+di+0xc],di
0000111D  E8DEF0            call 0x1fe
00001120  FF                db 0xff
00001121  FF0F              dec word [bx]
00001123  0B5756            or dx,[bx+0x56]
00001126  8B7C24            mov di,[si+0x24]
00001129  1489              adc al,0x89
0000112B  D6                salc
0000112C  29CE              sub si,cx
0000112E  7213              jc 0x1143
00001130  8B4424            mov ax,[si+0x24]
00001133  1039              adc [bx+di],bh
00001135  C27713            ret 0x1377
00001138  034C24            add cx,[si+0x24]
0000113B  0C89              or al,0x89
0000113D  C889F25E          enter 0xf289,0x5e
00001141  5F                pop di
00001142  C3                ret
00001143  57                push di
00001144  E8BEF1            call 0x305
00001147  FF                db 0xff
00001148  FF                db 0xff
00001149  EB0A              jmp short 0x1155
0000114B  89D1              mov cx,dx
0000114D  89C2              mov dx,ax
0000114F  57                push di
00001150  E859F1            call 0x2ac
00001153  FF                db 0xff
00001154  FF580F            call far [bx+si+0xf]
00001157  0B5756            or dx,[bx+0x56]
0000115A  83EC30            sub sp,byte +0x30
0000115D  89E0              mov ax,sp
0000115F  8908              mov [bx+si],cx
00001161  8D4C24            lea cx,[si+0x24]
00001164  0489              add al,0x89
00001166  118D7424          adc [di+0x2474],cx
0000116A  088906B8          or [bx+di-0x47fa],cl
0000116E  801900            sbb byte [bx+di],0x0
00001171  00894604          add [bx+di+0x446],cl
00001175  894E08            mov [bp+0x8],cx
00001178  8D4C24            lea cx,[si+0x24]
0000117B  18C7              sbb bh,al
0000117D  0128              add [bx+si],bp
0000117F  44                inc sp
00001180  0000              add [bx+si],al
00001182  6A02              push byte +0x2
00001184  5F                pop di
00001185  897904            mov [bx+di+0x4],di
00001188  83611000          and word [bx+di+0x10],byte +0x0
0000118C  89460C            mov [bp+0xc],ax
0000118F  8B5424            mov dx,[si+0x24]
00001192  3C89              cmp al,0x89
00001194  7108              jno 0x119e
00001196  89790C            mov [bx+di+0xc],di
00001199  E862F0            call 0x1fe
0000119C  FF                db 0xff
0000119D  FF0F              dec word [bx]
0000119F  0B5553            or dx,[di+0x53]
000011A2  57                push di
000011A3  56                push si
000011A4  83EC10            sub sp,byte +0x10
000011A7  89D7              mov di,dx
000011A9  89CE              mov si,cx
000011AB  8B5C24            mov bx,[si+0x24]
000011AE  248B              and al,0x8b
000011B0  298B4108          sub [bp+di+0x841],cx
000011B4  89E9              mov cx,bp
000011B6  09C1              or cx,ax
000011B8  0F849400          jz near 0x1250
000011BC  0000              add [bx+si],al
000011BE  85C0              test ax,ax
000011C0  7446              jz 0x1208
000011C2  89F9              mov cx,di
000011C4  8B7E0C            mov di,[bp+0xc]
000011C7  89D8              mov ax,bx
000011C9  8D5C24            lea bx,[si+0x24]
000011CC  0483              add al,0x83
000011CE  6308              arpl [bx+si],cx
000011D0  0001              add [bx+di],al
000011D2  C8890C24          enter 0xc89,0x24
000011D6  890B              mov [bp+di],cx
000011D8  894304            mov [bp+di+0x4],ax
000011DB  47                inc di
000011DC  4F                dec di
000011DD  7411              jz 0x11f0
000011DF  89D9              mov cx,bx
000011E1  E8B100            call 0x1295
000011E4  0000              add [bx+si],al
000011E6  81FA0000          cmp dx,0x0
000011EA  1100              adc [bx+si],ax
000011EC  75EE              jnz 0x11dc
000011EE  EB11              jmp short 0x1201
000011F0  8D4C24            lea cx,[si+0x24]
000011F3  04E8              add al,0xe8
000011F5  9E                sahf
000011F6  0000              add [bx+si],al
000011F8  0081FA00          add [bx+di+0xfa],al
000011FC  0011              add [bx+di],dl
000011FE  00756A            add [di+0x6a],dh
00001201  8B3C              mov di,[si]
00001203  248B              and al,0x8b
00001205  5C                pop sp
00001206  2424              and al,0x24
00001208  85ED              test bp,bp
0000120A  7446              jz 0x1252
0000120C  89DD              mov bp,bx
0000120E  8B5E04            mov bx,[bp+0x4]
00001211  8D14              lea dx,[si]
00001213  2F                das
00001214  89F9              mov cx,di
00001216  E8D5FB            call 0xdee
00001219  FF                db 0xff
0000121A  FF29              jmp far [bx+di]
0000121C  C3                ret
0000121D  7646              jna 0x1265
0000121F  89F1              mov cx,si
00001221  89DA              mov dx,bx
00001223  6A00              push byte +0x0
00001225  E876FD            call 0xf9e
00001228  FF                db 0xff
00001229  FF593D            call far [bx+di+0x3d]
0000122C  0000              add [bx+si],al
0000122E  1100              adc [bx+si],ax
00001230  7419              jz 0x124b
00001232  89C3              mov bx,ax
00001234  89F8              mov ax,di
00001236  8B7E14            mov di,[bp+0x14]
00001239  8B7618            mov si,[bp+0x18]
0000123C  55                push bp
0000123D  50                push ax
0000123E  57                push di
0000123F  89D5              mov bp,dx
00001241  FF560C            call [bp+0xc]
00001244  83C40C            add sp,byte +0xc
00001247  84C0              test al,al
00001249  743C              jz 0x1287
0000124B  B001              mov al,0x1
0000124D  83C410            add sp,byte +0x10
00001250  EB0E              jmp short 0x1260
00001252  8B4618            mov ax,[bp+0x18]
00001255  53                push bx
00001256  57                push di
00001257  FF7614            push word [bp+0x14]
0000125A  FF500C            call [bx+si+0xc]
0000125D  83C41C            add sp,byte +0x1c
00001260  5E                pop si
00001261  5F                pop di
00001262  5B                pop bx
00001263  5D                pop bp
00001264  C3                ret
00001265  8B4618            mov ax,[bp+0x18]
00001268  55                push bp
00001269  EBEB              jmp short 0x1256
0000126B  89C1              mov cx,ax
0000126D  8B3C              mov di,[si]
0000126F  2489              and al,0x89
00001271  FA                cli
00001272  8B5C24            mov bx,[si+0x24]
00001275  2453              and al,0x53
00001277  E84700            call 0x12c1
0000127A  0000              add [bx+si],al
0000127C  59                pop cx
0000127D  85C0              test ax,ax
0000127F  7487              jz 0x1208
00001281  89C7              mov di,ax
00001283  89D3              mov bx,dx
00001285  EB81              jmp short 0x1208
00001287  89EA              mov dx,bp
00001289  89D9              mov cx,bx
0000128B  56                push si
0000128C  57                push di
0000128D  E86CFD            call 0xffc
00001290  FF                db 0xff
00001291  FF83C418          inc word [bp+di+0x18c4]
00001295  EBC9              jmp short 0x1260
00001297  53                push bx
00001298  57                push di
00001299  56                push si
0000129A  89CE              mov si,cx
0000129C  8B19              mov bx,[bx+di]
0000129E  8B7904            mov di,[bx+di+0x4]
000012A1  E83E00            call 0x12e2
000012A4  0000              add [bx+si],al
000012A6  89C2              mov dx,ax
000012A8  81FA0000          cmp dx,0x0
000012AC  1100              adc [bx+si],ax
000012AE  740F              jz 0x12bf
000012B0  8B4608            mov ax,[bp+0x8]
000012B3  01C7              add di,ax
000012B5  035E04            add bx,[bp+0x4]
000012B8  29DF              sub di,bx
000012BA  033E897E          add di,[0x7e89]
000012BE  085E5F            or [bp+0x5f],bl
000012C1  5B                pop bx
000012C2  C3                ret
000012C3  56                push si
000012C4  85C9              test cx,cx
000012C6  7416              jz 0x12de
000012C8  8B7424            mov si,[si+0x24]
000012CB  0831              or [bx+di],dh
000012CD  C039F1            sar byte [bx+di],byte 0xf1
000012D0  7308              jnc 0x12da
000012D2  803C0A            cmp byte [si],0xa
000012D5  C07D06EB          sar byte [di+0x6],byte 0xeb
000012D9  06                push es
000012DA  39CE              cmp si,cx
000012DC  7502              jnz 0x12e0
000012DE  89D0              mov ax,dx
000012E0  89CA              mov dx,cx
000012E2  5E                pop si
000012E3  C3                ret
000012E4  53                push bx
000012E5  57                push di
000012E6  56                push si
000012E7  8B31              mov si,[bx+di]
000012E9  3B7104            cmp si,[bx+di+0x4]
000012EC  7451              jz 0x133f
000012EE  8D4601            lea ax,[bp+0x1]
000012F1  8901              mov [bx+di],ax
000012F3  0FB60684C0        movzx ax,[0xc084]
000012F8  795C              jns 0x1356
000012FA  89C2              mov dx,ax
000012FC  83E21F            and dx,byte +0x1f
000012FF  8D7E02            lea di,[bp+0x2]
00001302  8939              mov [bx+di],di
00001304  0FB65E01          movzx bx,[bp+0x1]
00001308  83E33F            and bx,byte +0x3f
0000130B  3CDF              cmp al,0xdf
0000130D  7637              jna 0x1346
0000130F  8D7E03            lea di,[bp+0x3]
00001312  8939              mov [bx+di],di
00001314  0FB67E02          movzx di,[bp+0x2]
00001318  C1E306            shl bx,byte 0x6
0000131B  83E73F            and di,byte +0x3f
0000131E  09DF              or di,bx
00001320  3CF0              cmp al,0xf0
00001322  722B              jc 0x134f
00001324  8D4604            lea ax,[bp+0x4]
00001327  8901              mov [bx+di],ax
00001329  0FB64603          movzx ax,[bp+0x3]
0000132D  83E207            and dx,byte +0x7
00001330  C1E212            shl dx,byte 0x12
00001333  C1E706            shl di,byte 0x6
00001336  83E03F            and ax,byte +0x3f
00001339  09F8              or ax,di
0000133B  09D0              or ax,dx
0000133D  EB17              jmp short 0x1356
0000133F  B80000            mov ax,0x0
00001342  1100              adc [bx+si],ax
00001344  EB10              jmp short 0x1356
00001346  C1E206            shl dx,byte 0x6
00001349  09DA              or dx,bx
0000134B  89D0              mov ax,dx
0000134D  EB07              jmp short 0x1356
0000134F  C1E20C            shl dx,byte 0xc
00001352  09D7              or di,dx
00001354  89F8              mov ax,di
00001356  5E                pop si
00001357  5F                pop di
00001358  5B                pop bx
00001359  C3                ret
0000135A  8B4C24            mov cx,[si+0x24]
0000135D  088B4424          or [bp+di+0x2444],cl
00001361  048B              add al,0x8b
00001363  10FF              adc bh,bh
00001365  7004              jo 0x136b
00001367  E834FE            call 0x119e
0000136A  FF                db 0xff
0000136B  FF59C3            call far [bx+di-0x3d]
0000136E  55                push bp
0000136F  53                push bx
00001370  57                push di
00001371  56                push si
00001372  83EC30            sub sp,byte +0x30
00001375  83642424          and word [si+0x24],byte +0x24
00001379  00C7              add bh,al
0000137B  44                inc sp
0000137C  2418              and al,0x18
0000137E  2000              and [bx+si],al
00001380  0000              add [bx+si],al
00001382  C6442428          mov byte [si+0x24],0x28
00001386  03836424          add ax,[bp+di+0x2464]
0000138A  0800              or [bx+si],al
0000138C  8B4424            mov ax,[si+0x24]
0000138F  44                inc sp
00001390  83642410          and word [si+0x24],byte +0x10
00001394  00894C24          add [bx+di+0x244c],cl
00001398  1C89              sbb al,0x89
0000139A  54                push sp
0000139B  2420              and al,0x20
0000139D  8B7810            mov di,[bx+si+0x10]
000013A0  85FF              test di,di
000013A2  0F84AD00          jz near 0x1453
000013A6  0000              add [bx+si],al
000013A8  8B5814            mov bx,[bx+si+0x14]
000013AB  8B08              mov cx,[bx+si]
000013AD  8B7008            mov si,[bx+si+0x8]
000013B0  89D8              mov ax,bx
000013B2  25FFFF            and ax,0xffff
000013B5  FF07              inc word [bx]
000013B7  894424            mov [si+0x24],ax
000013BA  04C1              add al,0xc1
000013BC  E305              jcxz 0x13c3
000013BE  890C              mov [si],cx
000013C0  248D              and al,0x8d
000013C2  690485DB          imul ax,[si],word 0xdb85
000013C6  0F84E800          jz near 0x14b2
000013CA  0000              add [bx+si],al
000013CC  8B4500            mov ax,[di+0x0]
000013CF  85C0              test ax,ax
000013D1  741A              jz 0x13ed
000013D3  8B4C24            mov cx,[si+0x24]
000013D6  2050FF            and [bx+si-0x1],dl
000013D9  75FC              jnz 0x13d7
000013DB  FF7424            push word [si+0x24]
000013DE  24FF              and al,0xff
000013E0  51                push cx
000013E1  0C83              or al,0x83
000013E3  C40C              les cx,[si]
000013E5  84C0              test al,al
000013E7  0F85F400          jnz near 0x14df
000013EB  0000              add [bx+si],al
000013ED  8D4720            lea ax,[bx+0x20]
000013F0  894424            mov [si+0x24],ax
000013F3  2C8B              sub al,0x8b
000013F5  47                inc di
000013F6  10894424          adc [bx+di+0x2444],cl
000013FA  188A471C          sbb [bp+si+0x1c47],cl
000013FE  884424            mov [si+0x24],al
00001401  288B4718          sub [bp+di+0x1847],cl
00001405  894424            mov [si+0x24],ax
00001408  248D              and al,0x8d
0000140A  57                push di
0000140B  0889F1E8          or [bx+di-0x170f],cl
0000140F  DC00              fadd qword [bx+si]
00001411  0000              add [bx+si],al
00001413  894424            mov [si+0x24],ax
00001416  08895424          or [bx+di+0x2454],cl
0000141A  0C89              or al,0x89
0000141C  F1                int1
0000141D  89FA              mov dx,di
0000141F  E8CB00            call 0x14ed
00001422  0000              add [bx+si],al
00001424  894424            mov [si+0x24],ax
00001427  10895424          adc [bx+di+0x2454],cl
0000142B  148B              adc al,0x8b
0000142D  47                inc di
0000142E  148D              adc al,0x8d
00001430  4C                dec sp
00001431  2408              and al,0x8
00001433  51                push cx
00001434  FF34              push word [si]
00001436  C6                db 0xc6
00001437  FF54C6            call [si-0x3a]
0000143A  0483              add al,0x83
0000143C  C408              les cx,[bx+si]
0000143E  83C3E0            add bx,byte -0x20
00001441  83C508            add bp,byte +0x8
00001444  8B7C24            mov di,[si+0x24]
00001447  2C84              sub al,0x84
00001449  C00F84            ror byte [bx],byte 0x84
0000144C  74FF              jz 0x144d
0000144E  FF                db 0xff
0000144F  FF                db 0xff
00001450  E98C00            jmp 0x14df
00001453  0000              add [bx+si],al
00001455  8B08              mov cx,[bx+si]
00001457  890C              mov [si],cx
00001459  248B              and al,0x8b
0000145B  58                pop ax
0000145C  088B700C          or [bp+di+0xc70],cl
00001460  89F0              mov ax,si
00001462  25FFFF            and ax,0xffff
00001465  FF1F              call far [bx]
00001467  894424            mov [si+0x24],ax
0000146A  04C1              add al,0xc1
0000146C  E603              out 0x3,al
0000146E  31FF              xor di,di
00001470  39FE              cmp si,di
00001472  7440              jz 0x14b4
00001474  8B04              mov ax,[si]
00001476  248B              and al,0x8b
00001478  44                inc sp
00001479  3804              cmp [si],al
0000147B  85C0              test ax,ax
0000147D  741A              jz 0x1499
0000147F  8B4C24            mov cx,[si+0x24]
00001482  20508B            and [bx+si-0x75],dl
00001485  44                inc sp
00001486  2404              and al,0x4
00001488  FF34              push word [si]
0000148A  38FF              cmp bh,bh
0000148C  7424              jz 0x14b2
0000148E  24FF              and al,0xff
00001490  51                push cx
00001491  0C83              or al,0x83
00001493  C40C              les cx,[si]
00001495  84C0              test al,al
00001497  7548              jnz 0x14e1
00001499  8D6B08            lea bp,[bp+di+0x8]
0000149C  8D4424            lea ax,[si+0x24]
0000149F  0850FF            or [bx+si-0x1],dl
000014A2  33FF              xor di,di
000014A4  53                push bx
000014A5  0483              add al,0x83
000014A7  C408              les cx,[bx+si]
000014A9  83C708            add di,byte +0x8
000014AC  89EB              mov bx,bp
000014AE  84C0              test al,al
000014B0  74BE              jz 0x1470
000014B2  EB2D              jmp short 0x14e1
000014B4  8B4424            mov ax,[si+0x24]
000014B7  44                inc sp
000014B8  8B4C24            mov cx,[si+0x24]
000014BB  043B              add al,0x3b
000014BD  48                dec ax
000014BE  0473              add al,0x73
000014C0  248B              and al,0x8b
000014C2  44                inc sp
000014C3  2420              and al,0x20
000014C5  8B0C              mov cx,[si]
000014C7  248B              and al,0x8b
000014C9  54                push sp
000014CA  2404              and al,0x4
000014CC  FF74D1            push word [si-0x2f]
000014CF  04FF              add al,0xff
000014D1  34D1              xor al,0xd1
000014D3  FF7424            push word [si+0x24]
000014D6  24FF              and al,0xff
000014D8  50                push ax
000014D9  0C83              or al,0x83
000014DB  C40C              les cx,[si]
000014DD  84C0              test al,al
000014DF  7404              jz 0x14e5
000014E1  B001              mov al,0x1
000014E3  EB02              jmp short 0x14e7
000014E5  31C0              xor ax,ax
000014E7  83C430            add sp,byte +0x30
000014EA  5E                pop si
000014EB  5F                pop di
000014EC  5B                pop bx
000014ED  5D                pop bp
000014EE  C3                ret
000014EF  56                push si
000014F0  8B32              mov si,[bp+si]
000014F2  85F6              test si,si
000014F4  7419              jz 0x150f
000014F6  31C0              xor ax,ax
000014F8  83FE01            cmp si,byte +0x1
000014FB  751C              jnz 0x1519
000014FD  8B7204            mov si,[bp+si+0x4]
00001500  817CF10455        cmp word [si-0xf],0x5504
00001505  1900              sbb [bx+si],ax
00001507  00750F            add [di+0xf],dh
0000150A  8B14              mov dx,[si]
0000150C  F1                int1
0000150D  EB03              jmp short 0x1512
0000150F  83C204            add dx,byte +0x4
00001512  8B12              mov dx,[bp+si]
00001514  31C0              xor ax,ax
00001516  40                inc ax
00001517  EB00              jmp short 0x1519
00001519  5E                pop si
0000151A  C3                ret
0000151B  56                push si
0000151C  81FA8100          cmp dx,0x81
00001520  0000              add [bx+si],al
00001522  730F              jnc 0x1533
00001524  BE8000            mov si,0x80
00001527  0000              add [bx+si],al
00001529  29D6              sub si,dx
0000152B  01D1              add cx,dx
0000152D  89C8              mov ax,cx
0000152F  89F2              mov dx,si
00001531  5E                pop si
00001532  C3                ret
00001533  89D1              mov cx,dx
00001535  BA8000            mov dx,0x80
00001538  0000              add [bx+si],al
0000153A  684042            push word 0x4240
0000153D  0000              add [bx+si],al
0000153F  E85EED            call 0x2a0
00001542  FF                db 0xff
00001543  FF580F            call far [bx+si+0xf]
00001546  0B5756            or dx,[bx+0x56]
00001549  81EC8000          sub sp,0x80
0000154D  0000              add [bx+si],al
0000154F  89D6              mov si,dx
00001551  8B421C            mov ax,[bp+si+0x1c]
00001554  A810              test al,0x10
00001556  7513              jnz 0x156b
00001558  A820              test al,0x20
0000155A  753B              jnz 0x1597
0000155C  56                push si
0000155D  51                push cx
0000155E  E81DF6            call 0xb7e
00001561  FF                db 0xff
00001562  FF81C488          inc word [bx+di-0x773c]
00001566  0000              add [bx+si],al
00001568  00EB              add bl,ch
0000156A  788B              js 0x14f7
0000156C  01BA8000          add [bp+si+0x80],di
00001570  0000              add [bx+si],al
00001572  89C1              mov cx,ax
00001574  80E10F            and cl,0xf
00001577  80F90A            cmp cl,0xa
0000157A  7205              jc 0x1581
0000157C  80C157            add cl,0x57
0000157F  EB03              jmp short 0x1584
00001581  80C930            or cl,0x30
00001584  89C7              mov di,ax
00001586  C1EF04            shr di,byte 0x4
00001589  884C14            mov [si+0x14],cl
0000158C  FF4A83            dec word [bp+si-0x7d]
0000158F  F8                clc
00001590  0F89F877          jns near 0x8d8c
00001594  DDEB              fucomp st3
00001596  2A8B01BA          sub cl,[bp+di-0x45ff]
0000159A  800000            add byte [bx+si],0x0
0000159D  0089C180          add [bx+di-0x7f3f],cl
000015A1  E10F              loope 0x15b2
000015A3  80F90A            cmp cl,0xa
000015A6  7205              jc 0x15ad
000015A8  80C137            add cl,0x37
000015AB  EB03              jmp short 0x15b0
000015AD  80C930            or cl,0x30
000015B0  89C7              mov di,ax
000015B2  C1EF04            shr di,byte 0x4
000015B5  884C14            mov [si+0x14],cl
000015B8  FF4A83            dec word [bp+si-0x7d]
000015BB  F8                clc
000015BC  0F89F877          jns near 0x8db8
000015C0  DD89E1E8          fisttp qword [bx+di-0x171f]
000015C4  53                push bx
000015C5  FF                db 0xff
000015C6  FF                db 0xff
000015C7  FF89D789          dec word [bx+di-0x7629]
000015CB  F1                int1
000015CC  BA5042            mov dx,0x4250
000015CF  0000              add [bx+si],al
000015D1  57                push di
000015D2  50                push ax
000015D3  6A02              push byte +0x2
000015D5  E86BF6            call 0xc43
000015D8  FF                db 0xff
000015D9  FF83C40C          inc word [bp+di+0xcc4]
000015DD  81C48000          add sp,0x80
000015E1  0000              add [bx+si],al
000015E3  5E                pop si
000015E4  5F                pop di
000015E5  C3                ret
000015E6  55                push bp
000015E7  53                push bx
000015E8  57                push di
000015E9  56                push si
000015EA  83EC64            sub sp,byte +0x64
000015ED  8B842480          mov ax,[si-0x7fdc]
000015F1  0000              add [bx+si],al
000015F3  008B4C24          add [bp+di+0x244c],cl
000015F7  7C6A              jl 0x1663
000015F9  0A5A8D            or bl,[bp+si-0x73]
000015FC  7424              jz 0x1622
000015FE  3489              xor al,0x89
00001600  56                push si
00001601  E8894E            call 0x648d
00001604  EC                in al,dx
00001605  8946F0            mov [bp-0x10],ax
00001608  8366F400          and word [bp-0xc],byte +0x0
0000160C  8946F8            mov [bp-0x8],ax
0000160F  C746FC0100        mov word [bp-0x4],0x1
00001614  0000              add [bx+si],al
00001616  89168366          mov [0x6683],dx
0000161A  0400              add al,0x0
0000161C  894608            mov [bp+0x8],ax
0000161F  6683660C00        and dword [bp+0xc],byte +0x0
00001624  8B4424            mov ax,[si+0x24]
00001627  788B              js 0x15b4
00001629  48                dec ax
0000162A  08894C24          or [bx+di+0x244c],cl
0000162E  088B0889          or [bp+di-0x76f8],cl
00001632  4C                dec sp
00001633  2404              and al,0x4
00001635  8B4004            mov ax,[bx+si+0x4]
00001638  8904              mov [si],ax
0000163A  2480              and al,0x80
0000163C  7C24              jl 0x1662
0000163E  41                inc cx
0000163F  000F              add [bx],cl
00001641  8531              test [bx+di],si
00001643  0200              add al,[bx+si]
00001645  008B7C24          add [bp+di+0x247c],cl
00001649  20897C24          and [bx+di+0x247c],cl
0000164D  44                inc sp
0000164E  8B4424            mov ax,[si+0x24]
00001651  2489              and al,0x89
00001653  44                inc sp
00001654  2414              and al,0x14
00001656  8B5424            mov dx,[si+0x24]
00001659  2C8B              sub al,0x8b
0000165B  5C                pop sp
0000165C  2430              and al,0x30
0000165E  8D4704            lea ax,[bx+0x4]
00001661  894424            mov [si+0x24],ax
00001664  48                dec ax
00001665  897C24            mov [si+0x24],di
00001668  4C                dec sp
00001669  895C24            mov [si+0x24],bx
0000166C  58                pop ax
0000166D  895424            mov [si+0x24],dx
00001670  0C8B              or al,0x8b
00001672  44                inc sp
00001673  2428              and al,0x28
00001675  89D5              mov bp,dx
00001677  29C5              sub bp,ax
00001679  0F824401          jc near 0x17c1
0000167D  0000              add [bx+si],al
0000167F  3B5424            cmp dx,[si+0x24]
00001682  140F              adc al,0xf
00001684  873A              xchg di,[bp+si]
00001686  0100              add [bx+si],ax
00001688  00894424          add [bx+di+0x2444],cl
0000168C  188D1407          sbb [di+0x714],cl
00001690  0FB64C1C          movzx cx,[si+0x1c]
00001694  3383FD08          xor ax,[bp+di+0x8fd]
00001698  730C              jnc 0x16a6
0000169A  55                push bp
0000169B  E80202            call 0x18a0
0000169E  0000              add [bx+si],al
000016A0  59                pop cx
000016A1  E9AE00            jmp 0x1752
000016A4  0000              add [bx+si],al
000016A6  8D7203            lea si,[bp+si+0x3]
000016A9  83E6FC            and si,byte -0x4
000016AC  31FF              xor di,di
000016AE  895424            mov [si+0x24],dx
000016B1  1029              adc [bx+di],ch
000016B3  D6                salc
000016B4  7423              jz 0x16d9
000016B6  39EE              cmp si,bp
000016B8  7202              jc 0x16bc
000016BA  89EE              mov si,bp
000016BC  89EF              mov di,bp
000016BE  8B5424            mov dx,[si+0x24]
000016C1  105689            adc [bp-0x77],dl
000016C4  CB                retf
000016C5  E8D801            call 0x18a0
000016C8  0000              add [bx+si],al
000016CA  59                pop cx
000016CB  89F7              mov di,si
000016CD  83F801            cmp ax,byte +0x1
000016D0  89D9              mov cx,bx
000016D2  7505              jnz 0x16d9
000016D4  31C0              xor ax,ax
000016D6  40                inc ax
000016D7  EB77              jmp short 0x1750
000016D9  894C24            mov [si+0x24],cx
000016DC  50                push ax
000016DD  69C10101          imul ax,cx,word 0x101
000016E1  0101              add [bx+di],ax
000016E3  896C24            mov [si+0x24],bp
000016E6  54                push sp
000016E7  8D4DF8            lea cx,[di-0x8]
000016EA  894C24            mov [si+0x24],cx
000016ED  5C                pop sp
000016EE  8B4C24            mov cx,[si+0x24]
000016F1  48                dec ax
000016F2  8B5424            mov dx,[si+0x24]
000016F5  1801              sbb [bx+di],al
000016F7  CA3B7C            retf 0x7c3b
000016FA  245C              and al,0x5c
000016FC  772F              ja 0x172d
000016FE  8B743A            mov si,[si+0x3a]
00001701  FC                cld
00001702  31C6              xor si,ax
00001704  89F5              mov bp,si
00001706  F7D5              not bp
00001708  BBFFFE            mov bx,0xfeff
0000170B  FE                db 0xfe
0000170C  FE01              inc byte [bx+di]
0000170E  DE21              fisub word [bx+di]
00001710  EE                out dx,al
00001711  8B2C              mov bp,[si]
00001713  3A31              cmp dh,[bx+di]
00001715  C589E9F7          lds cx,[bx+di-0x817]
00001719  D101              rol word [bx+di],1
0000171B  DD21              frstor [bx+di]
0000171D  CD09              int 0x9
0000171F  F5                cmc
00001720  F7C58080          test bp,0x8080
00001724  8080750583        add byte [bx+si+0x575],0x83
00001729  C7                db 0xc7
0000172A  08EB              or bl,ch
0000172C  CB                retf
0000172D  8B5424            mov dx,[si+0x24]
00001730  1001              adc [bx+di],al
00001732  FA                cli
00001733  8B4424            mov ax,[si+0x24]
00001736  54                push sp
00001737  29F8              sub ax,di
00001739  8B4C24            mov cx,[si+0x24]
0000173C  50                push ax
0000173D  50                push ax
0000173E  E85F01            call 0x18a0
00001741  0000              add [bx+si],al
00001743  59                pop cx
00001744  89C1              mov cx,ax
00001746  31C0              xor ax,ax
00001748  83F901            cmp cx,byte +0x1
0000174B  0F94C0            setz al
0000174E  01FA              add dx,di
00001750  8B7C24            mov di,[si+0x24]
00001753  4C                dec sp
00001754  83F801            cmp ax,byte +0x1
00001757  7562              jnz 0x17bb
00001759  8B4424            mov ax,[si+0x24]
0000175C  188D0C10          sbb [di+0x100c],cl
00001760  41                inc cx
00001761  894C24            mov [si+0x24],cx
00001764  2889C88B          sub [bx+di-0x7438],cl
00001768  5C                pop sp
00001769  2458              and al,0x58
0000176B  29D8              sub ax,bx
0000176D  8B5424            mov dx,[si+0x24]
00001770  0C0F              or al,0xf
00001772  82                db 0x82
00001773  FA                cli
00001774  FE                db 0xfe
00001775  FF                db 0xff
00001776  FF                db 0xff
00001777  3B4C24            cmp cx,[si+0x24]
0000177A  140F              adc al,0xf
0000177C  87F0              xchg si,ax
0000177E  FE                db 0xfe
0000177F  FF                db 0xff
00001780  FF01              inc word [bx+di]
00001782  C7                db 0xc7
00001783  31C9              xor cx,cx
00001785  89DA              mov dx,bx
00001787  683046            push word 0x4630
0000178A  0000              add [bx+si],al
0000178C  6A04              push byte +0x4
0000178E  8D4424            lea ax,[si+0x24]
00001791  3C50              cmp al,0x50
00001793  E88CF9            call 0x1122
00001796  FF                db 0xff
00001797  FF83C40C          inc word [bp+di+0xcc4]
0000179B  89D6              mov si,dx
0000179D  89F9              mov cx,di
0000179F  89DA              mov dx,bx
000017A1  56                push si
000017A2  50                push ax
000017A3  E8DD00            call 0x1883
000017A6  0000              add [bx+si],al
000017A8  59                pop cx
000017A9  5A                pop dx
000017AA  84C0              test al,al
000017AC  0F85B100          jnz near 0x1861
000017B0  0000              add [bx+si],al
000017B2  8B7C24            mov di,[si+0x24]
000017B5  20E9              and cl,ch
000017B7  93                xchg ax,bx
000017B8  FE                db 0xfe
000017B9  FF                db 0xff
000017BA  FF8B4424          dec word [bp+di+0x2444]
000017BE  0C89              or al,0x89
000017C0  44                inc sp
000017C1  2428              and al,0x28
000017C3  807C2441          cmp byte [si+0x24],0x41
000017C7  000F              add [bx],cl
000017C9  85A90000          test [bx+di+0x0],bp
000017CD  00C6              add dh,al
000017CF  44                inc sp
000017D0  2441              and al,0x41
000017D2  01807C24          add [bx+si+0x247c],ax
000017D6  40                inc ax
000017D7  00740A            add [si+0xa],dh
000017DA  8B4424            mov ax,[si+0x24]
000017DD  388B7424          cmp [bp+di+0x2474],cl
000017E1  3CEB              cmp al,0xeb
000017E3  108B4424          adc [bp+di+0x2444],cl
000017E7  388B7424          cmp [bp+di+0x2474],cl
000017EB  3C39              cmp al,0x39
000017ED  C6                db 0xc6
000017EE  0F848300          jz near 0x1875
000017F2  0000              add [bx+si],al
000017F4  85FF              test di,di
000017F6  747F              jz 0x1877
000017F8  01C7              add di,ax
000017FA  29C6              sub si,ax
000017FC  8B4424            mov ax,[si+0x24]
000017FF  08803800          or [bx+si+0x38],al
00001803  7419              jz 0x181e
00001805  6A04              push byte +0x4
00001807  682040            push word 0x4020
0000180A  0000              add [bx+si],al
0000180C  FF7424            push word [si+0x24]
0000180F  0C8B              or al,0x8b
00001811  44                inc sp
00001812  240C              and al,0xc
00001814  FF500C            call [bx+si+0xc]
00001817  83C40C            add sp,byte +0xc
0000181A  84C0              test al,al
0000181C  755D              jnz 0x187b
0000181E  C74424600A        mov word [si+0x24],0xa60
00001823  0000              add [bx+si],al
00001825  0085F674          add [di+0x74f6],al
00001829  17                pop ss
0000182A  8D04              lea ax,[si]
0000182C  3E48              ds dec ax
0000182E  8D4C24            lea cx,[si+0x24]
00001831  60                pusha
00001832  31D2              xor dx,dx
00001834  42                inc dx
00001835  6A01              push byte +0x1
00001837  50                push ax
00001838  E84800            call 0x1883
0000183B  0000              add [bx+si],al
0000183D  59                pop cx
0000183E  5A                pop dx
0000183F  EB02              jmp short 0x1843
00001841  31C0              xor ax,ax
00001843  8B4C24            mov cx,[si+0x24]
00001846  08880156          or [bx+si+0x5601],cl
0000184A  57                push di
0000184B  FF7424            push word [si+0x24]
0000184E  0C8B              or al,0x8b
00001850  44                inc sp
00001851  240C              and al,0xc
00001853  FF500C            call [bx+si+0xc]
00001856  83C40C            add sp,byte +0xc
00001859  84C0              test al,al
0000185B  0F84DAFD          jz near 0x1639
0000185F  FF                db 0xff
00001860  FF                db 0xff
00001861  EB18              jmp short 0x187b
00001863  8B7424            mov si,[si+0x24]
00001866  288B4424          sub [bp+di+0x2444],cl
0000186A  388B7C24          cmp [bp+di+0x247c],cl
0000186E  44                inc sp
0000186F  01C7              add di,ax
00001871  897424            mov [si+0x24],si
00001874  38EB              cmp bl,ch
00001876  8331C0            xor word [bx+di],byte -0x40
00001879  EB02              jmp short 0x187d
0000187B  B001              mov al,0x1
0000187D  83C464            add sp,byte +0x64
00001880  5E                pop si
00001881  5F                pop di
00001882  5B                pop bx
00001883  5D                pop bp
00001884  C3                ret
00001885  3B5424            cmp dx,[si+0x24]
00001888  087514            or [di+0x14],dh
0000188B  52                push dx
0000188C  FF7424            push word [si+0x24]
0000188F  0851E8            or [bx+di-0x18],dl
00001892  200B              and [bp+di],cl
00001894  0000              add [bx+si],al
00001896  83C40C            add sp,byte +0xc
00001899  85C0              test ax,ax
0000189B  0F94C0            setz al
0000189E  C3                ret
0000189F  31C0              xor ax,ax
000018A1  C3                ret
000018A2  53                push bx
000018A3  57                push di
000018A4  56                push si
000018A5  89D6              mov si,dx
000018A7  31C0              xor ax,ax
000018A9  8B5424            mov dx,[si+0x24]
000018AC  1031              adc [bx+di],dh
000018AE  FF4731            inc word [bx+0x31]
000018B1  DB39              fstp tword [bx+di]
000018B3  DA740C            fidiv dword [si+0xc]
000018B6  380C              cmp [si],cl
000018B8  1E                push ds
000018B9  7403              jz 0x18be
000018BB  43                inc bx
000018BC  EBF4              jmp short 0x18b2
000018BE  89DA              mov dx,bx
000018C0  89F8              mov ax,di
000018C2  5E                pop si
000018C3  5F                pop di
000018C4  5B                pop bx
000018C5  C3                ret
000018C6  57                push di
000018C7  56                push si
000018C8  83EC18            sub sp,byte +0x18
000018CB  8B7424            mov si,[si+0x24]
000018CE  288B7C24          sub [bp+di+0x247c],cl
000018D2  2489              and al,0x89
000018D4  F9                stc
000018D5  89F2              mov dx,si
000018D7  E86BFC            call 0x1545
000018DA  FF                db 0xff
000018DB  FF84C075          inc word [si+0x75c0]
000018DF  2F                das
000018E0  89E0              mov ax,sp
000018E2  C7001041          mov word [bx+si],0x4110
000018E6  0000              add [bx+si],al
000018E8  C740040100        mov word [bx+si+0x4],0x1
000018ED  0000              add [bx+si],al
000018EF  83601000          and word [bx+si+0x10],byte +0x0
000018F3  C740080C41        mov word [bx+si+0x8],0x410c
000018F8  0000              add [bx+si],al
000018FA  83600C00          and word [bx+si+0xc],byte +0x0
000018FE  8B4E14            mov cx,[bp+0x14]
00001901  8B5618            mov dx,[bp+0x18]
00001904  50                push ax
00001905  E864FA            call 0x136c
00001908  FF                db 0xff
00001909  FF5984            call far [bx+di-0x7c]
0000190C  C0                db 0xc0
0000190D  7408              jz 0x1917
0000190F  B001              mov al,0x1
00001911  83C418            add sp,byte +0x18
00001914  5E                pop si
00001915  5F                pop di
00001916  C3                ret
00001917  83C704            add di,byte +0x4
0000191A  89F9              mov cx,di
0000191C  89F2              mov dx,si
0000191E  83C418            add sp,byte +0x18
00001921  5E                pop si
00001922  5F                pop di
00001923  E91FFC            jmp 0x1545
00001926  FF                db 0xff
00001927  FF5689            call [bp-0x77]
0000192A  CE                into
0000192B  80790500          cmp byte [bx+di+0x5],0x0
0000192F  8A4904            mov cl,[bx+di+0x4]
00001932  741A              jz 0x194e
00001934  B001              mov al,0x1
00001936  84C9              test cl,cl
00001938  752E              jnz 0x1968
0000193A  8B06F640          mov ax,[0x40f6]
0000193E  1C04              sbb al,0x4
00001940  7513              jnz 0x1955
00001942  8B4818            mov cx,[bx+si+0x18]
00001945  6A02              push byte +0x2
00001947  68CA41            push word 0x41ca
0000194A  0000              add [bx+si],al
0000194C  EB11              jmp short 0x195f
0000194E  84C9              test cl,cl
00001950  0F95C0            setnz al
00001953  EB16              jmp short 0x196b
00001955  8B4818            mov cx,[bx+si+0x18]
00001958  6A01              push byte +0x1
0000195A  68C941            push word 0x41c9
0000195D  0000              add [bx+si],al
0000195F  FF7014            push word [bx+si+0x14]
00001962  FF510C            call [bx+di+0xc]
00001965  83C40C            add sp,byte +0xc
00001968  884604            mov [bp+0x4],al
0000196B  5E                pop si
0000196C  C3                ret
0000196D  53                push bx
0000196E  56                push si
0000196F  83EC0C            sub sp,byte +0xc
00001972  C6442404          mov byte [si+0x24],0x4
00001976  006683            add [bp-0x7d],ah
00001979  642402            fs and al,0x2
0000197C  00C6              add dh,al
0000197E  44                inc sp
0000197F  240B              and al,0xb
00001981  7D89              jnl 0x190c
00001983  D0C1              rol cl,1
00001985  E81483            call 0x9c9c
00001988  E00F              loopne 0x1999
0000198A  8A80AF40          mov al,[bx+si+0x40af]
0000198E  0000              add [bx+si],al
00001990  884424            mov [si+0x24],al
00001993  0589D0            add ax,0xd089
00001996  C1E810            shr ax,byte 0x10
00001999  83E00F            and ax,byte +0xf
0000199C  8A80AF40          mov al,[bx+si+0x40af]
000019A0  0000              add [bx+si],al
000019A2  884424            mov [si+0x24],al
000019A5  06                push es
000019A6  89D0              mov ax,dx
000019A8  C1E80C            shr ax,byte 0xc
000019AB  83E00F            and ax,byte +0xf
000019AE  8A80AF40          mov al,[bx+si+0x40af]
000019B2  0000              add [bx+si],al
000019B4  884424            mov [si+0x24],al
000019B7  07                pop es
000019B8  89D0              mov ax,dx
000019BA  C1E808            shr ax,byte 0x8
000019BD  83E00F            and ax,byte +0xf
000019C0  8A80AF40          mov al,[bx+si+0x40af]
000019C4  0000              add [bx+si],al
000019C6  884424            mov [si+0x24],al
000019C9  0889D0C1          or [bx+di-0x3e30],cl
000019CD  E80483            call 0x9cd4
000019D0  E00F              loopne 0x19e1
000019D2  8A80AF40          mov al,[bx+si+0x40af]
000019D6  0000              add [bx+si],al
000019D8  884424            mov [si+0x24],al
000019DB  0989D083          or [bx+di-0x7c30],cx
000019DF  E00F              loopne 0x19f0
000019E1  8A80AF40          mov al,[bx+si+0x40af]
000019E5  0000              add [bx+si],al
000019E7  884424            mov [si+0x24],al
000019EA  0A83CA01          or al,[bp+di+0x1ca]
000019EE  0FBDDA            bsr bx,dx
000019F1  83F31C            xor bx,byte +0x1c
000019F4  C1EB02            shr bx,byte 0x2
000019F7  83C3FE            add bx,byte -0x2
000019FA  83FB0B            cmp bx,byte +0xb
000019FD  7342              jnc 0x1a41
000019FF  89CE              mov si,cx
00001A01  8D0C              lea cx,[si]
00001A03  1C83              sbb al,0x83
00001A05  C1026A            rol word [bp+si],byte 0x6a
00001A08  035A68            add bx,[bp+si+0x68]
00001A0B  C04E0000          ror byte [bp+0x0],byte 0x0
00001A0F  6A03              push byte +0x3
00001A11  68BC4E            push word 0x4ebc
00001A14  0000              add [bx+si],al
00001A16  E83800            call 0x1a51
00001A19  0000              add [bx+si],al
00001A1B  83C40C            add sp,byte +0xc
00001A1E  0F                db 0x0f
00001A1F  B744              mov bh,0x44
00001A21  240A              and al,0xa
00001A23  66894608          mov [bp+0x8],eax
00001A27  8B4424            mov ax,[si+0x24]
00001A2A  028B4C24          add cl,[bp+di+0x244c]
00001A2E  06                push es
00001A2F  894E04            mov [bp+0x4],cx
00001A32  8906885E          mov [0x5e88],ax
00001A36  0AC6              or al,dh
00001A38  46                inc si
00001A39  0B0A              or cx,[bp+si]
00001A3B  83C40C            add sp,byte +0xc
00001A3E  5E                pop si
00001A3F  5B                pop bx
00001A40  C3                ret
00001A41  6A0A              push byte +0xa
00001A43  5A                pop dx
00001A44  89D9              mov cx,bx
00001A46  68AC4E            push word 0x4eac
00001A49  0000              add [bx+si],al
00001A4B  E852E8            call 0x2a0
00001A4E  FF                db 0xff
00001A4F  FF580F            call far [bx+si+0xf]
00001A52  0B8B4424          or cx,[bp+di+0x2444]
00001A56  0839              or [bx+di],bh
00001A58  C2750F            ret 0xf75
00001A5B  52                push dx
00001A5C  FF7424            push word [si+0x24]
00001A5F  0851E8            or [bx+di-0x18],dl
00001A62  DE08              fimul word [bx+si]
00001A64  0000              add [bx+si],al
00001A66  83C40C            add sp,byte +0xc
00001A69  C3                ret
00001A6A  89D1              mov cx,dx
00001A6C  89C2              mov dx,ax
00001A6E  FF7424            push word [si+0x24]
00001A71  0CE8              or al,0xe8
00001A73  43                inc bx
00001A74  E8FFFF            call 0x1a76
00001A77  58                pop ax
00001A78  0F0B              ud2
00001A7A  57                push di
00001A7B  56                push si
00001A7C  83EC10            sub sp,byte +0x10
00001A7F  89CE              mov si,cx
00001A81  8D7C24            lea di,[si+0x24]
00001A84  0466              add al,0x66
00001A86  83670800          and word [bx+0x8],byte +0x0
00001A8A  8D4424            lea ax,[si+0x24]
00001A8D  02836704          add al,[bp+di+0x467]
00001A91  006689            add [bp-0x77],ah
00001A94  10832700          adc [bp+di+0x27],al
00001A98  6A02              push byte +0x2
00001A9A  5A                pop dx
00001A9B  89F9              mov cx,di
00001A9D  68D04E            push word 0x4ed0
00001AA0  0000              add [bx+si],al
00001AA2  6A02              push byte +0x2
00001AA4  50                push ax
00001AA5  E8A9FF            call 0x1a51
00001AA8  FF                db 0xff
00001AA9  FF83C40C          inc word [bp+di+0xcc4]
00001AAD  0F                db 0x0f
00001AAE  B747              mov bh,0x47
00001AB0  086689            or [bp-0x77],ah
00001AB3  46                inc si
00001AB4  088B078B          or [bp+di-0x74f9],cl
00001AB8  4F                dec di
00001AB9  0489              add al,0x89
00001ABB  4E                dec si
00001ABC  0489              add al,0x89
00001ABE  06                push es
00001ABF  66C7460A000283C4  mov dword [bp+0xa],0xc4830200
00001AC7  105E5F            adc [bp+0x5f],bl
00001ACA  C3                ret
00001ACB  55                push bp
00001ACC  53                push bx
00001ACD  57                push di
00001ACE  56                push si
00001ACF  83EC40            sub sp,byte +0x40
00001AD2  89CE              mov si,cx
00001AD4  B301              mov bl,0x1
00001AD6  80790400          cmp byte [bx+di+0x4],0x0
00001ADA  7411              jz 0x1aed
00001ADC  885E04            mov [bp+0x4],bl
00001ADF  C6460501          mov byte [bp+0x5],0x1
00001AE3  89F0              mov ax,si
00001AE5  83C440            add sp,byte +0x40
00001AE8  5E                pop si
00001AE9  5F                pop di
00001AEA  5B                pop bx
00001AEB  5D                pop bp
00001AEC  C3                ret
00001AED  89D7              mov di,dx
00001AEF  8B2E8B45          mov bp,[0x458b]
00001AF3  1C8A              sbb al,0x8a
00001AF5  56                push si
00001AF6  05A804            add ax,0x4a8
00001AF9  7567              jnz 0x1b62
00001AFB  31C0              xor ax,ax
00001AFD  B9B841            mov cx,0x41b8
00001B00  0000              add [bx+si],al
00001B02  84D2              test dl,dl
00001B04  0F94C2            setz dl
00001B07  7405              jz 0x1b0e
00001B09  B9BB41            mov cx,0x41bb
00001B0C  0000              add [bx+si],al
00001B0E  88D0              mov al,dl
00001B10  83C802            or ax,byte +0x2
00001B13  8B5518            mov dx,[di+0x18]
00001B16  50                push ax
00001B17  51                push cx
00001B18  FF7514            push word [di+0x14]
00001B1B  FF520C            call [bp+si+0xc]
00001B1E  83C40C            add sp,byte +0xc
00001B21  84C0              test al,al
00001B23  75B7              jnz 0x1adc
00001B25  8B4518            mov ax,[di+0x18]
00001B28  FF7424            push word [si+0x24]
00001B2B  54                push sp
00001B2C  57                push di
00001B2D  FF7514            push word [di+0x14]
00001B30  FF500C            call [bx+si+0xc]
00001B33  83C40C            add sp,byte +0xc
00001B36  84C0              test al,al
00001B38  75A2              jnz 0x1adc
00001B3A  8B4518            mov ax,[di+0x18]
00001B3D  6A02              push byte +0x2
00001B3F  689C41            push word 0x419c
00001B42  0000              add [bx+si],al
00001B44  FF7514            push word [di+0x14]
00001B47  FF500C            call [bx+si+0xc]
00001B4A  83C40C            add sp,byte +0xc
00001B4D  84C0              test al,al
00001B4F  758B              jnz 0x1adc
00001B51  55                push bp
00001B52  FF7424            push word [si+0x24]
00001B55  5C                pop sp
00001B56  FF5424            call [si+0x24]
00001B59  6483C408          fs add sp,byte +0x8
00001B5D  E9ED00            jmp 0x1c4d
00001B60  0000              add [bx+si],al
00001B62  84D2              test dl,dl
00001B64  751E              jnz 0x1b84
00001B66  8B4518            mov ax,[di+0x18]
00001B69  6A03              push byte +0x3
00001B6B  68BD41            push word 0x41bd
00001B6E  0000              add [bx+si],al
00001B70  FF7514            push word [di+0x14]
00001B73  FF500C            call [bx+si+0xc]
00001B76  83C40C            add sp,byte +0xc
00001B79  84C0              test al,al
00001B7B  0F855BFF          jnz near 0x1ada
00001B7F  FF                db 0xff
00001B80  FF8B451C          dec word [bp+di+0x1c45]
00001B84  8D4C24            lea cx,[si+0x24]
00001B87  03C6              add ax,si
00001B89  0101              add [bx+di],ax
00001B8B  8B5514            mov dx,[di+0x14]
00001B8E  8B4D18            mov cx,[di+0x18]
00001B91  8D5C24            lea bx,[si+0x24]
00001B94  3489              xor al,0x89
00001B96  13894B04          adc cx,[bx+di+0x44b]
00001B9A  8D4C24            lea cx,[si+0x24]
00001B9D  03894B08          add cx,[bx+di+0x84b]
00001BA1  8B4D10            mov cx,[di+0x10]
00001BA4  894C24            mov [si+0x24],cx
00001BA7  048A              add al,0x8a
00001BA9  55                push bp
00001BAA  208B5D00          and [bp+di+0x5d],cl
00001BAE  895C24            mov [si+0x24],bx
00001BB1  0C8B              or al,0x8b
00001BB3  5D                pop bp
00001BB4  048B              add al,0x8b
00001BB6  4D                dec bp
00001BB7  08894C24          or [bx+di+0x244c],cl
00001BBB  088B6D0C          or [bp+di+0xc6d],cl
00001BBF  894424            mov [si+0x24],ax
00001BC2  2C8B              sub al,0x8b
00001BC4  44                inc sp
00001BC5  2404              and al,0x4
00001BC7  894424            mov [si+0x24],ax
00001BCA  20885424          and [bx+si+0x2454],cl
00001BCE  308B4424          xor [bp+di+0x2444],cl
00001BD2  0C89              or al,0x89
00001BD4  44                inc sp
00001BD5  2410              and al,0x10
00001BD7  895C24            mov [si+0x24],bx
00001BDA  148B              adc al,0x8b
00001BDC  44                inc sp
00001BDD  2408              and al,0x8
00001BDF  894424            mov [si+0x24],ax
00001BE2  18896C24          sbb [bx+di+0x246c],cl
00001BE6  1C8D              sbb al,0x8d
00001BE8  44                inc sp
00001BE9  2434              and al,0x34
00001BEB  894424            mov [si+0x24],ax
00001BEE  24C7              and al,0xc7
00001BF0  44                inc sp
00001BF1  2428              and al,0x28
00001BF3  A04100            mov al,[0x41]
00001BF6  00FF              add bh,bh
00001BF8  7424              jz 0x1c1e
00001BFA  54                push sp
00001BFB  57                push di
00001BFC  89C7              mov di,ax
00001BFE  50                push ax
00001BFF  E8E2F9            call 0x15e4
00001C02  FF                db 0xff
00001C03  FF83C40C          inc word [bp+di+0xcc4]
00001C07  84C0              test al,al
00001C09  7528              jnz 0x1c33
00001C0B  6A02              push byte +0x2
00001C0D  689C41            push word 0x419c
00001C10  0000              add [bx+si],al
00001C12  57                push di
00001C13  E8CEF9            call 0x15e4
00001C16  FF                db 0xff
00001C17  FF83C40C          inc word [bp+di+0xcc4]
00001C1B  84C0              test al,al
00001C1D  7514              jnz 0x1c33
00001C1F  8D4424            lea ax,[si+0x24]
00001C22  1050FF            adc [bx+si-0x1],dl
00001C25  7424              jz 0x1c4b
00001C27  5C                pop sp
00001C28  FF5424            call [si+0x24]
00001C2B  6483C408          fs add sp,byte +0x8
00001C2F  84C0              test al,al
00001C31  7407              jz 0x1c3a
00001C33  B301              mov bl,0x1
00001C35  E9A2FE            jmp 0x1ada
00001C38  FF                db 0xff
00001C39  FF8B4424          dec word [bp+di+0x2444]
00001C3D  286A02            sub [bp+si+0x2],ch
00001C40  68C041            push word 0x41c0
00001C43  0000              add [bx+si],al
00001C45  FF7424            push word [si+0x24]
00001C48  2CFF              sub al,0xff
00001C4A  50                push ax
00001C4B  0C83              or al,0x83
00001C4D  C40C              les cx,[si]
00001C4F  89C3              mov bx,ax
00001C51  E986FE            jmp 0x1ada
00001C54  FF                db 0xff
00001C55  FF5357            call [bp+di+0x57]
00001C58  56                push si
00001C59  8B4424            mov ax,[si+0x24]
00001C5C  108B5808          adc [bp+di+0x858],cl
00001C60  803B00            cmp byte [bp+di],0x0
00001C63  8B38              mov di,[bx+si]
00001C65  8B7004            mov si,[bx+si+0x4]
00001C68  7416              jz 0x1c80
00001C6A  6A04              push byte +0x4
00001C6C  682040            push word 0x4020
00001C6F  0000              add [bx+si],al
00001C71  57                push di
00001C72  FF560C            call [bp+0xc]
00001C75  83C40C            add sp,byte +0xc
00001C78  84C0              test al,al
00001C7A  7404              jz 0x1c80
00001C7C  B001              mov al,0x1
00001C7E  EB12              jmp short 0x1c92
00001C80  8B4424            mov ax,[si+0x24]
00001C83  1483              adc al,0x83
00001C85  F8                clc
00001C86  0A0F              or cl,[bx]
00001C88  94                xchg ax,sp
00001C89  035057            add dx,[bx+si+0x57]
00001C8C  FF5610            call [bp+0x10]
00001C8F  83C408            add sp,byte +0x8
00001C92  5E                pop si
00001C93  5F                pop di
00001C94  5B                pop bx
00001C95  C3                ret
00001C96  8B4C24            mov cx,[si+0x24]
00001C99  04BA              add al,0xba
00001C9B  A04100            mov al,[0x41]
00001C9E  00FF              add bh,bh
00001CA0  7424              jz 0x1cc6
00001CA2  08E8              or al,ch
00001CA4  C6                db 0xc6
00001CA5  F6FF              idiv bh
00001CA7  FF59C3            call far [bx+di-0x3d]
00001CAA  55                push bp
00001CAB  53                push bx
00001CAC  57                push di
00001CAD  56                push si
00001CAE  50                push ax
00001CAF  89CE              mov si,cx
00001CB1  85D2              test dx,dx
00001CB3  7430              jz 0x1ce5
00001CB5  89D7              mov di,dx
00001CB7  83FA09            cmp dx,byte +0x9
00001CBA  7435              jz 0x1cf1
00001CBC  83FF0A            cmp di,byte +0xa
00001CBF  743C              jz 0x1cfd
00001CC1  83FF0D            cmp di,byte +0xd
00001CC4  7443              jz 0x1d09
00001CC6  8B4424            mov ax,[si+0x24]
00001CC9  1883FF22          sbb [bp+di+0x22ff],al
00001CCD  7446              jz 0x1d15
00001CCF  83FF27            cmp di,byte +0x27
00001CD2  7453              jz 0x1d27
00001CD4  83FF5C            cmp di,byte +0x5c
00001CD7  7558              jnz 0x1d31
00001CD9  89F1              mov cx,si
00001CDB  BA5C5C            mov dx,0x5c5c
00001CDE  0000              add [bx+si],al
00001CE0  E9F700            jmp 0x1dda
00001CE3  0000              add [bx+si],al
00001CE5  89F1              mov cx,si
00001CE7  BA5C30            mov dx,0x305c
00001CEA  0000              add [bx+si],al
00001CEC  E9EB00            jmp 0x1dda
00001CEF  0000              add [bx+si],al
00001CF1  89F1              mov cx,si
00001CF3  BA5C74            mov dx,0x745c
00001CF6  0000              add [bx+si],al
00001CF8  E9DF00            jmp 0x1dda
00001CFB  0000              add [bx+si],al
00001CFD  89F1              mov cx,si
00001CFF  BA5C6E            mov dx,0x6e5c
00001D02  0000              add [bx+si],al
00001D04  E9D300            jmp 0x1dda
00001D07  0000              add [bx+si],al
00001D09  89F1              mov cx,si
00001D0B  BA5C72            mov dx,0x725c
00001D0E  0000              add [bx+si],al
00001D10  E9C700            jmp 0x1dda
00001D13  0000              add [bx+si],al
00001D15  0FBAE010          bt ax,byte 0x10
00001D19  7316              jnc 0x1d31
00001D1B  89F1              mov cx,si
00001D1D  BA5C22            mov dx,0x225c
00001D20  0000              add [bx+si],al
00001D22  E9B500            jmp 0x1dda
00001D25  0000              add [bx+si],al
00001D27  0FBAE008          bt ax,byte 0x8
00001D2B  0F82A400          jc near 0x1dd3
00001D2F  0000              add [bx+si],al
00001D31  A801              test al,0x1
00001D33  0F84B600          jz near 0x1ded
00001D37  0000              add [bx+si],al
00001D39  89FB              mov bx,di
00001D3B  C1E30B            shl bx,byte 0xb
00001D3E  31D2              xor dx,dx
00001D40  6A21              push byte +0x21
00001D42  58                pop ax
00001D43  89C1              mov cx,ax
00001D45  39C2              cmp dx,ax
00001D47  7321              jnc 0x1d6a
00001D49  D1E9              shr cx,1
00001D4B  01D1              add cx,dx
00001D4D  8B2C              mov bp,[si]
00001D4F  8D                db 0x8d
00001D50  F04E              lock dec si
00001D52  0000              add [bx+si],al
00001D54  C1E50B            shl bp,byte 0xb
00001D57  39DD              cmp bp,bx
00001D59  7307              jnc 0x1d62
00001D5B  41                inc cx
00001D5C  89CA              mov dx,cx
00001D5E  89C1              mov cx,ax
00001D60  EB04              jmp short 0x1d66
00001D62  7408              jz 0x1d6c
00001D64  89C8              mov ax,cx
00001D66  29D1              sub cx,dx
00001D68  EBDB              jmp short 0x1d45
00001D6A  89D1              mov cx,dx
00001D6C  39C2              cmp dx,ax
00001D6E  83D100            adc cx,byte +0x0
00001D71  83F920            cmp cx,byte +0x20
00001D74  0F87B801          ja near 0x1f30
00001D78  0000              add [bx+si],al
00001D7A  8B04              mov ax,[si]
00001D7C  8D                db 0x8d
00001D7D  F04E              lock dec si
00001D7F  0000              add [bx+si],al
00001D81  BAD702            mov dx,0x2d7
00001D84  0000              add [bx+si],al
00001D86  7412              jz 0x1d9a
00001D88  8B14              mov dx,[si]
00001D8A  8D                db 0x8d
00001D8B  F4                hlt
00001D8C  4E                dec si
00001D8D  0000              add [bx+si],al
00001D8F  C1EA15            shr dx,byte 0x15
00001D92  85C9              test cx,cx
00001D94  0F849A00          jz near 0x1e32
00001D98  0000              add [bx+si],al
00001D9A  BBFFFF            mov bx,0xffff
00001D9D  1F                pop ds
00001D9E  0023              add [bp+di],ah
00001DA0  1C8D              sbb al,0x8d
00001DA2  EC                in al,dx
00001DA3  4E                dec si
00001DA4  0000              add [bx+si],al
00001DA6  C1E815            shr ax,byte 0x15
00001DA9  89F9              mov cx,di
00001DAB  29D9              sub cx,bx
00001DAD  4A                dec dx
00001DAE  89C3              mov bx,ax
00001DB0  31ED              xor bp,bp
00001DB2  8904              mov [si],ax
00001DB4  2439              and al,0x39
00001DB6  DA7431            fidiv dword [si+0x31]
00001DB9  81FBD602          cmp bx,0x2d6
00001DBD  0000              add [bx+si],al
00001DBF  0F874B01          ja near 0x1f0e
00001DC3  0000              add [bx+si],al
00001DC5  0FB683744F        movzx ax,[bp+di+0x4f74]
00001DCA  0000              add [bx+si],al
00001DCC  01C5              add bp,ax
00001DCE  39CD              cmp bp,cx
00001DD0  7716              ja 0x1de8
00001DD2  43                inc bx
00001DD3  EBE0              jmp short 0x1db5
00001DD5  89F1              mov cx,si
00001DD7  BA5C27            mov dx,0x275c
00001DDA  0000              add [bx+si],al
00001DDC  83C404            add sp,byte +0x4
00001DDF  5E                pop si
00001DE0  5F                pop di
00001DE1  5B                pop bx
00001DE2  5D                pop bp
00001DE3  E992FC            jmp 0x1a78
00001DE6  FF                db 0xff
00001DE7  FF89DAF6          dec word [bx+di-0x926]
00001DEB  C20175            ret 0x7501
00001DEE  0583FF            add ax,0xff83
00001DF1  207310            and [bp+di+0x10],dh
00001DF4  89F1              mov cx,si
00001DF6  89FA              mov dx,di
00001DF8  83C404            add sp,byte +0x4
00001DFB  5E                pop si
00001DFC  5F                pop di
00001DFD  5B                pop bx
00001DFE  5D                pop bp
00001DFF  E969FB            jmp 0x196b
00001E02  FF                db 0xff
00001E03  FF83FF7F          inc word [bp+di+0x7fff]
00001E07  0F82F500          jc near 0x1f00
00001E0B  0000              add [bx+si],al
00001E0D  81FF0000          cmp di,0x0
00001E11  0100              add [bx+si],ax
00001E13  7326              jnc 0x1e3b
00001E15  89F9              mov cx,di
00001E17  BAFE4A            mov dx,0x4afe
00001E1A  0000              add [bx+si],al
00001E1C  682F01            push word 0x12f
00001E1F  0000              add [bx+si],al
00001E21  686D4C            push word 0x4c6d
00001E24  0000              add [bx+si],al
00001E26  681F01            push word 0x11f
00001E29  0000              add [bx+si],al
00001E2B  684E4B            push word 0x4b4e
00001E2E  0000              add [bx+si],al
00001E30  6A28              push byte +0x28
00001E32  EB2C              jmp short 0x1e60
00001E34  31DB              xor bx,bx
00001E36  E96BFF            jmp 0x1da4
00001E39  FF                db 0xff
00001E3A  FF81FF00          inc word [bx+di+0xff]
00001E3E  0002              add [bp+si],al
00001E40  00732E            add [bp+di+0x2e],dh
00001E43  89F9              mov cx,di
00001E45  BA2048            mov dx,0x4820
00001E48  0000              add [bx+si],al
00001E4A  68C201            push word 0x1c2
00001E4D  0000              add [bx+si],al
00001E4F  683C49            push word 0x493c
00001E52  0000              add [bx+si],al
00001E54  68C400            push word 0xc4
00001E57  0000              add [bx+si],al
00001E59  687848            push word 0x4878
00001E5C  0000              add [bx+si],al
00001E5E  6A2C              push byte +0x2c
00001E60  E8D700            call 0x1f3a
00001E63  0000              add [bx+si],al
00001E65  83C414            add sp,byte +0x14
00001E68  84C0              test al,al
00001E6A  7488              jz 0x1df4
00001E6C  E99100            jmp 0x1f00
00001E6F  0000              add [bx+si],al
00001E71  8D8710FE          lea ax,[bx-0x1f0]
00001E75  F1                int1
00001E76  FF                db 0xff
00001E77  3D10FE            cmp ax,0xfe10
00001E7A  0200              add al,[bx+si]
00001E7C  0F8272FF          jc near 0x1df2
00001E80  FF                db 0xff
00001E81  FF8D8750          dec word [di+0x5087]
00001E85  DCFC              fdiv to st4
00001E87  FF                db 0xff
00001E88  3D50DD            cmp ax,0xdd50
00001E8B  0A00              or al,[bx+si]
00001E8D  0F8261FF          jc near 0x1df2
00001E91  FF                db 0xff
00001E92  FF8D87B5          dec word [di-0x4a79]
00001E96  EC                in al,dx
00001E97  FC                cld
00001E98  FF83F805          inc word [bp+di+0x5f8]
00001E9C  0F8252FF          jc near 0x1df2
00001EA0  FF                db 0xff
00001EA1  FF8D87E2          dec word [di-0x1d79]
00001EA5  05FDFF            add ax,0xfffd
00001EA8  3DE205            cmp ax,0x5e2
00001EAB  0000              add [bx+si],al
00001EAD  0F8241FF          jc near 0x1df2
00001EB1  FF                db 0xff
00001EB2  FF8D871F          dec word [di+0x1f87]
00001EB6  14FD              adc al,0xfd
00001EB8  FF                db 0xff
00001EB9  3D1F0C            cmp ax,0xc1f
00001EBC  0000              add [bx+si],al
00001EBE  0F8230FF          jc near 0x1df2
00001EC2  FF                db 0xff
00001EC3  FF8D875E          dec word [di+0x5e87]
00001EC7  31FD              xor bp,di
00001EC9  FF83F80E          inc word [bp+di+0xef8]
00001ECD  0F8221FF          jc near 0x1df2
00001ED1  FF                db 0xff
00001ED2  FF89F883          dec word [bx+di-0x7c08]
00001ED6  E0FE              loopne 0x1ed6
00001ED8  3D1EB8            cmp ax,0xb81e
00001EDB  0200              add al,[bx+si]
00001EDD  0F8411FF          jz near 0x1df2
00001EE1  FF                db 0xff
00001EE2  FF89F883          dec word [bx+di-0x7c08]
00001EE6  E0E0              loopne 0x1ec8
00001EE8  3DE0A6            cmp ax,0xa6e0
00001EEB  0200              add al,[bx+si]
00001EED  0F8401FF          jz near 0x1df2
00001EF1  FF                db 0xff
00001EF2  FF8D87C6          dec word [di-0x3979]
00001EF6  48                dec ax
00001EF7  FD                std
00001EF8  FF83F806          inc word [bp+di+0x6f8]
00001EFC  0F82F2FE          jc near 0x1df2
00001F00  FF                db 0xff
00001F01  FFC6              inc si
00001F03  06                push es
00001F04  80897E0483        or byte [bx+di+0x47e],0x83
00001F09  C404              les ax,[si]
00001F0B  5E                pop si
00001F0C  5F                pop di
00001F0D  5B                pop bx
00001F0E  5D                pop bp
00001F0F  C3                ret
00001F10  8B0C              mov cx,[si]
00001F12  2481              and al,0x81
00001F14  F9                stc
00001F15  D802              fadd dword [bp+si]
00001F17  0000              add [bx+si],al
00001F19  7305              jnc 0x1f20
00001F1B  B9D702            mov cx,0x2d7
00001F1E  0000              add [bx+si],al
00001F20  BAD702            mov dx,0x2d7
00001F23  0000              add [bx+si],al
00001F25  682C4E            push word 0x4e2c
00001F28  0000              add [bx+si],al
00001F2A  E8F8E2            call 0x225
00001F2D  FF                db 0xff
00001F2E  FF580F            call far [bx+si+0xf]
00001F31  0B6A21            or bp,[bp+si+0x21]
00001F34  5A                pop dx
00001F35  681C4E            push word 0x4e1c
00001F38  0000              add [bx+si],al
00001F3A  EBEE              jmp short 0x1f2a
00001F3C  55                push bp
00001F3D  53                push bx
00001F3E  57                push di
00001F3F  56                push si
00001F40  50                push ax
00001F41  89CB              mov bx,cx
00001F43  8B4424            mov ax,[si+0x24]
00001F46  188D0442          sbb [di+0x4204],cl
00001F4A  31C9              xor cx,cx
00001F4C  8904              mov [si],ax
00001F4E  2439              and al,0x39
00001F50  C27453            ret 0x5374
00001F53  8D7A02            lea di,[bp+si+0x2]
00001F56  0FB67201          movzx si,[bp+si+0x1]
00001F5A  01CE              add si,cx
00001F5C  383A              cmp [bp+si],bh
00001F5E  7529              jnz 0x1f89
00001F60  89F2              mov dx,si
00001F62  681048            push word 0x4810
00001F65  0000              add [bx+si],al
00001F67  FF7424            push word [si+0x24]
00001F6A  24FF              and al,0xff
00001F6C  7424              jz 0x1f92
00001F6E  24E8              and al,0xe8
00001F70  B0F1              mov al,0xf1
00001F72  FF                db 0xff
00001F73  FF83C40C          inc word [bp+di+0xcc4]
00001F77  31C9              xor cx,cx
00001F79  39CA              cmp dx,cx
00001F7B  7414              jz 0x1f91
00001F7D  8D6901            lea bp,[bx+di+0x1]
00001F80  381C              cmp [si],bl
00001F82  0889E975          or [bx+di+0x75e9],cl
00001F86  F2EB11            repne jmp short 0x1f9a
00001F89  89FA              mov dx,di
00001F8B  89F1              mov cx,si
00001F8D  76C0              jna 0x1f4f
00001F8F  EB15              jmp short 0x1fa6
00001F91  89FA              mov dx,di
00001F93  89F1              mov cx,si
00001F95  8B04              mov ax,[si]
00001F97  24EB              and al,0xeb
00001F99  B531              mov ch,0x31
00001F9B  C02401            shl byte [si],byte 0x1
00001F9E  83C404            add sp,byte +0x4
00001FA1  5E                pop si
00001FA2  5F                pop di
00001FA3  5B                pop bx
00001FA4  5D                pop bp
00001FA5  C3                ret
00001FA6  0F                db 0x0f
00001FA7  B7CB              mov bh,0xcb
00001FA9  8B7C24            mov di,[si+0x24]
00001FAC  288B5C24          sub [bp+di+0x245c],cl
00001FB0  2401              and al,0x1
00001FB2  DFB00139          fbstp tword [bx+si+0x3901]
00001FB6  FB                sti
00001FB7  74E3              jz 0x1f9c
00001FB9  8D7301            lea si,[bp+di+0x1]
00001FBC  0FB613            movzx dx,[bp+di]
00001FBF  84D2              test dl,dl
00001FC1  7804              js 0x1fc7
00001FC3  89F3              mov bx,si
00001FC5  EB13              jmp short 0x1fda
00001FC7  39FE              cmp si,di
00001FC9  7417              jz 0x1fe2
00001FCB  83E27F            and dx,byte +0x7f
00001FCE  C1E208            shl dx,byte 0x8
00001FD1  0FB67301          movzx si,[bp+di+0x1]
00001FD5  83C302            add bx,byte +0x2
00001FD8  09F2              or dx,si
00001FDA  29D1              sub cx,dx
00001FDC  78BE              js 0x1f9c
00001FDE  3401              xor al,0x1
00001FE0  EBD3              jmp short 0x1fb5
00001FE2  6A2B              push byte +0x2b
00001FE4  5A                pop dx
00001FE5  B91B41            mov cx,0x411b
00001FE8  0000              add [bx+si],al
00001FEA  680048            push word 0x4800
00001FED  0000              add [bx+si],al
00001FEF  E87AE2            call 0x26c
00001FF2  FF                db 0xff
00001FF3  FF580F            call far [bx+si+0xf]
00001FF6  0B803980          or ax,[bx+si-0x7fc7]
00001FFA  750F              jnz 0x200b
00001FFC  8B4104            mov ax,[bx+di+0x4]
00001FFF  832100            and word [bx+di],byte +0x0
00002002  83610800          and word [bx+di+0x8],byte +0x0
00002006  83610400          and word [bx+di+0x4],byte +0x0
0000200A  C3                ret
0000200B  0FB6410A          movzx ax,[bx+di+0xa]
0000200F  3A410B            cmp al,[bx+di+0xb]
00002012  7310              jnc 0x2024
00002014  89C2              mov dx,ax
00002016  FEC2              inc dl
00002018  88510A            mov [bx+di+0xa],dl
0000201B  3C0A              cmp al,0xa
0000201D  730B              jnc 0x202a
0000201F  0FB604            movzx ax,[si]
00002022  01C3              add bx,ax
00002024  B80000            mov ax,0x0
00002027  1100              adc [bx+si],ax
00002029  C3                ret
0000202A  6A0A              push byte +0xa
0000202C  5A                pop dx
0000202D  89C1              mov cx,ax
0000202F  68E04E            push word 0x4ee0
00002032  0000              add [bx+si],al
00002034  E8EEE1            call 0x225
00002037  FF                db 0xff
00002038  FF580F            call far [bx+si+0xf]
0000203B  0B5389            or dx,[bp+di-0x77]
0000203E  D0                db 0xd0
0000203F  31DB              xor bx,bx
00002041  BA8A43            mov dx,0x438a
00002044  0000              add [bx+si],al
00002046  84C9              test cl,cl
00002048  0F94C3            setz bl
0000204B  7405              jz 0x2052
0000204D  BA2440            mov dx,0x4024
00002050  0000              add [bx+si],al
00002052  83CB04            or bx,byte +0x4
00002055  89C1              mov cx,ax
00002057  53                push bx
00002058  E843F1            call 0x119e
0000205B  FF                db 0xff
0000205C  FF595B            call far [bx+di+0x5b]
0000205F  C3                ret
00002060  53                push bx
00002061  57                push di
00002062  56                push si
00002063  83EC0C            sub sp,byte +0xc
00002066  8B4424            mov ax,[si+0x24]
00002069  208B7814          and [bp+di+0x1478],cl
0000206D  8B4018            mov ax,[bx+si+0x18]
00002070  8B5810            mov bx,[bx+si+0x10]
00002073  6A27              push byte +0x27
00002075  57                push di
00002076  FFD3              call bx
00002078  59                pop cx
00002079  5A                pop dx
0000207A  84C0              test al,al
0000207C  752D              jnz 0x20ab
0000207E  8B4424            mov ax,[si+0x24]
00002081  1C8B              sbb al,0x8b
00002083  1089E689          adc [bx+di-0x761a],cl
00002087  F1                int1
00002088  680101            push word 0x101
0000208B  0000              add [bx+si],al
0000208D  E818FC            call 0x1ca8
00002090  FF                db 0xff
00002091  FF5889            call far [bx+si-0x77]
00002094  F1                int1
00002095  E85DFF            call 0x1ff5
00002098  FF                db 0xff
00002099  FF                db 0xff
0000209A  3D0000            cmp ax,0x0
0000209D  1100              adc [bx+si],ax
0000209F  7411              jz 0x20b2
000020A1  50                push ax
000020A2  57                push di
000020A3  FFD3              call bx
000020A5  59                pop cx
000020A6  5A                pop dx
000020A7  84C0              test al,al
000020A9  74E8              jz 0x2093
000020AB  B001              mov al,0x1
000020AD  83C40C            add sp,byte +0xc
000020B0  EB08              jmp short 0x20ba
000020B2  6A27              push byte +0x27
000020B4  57                push di
000020B5  FFD3              call bx
000020B7  83C414            add sp,byte +0x14
000020BA  5E                pop si
000020BB  5F                pop di
000020BC  5B                pop bx
000020BD  C3                ret
000020BE  8B4424            mov ax,[si+0x24]
000020C1  0485              add al,0x85
000020C3  C0                db 0xc0
000020C4  741C              jz 0x20e2
000020C6  39C2              cmp dx,ax
000020C8  7616              jna 0x20e0
000020CA  803C01            cmp byte [si],0x1
000020CD  BF7F12            mov di,0x127f
000020D0  FF7424            push word [si+0x24]
000020D3  085250            or [bp+si+0x50],dl
000020D6  E838E2            call 0x311
000020D9  FF                db 0xff
000020DA  FF83C40C          inc word [bp+di+0xcc4]
000020DE  0F0B              ud2
000020E0  75EE              jnz 0x20d0
000020E2  01C1              add cx,ax
000020E4  29C2              sub dx,ax
000020E6  89C8              mov ax,cx
000020E8  C3                ret
000020E9  55                push bp
000020EA  53                push bx
000020EB  57                push di
000020EC  56                push si
000020ED  83EC64            sub sp,byte +0x64
000020F0  89D7              mov di,dx
000020F2  89CB              mov bx,cx
000020F4  8B4424            mov ax,[si+0x24]
000020F7  7C89              jl 0x2082
000020F9  44                inc sp
000020FA  2410              and al,0x10
000020FC  8B7424            mov si,[si+0x24]
000020FF  7868              js 0x2169
00002101  0001              add [bx+di],al
00002103  0000              add [bx+si],al
00002105  E8F701            call 0x22ff
00002108  0000              add [bx+si],al
0000210A  59                pop cx
0000210B  89C5              mov bp,ax
0000210D  89C1              mov cx,ax
0000210F  89DA              mov dx,bx
00002111  57                push di
00002112  E8ACF1            call 0x12c1
00002115  FF                db 0xff
00002116  FF5985            call far [bx+di-0x7b]
00002119  C0                db 0xc0
0000211A  7518              jnz 0x2134
0000211C  89D9              mov cx,bx
0000211E  89FA              mov dx,di
00002120  FFB42480          push word [si-0x7fdc]
00002124  0000              add [bx+si],al
00002126  00556A            add [di+0x6a],dl
00002129  00E8              add al,ch
0000212B  E4E1              in al,0xe1
0000212D  FF                db 0xff
0000212E  FF83C40C          inc word [bp+di+0xcc4]
00002132  0F0B              ud2
00002134  8904              mov [si],ax
00002136  2489              and al,0x89
00002138  54                push sp
00002139  2404              and al,0x4
0000213B  31C0              xor ax,ax
0000213D  B94046            mov cx,0x4640
00002140  0000              add [bx+si],al
00002142  39FD              cmp bp,di
00002144  0F92C2            setc dl
00002147  7205              jc 0x214e
00002149  B90C41            mov cx,0x410c
0000214C  0000              add [bx+si],al
0000214E  88D0              mov al,dl
00002150  8D04              lea ax,[si]
00002152  80894C2408        or byte [bx+di+0x244c],0x8
00002157  894424            mov [si+0x24],ax
0000215A  0C39              or al,0x39
0000215C  FE                db 0xfe
0000215D  770A              ja 0x2169
0000215F  8B4424            mov ax,[si+0x24]
00002162  1039              adc [bx+di],bh
00002164  F8                clc
00002165  7654              jna 0x21bb
00002167  89C6              mov si,ax
00002169  8D4C24            lea cx,[si+0x24]
0000216C  44                inc sp
0000216D  8931              mov [bx+di],si
0000216F  8D4424            lea ax,[si+0x24]
00002172  1C89              sbb al,0x89
00002174  08C7              or bh,al
00002176  40                inc ax
00002177  0480              add al,0x80
00002179  1900              sbb [bx+si],ax
0000217B  0089E189          add [bx+di-0x761f],cl
0000217F  48                dec ax
00002180  08BA5A21          or [bp+si+0x215a],bh
00002184  0000              add [bx+si],al
00002186  89500C            mov [bx+si+0xc],dx
00002189  8D7424            lea si,[si+0x24]
0000218C  088D4C24          or [di+0x244c],cl
00002190  4C                dec sp
00002191  C701EC46          mov word [bx+di],0x46ec
00002195  0000              add [bx+si],al
00002197  6A03              push byte +0x3
00002199  5F                pop di
0000219A  897904            mov [bx+di+0x4],di
0000219D  83611000          and word [bx+di+0x10],byte +0x0
000021A1  897010            mov [bx+si+0x10],si
000021A4  895014            mov [bx+si+0x14],dx
000021A7  894108            mov [bx+di+0x8],ax
000021AA  89790C            mov [bx+di+0xc],di
000021AD  8B942480          mov dx,[si-0x7fdc]
000021B1  0000              add [bx+si],al
000021B3  00E8              add al,ch
000021B5  47                inc di
000021B6  E0FF              loopne 0x21b7
000021B8  FF0F              dec word [bx]
000021BA  0B39              or di,[bx+di]
000021BC  C6                db 0xc6
000021BD  7649              jna 0x2208
000021BF  8D4C24            lea cx,[si+0x24]
000021C2  788D              js 0x2151
000021C4  44                inc sp
000021C5  241C              and al,0x1c
000021C7  8908              mov [bx+si],cx
000021C9  B98019            mov cx,0x1980
000021CC  0000              add [bx+si],al
000021CE  894804            mov [bx+si+0x4],cx
000021D1  8D5424            lea dx,[si+0x24]
000021D4  7C89              jl 0x215f
000021D6  50                push ax
000021D7  0889480C          or [bx+di+0xc48],cl
000021DB  89E1              mov cx,sp
000021DD  894810            mov [bx+si+0x10],cx
000021E0  BA5A21            mov dx,0x215a
000021E3  0000              add [bx+si],al
000021E5  895014            mov [bx+si+0x14],dx
000021E8  8D7424            lea si,[si+0x24]
000021EB  088D4C24          or [di+0x244c],cl
000021EF  4C                dec sp
000021F0  C7015446          mov word [bx+di],0x4654
000021F4  0000              add [bx+si],al
000021F6  6A04              push byte +0x4
000021F8  5F                pop di
000021F9  897904            mov [bx+di+0x4],di
000021FC  83611000          and word [bx+di+0x10],byte +0x0
00002200  897018            mov [bx+si+0x18],si
00002203  89501C            mov [bx+si+0x1c],dx
00002206  EB9F              jmp short 0x21a7
00002208  85F6              test si,si
0000220A  740A              jz 0x2216
0000220C  39FE              cmp si,di
0000220E  7306              jnc 0x2216
00002210  803C33            cmp byte [si],0x33
00002213  C07C0289          sar byte [si+0x2],byte 0x89
00002217  C6                db 0xc6
00002218  897424            mov [si+0x24],si
0000221B  1489              adc al,0x89
0000221D  D9                db 0xd9
0000221E  89FA              mov dx,di
00002220  56                push si
00002221  E8DB00            call 0x22ff
00002224  0000              add [bx+si],al
00002226  59                pop cx
00002227  89C5              mov bp,ax
00002229  89D9              mov cx,bx
0000222B  89FA              mov dx,di
0000222D  8B9C2480          mov bx,[si-0x7fdc]
00002231  0000              add [bx+si],al
00002233  005350            add [bp+di+0x50],dl
00002236  E883FE            call 0x20bc
00002239  FF                db 0xff
0000223A  FF5959            call far [bx+di+0x59]
0000223D  01C2              add dx,ax
0000223F  8D7C24            lea di,[si+0x24]
00002242  1C89              sbb al,0x89
00002244  07                pop es
00002245  895704            mov [bx+0x4],dx
00002248  89F9              mov cx,di
0000224A  E895F0            call 0x12e2
0000224D  FF                db 0xff
0000224E  FF                db 0xff
0000224F  3D0000            cmp ax,0x0
00002252  1100              adc [bx+si],ax
00002254  7511              jnz 0x2267
00002256  6A2B              push byte +0x2b
00002258  5A                pop dx
00002259  B91B41            mov cx,0x411b
0000225C  0000              add [bx+si],al
0000225E  53                push bx
0000225F  E80AE0            call 0x26c
00002262  FF                db 0xff
00002263  FF580F            call far [bx+si+0xf]
00002266  0B894424          or cx,[bx+di+0x2444]
0000226A  183D              sbb [di],bh
0000226C  800000            add byte [bx+si],0x0
0000226F  007305            add [bp+di+0x5],dh
00002272  31C0              xor ax,ax
00002274  40                inc ax
00002275  EB17              jmp short 0x228e
00002277  3D0008            cmp ax,0x800
0000227A  0000              add [bx+si],al
0000227C  7305              jnc 0x2283
0000227E  6A02              push byte +0x2
00002280  58                pop ax
00002281  EB0B              jmp short 0x228e
00002283  3D0000            cmp ax,0x0
00002286  0100              add [bx+si],ax
00002288  6A04              push byte +0x4
0000228A  58                pop ax
0000228B  83D800            sbb ax,byte +0x0
0000228E  01E8              add ax,bp
00002290  8D4C24            lea cx,[si+0x24]
00002293  44                inc sp
00002294  8929              mov [bx+di],bp
00002296  894104            mov [bx+di+0x4],ax
00002299  8D4424            lea ax,[si+0x24]
0000229C  1489              adc al,0x89
0000229E  44                inc sp
0000229F  241C              and al,0x1c
000022A1  C744242080        mov word [si+0x24],0x8020
000022A6  1900              sbb [bx+si],ax
000022A8  008D4424          add [di+0x2444],cl
000022AC  18894424          sbb [bx+di+0x2444],cl
000022B0  24C7              and al,0xc7
000022B2  44                inc sp
000022B3  2428              and al,0x28
000022B5  60                pusha
000022B6  2E0000            add [cs:bx+si],al
000022B9  894C24            mov [si+0x24],cx
000022BC  2CC7              sub al,0xc7
000022BE  44                inc sp
000022BF  2430              and al,0x30
000022C1  C6                db 0xc6
000022C2  260000            add [es:bx+si],al
000022C5  89E0              mov ax,sp
000022C7  894424            mov [si+0x24],ax
000022CA  34B8              xor al,0xb8
000022CC  5A                pop dx
000022CD  2100              and [bx+si],ax
000022CF  00894424          add [bx+di+0x2444],cl
000022D3  388D5424          cmp [di+0x2454],cl
000022D7  088D4C24          or [di+0x244c],cl
000022DB  4C                dec sp
000022DC  C701AC46          mov word [bx+di],0x46ac
000022E0  0000              add [bx+si],al
000022E2  6A05              push byte +0x5
000022E4  5E                pop si
000022E5  897104            mov [bx+di+0x4],si
000022E8  83611000          and word [bx+di+0x10],byte +0x0
000022EC  895424            mov [si+0x24],dx
000022EF  3C89              cmp al,0x89
000022F1  44                inc sp
000022F2  2440              and al,0x40
000022F4  897908            mov [bx+di+0x8],di
000022F7  89710C            mov [bx+di+0xc],si
000022FA  89DA              mov dx,bx
000022FC  E9B3FE            jmp 0x21b2
000022FF  FF                db 0xff
00002300  FF5756            call [bx+0x56]
00002303  89D0              mov ax,dx
00002305  8B5424            mov dx,[si+0x24]
00002308  0C39              or al,0x39
0000230A  D0                db 0xd0
0000230B  7633              jna 0x2340
0000230D  89CF              mov di,cx
0000230F  31F6              xor si,si
00002311  89D1              mov cx,dx
00002313  83E903            sub cx,byte +0x3
00002316  7202              jc 0x231a
00002318  89CE              mov si,cx
0000231A  42                inc dx
0000231B  89F1              mov cx,si
0000231D  687447            push word 0x4774
00002320  0000              add [bx+si],al
00002322  50                push ax
00002323  57                push di
00002324  E8FBED            call 0x1122
00002327  FF                db 0xff
00002328  FF83C40C          inc word [bp+di+0xcc4]
0000232C  89C1              mov cx,ax
0000232E  85D2              test dx,dx
00002330  740C              jz 0x233e
00002332  8D42FF            lea ax,[bp+si-0x1]
00002335  807C11FF          cmp byte [si+0x11],0xff
00002339  C089C27CF0        ror byte [bx+di+0x7cc2],byte 0xf0
0000233E  01F0              add ax,si
00002340  5E                pop si
00002341  5F                pop di
00002342  C3                ret
00002343  90                nop
00002344  53                push bx
00002345  56                push si
00002346  31C9              xor cx,cx
00002348  8B5424            mov dx,[si+0x24]
0000234B  148B              adc al,0x8b
0000234D  7424              jz 0x2373
0000234F  108B4424          adc [bp+di+0x2444],cl
00002353  0C39              or al,0x39
00002355  CA7409            retf 0x974
00002358  8A1C              mov bl,[si]
0000235A  0E                push cs
0000235B  881C              mov [si],bl
0000235D  0841EB            or [bx+di-0x15],al
00002360  F35E              rep pop si
00002362  5B                pop bx
00002363  C3                ret
00002364  53                push bx
00002365  56                push si
00002366  8B5424            mov dx,[si+0x24]
00002369  148B              adc al,0x8b
0000236B  4C                dec sp
0000236C  2410              and al,0x10
0000236E  8B4424            mov ax,[si+0x24]
00002371  0C39              or al,0x39
00002373  C1                db 0xc1
00002374  7313              jnc 0x2389
00002376  89D6              mov si,dx
00002378  83EE01            sub si,byte +0x1
0000237B  721B              jc 0x2398
0000237D  8A5C11            mov bl,[si+0x11]
00002380  FF885C10          dec word [bx+si+0x105c]
00002384  FF89F2EB          dec word [bx+di-0x140e]
00002388  EF                out dx,ax
00002389  31F6              xor si,si
0000238B  39F2              cmp dx,si
0000238D  7409              jz 0x2398
0000238F  8A1C              mov bl,[si]
00002391  31881C30          xor [bx+si+0x301c],cx
00002395  46                inc si
00002396  EBF3              jmp short 0x238b
00002398  5E                pop si
00002399  5B                pop bx
0000239A  C3                ret
0000239B  56                push si
0000239C  8B4C24            mov cx,[si+0x24]
0000239F  108B4424          adc [bp+di+0x2444],cl
000023A3  088A5424          or [bp+si+0x2454],cl
000023A7  0C31              or al,0x31
000023A9  F639              idiv byte [bx+di]
000023AB  F1                int1
000023AC  7406              jz 0x23b4
000023AE  8814              mov [si],dl
000023B0  3046EB            xor [bp-0x15],al
000023B3  F65EC3            neg byte [bp-0x3d]
000023B6  55                push bp
000023B7  53                push bx
000023B8  57                push di
000023B9  56                push si
000023BA  31C0              xor ax,ax
000023BC  8B4C24            mov cx,[si+0x24]
000023BF  1C8B              sbb al,0x8b
000023C1  6C                insb
000023C2  2418              and al,0x18
000023C4  8B7424            mov si,[si+0x24]
000023C7  1431              adc al,0x31
000023C9  FF                db 0xff
000023CA  39F9              cmp cx,di
000023CC  7412              jz 0x23e0
000023CE  0FB61C            movzx bx,[si]
000023D1  3E0FB6543D        movzx dx,[ds:si+0x3d]
000023D6  004738            add [bx+0x38],al
000023D9  D3                db 0xd3
000023DA  74EE              jz 0x23ca
000023DC  29D3              sub bx,dx
000023DE  89D8              mov ax,bx
000023E0  5E                pop si
000023E1  5F                pop di
000023E2  5B                pop bx
000023E3  5D                pop bp
000023E4  C3                ret
000023E5  0000              add [bx+si],al
000023E7  0000              add [bx+si],al
000023E9  0000              add [bx+si],al
000023EB  0000              add [bx+si],al
000023ED  0000              add [bx+si],al
000023EF  0000              add [bx+si],al
000023F1  0000              add [bx+si],al
000023F3  0000              add [bx+si],al
000023F5  0000              add [bx+si],al
000023F7  0000              add [bx+si],al
000023F9  0000              add [bx+si],al
000023FB  0000              add [bx+si],al
000023FD  0000              add [bx+si],al
000023FF  0000              add [bx+si],al
00002401  0000              add [bx+si],al
00002403  0000              add [bx+si],al
00002405  0000              add [bx+si],al
00002407  0000              add [bx+si],al
00002409  0000              add [bx+si],al
0000240B  0000              add [bx+si],al
0000240D  0000              add [bx+si],al
0000240F  0000              add [bx+si],al
00002411  0000              add [bx+si],al
00002413  0000              add [bx+si],al
00002415  0000              add [bx+si],al
00002417  0000              add [bx+si],al
00002419  0000              add [bx+si],al
0000241B  0000              add [bx+si],al
0000241D  0000              add [bx+si],al
0000241F  0000              add [bx+si],al
00002421  0000              add [bx+si],al
00002423  0000              add [bx+si],al
00002425  0000              add [bx+si],al
00002427  0000              add [bx+si],al
00002429  0000              add [bx+si],al
0000242B  0000              add [bx+si],al
0000242D  0000              add [bx+si],al
0000242F  0000              add [bx+si],al
00002431  0000              add [bx+si],al
00002433  0000              add [bx+si],al
00002435  0000              add [bx+si],al
00002437  0000              add [bx+si],al
00002439  0000              add [bx+si],al
0000243B  0000              add [bx+si],al
0000243D  0000              add [bx+si],al
0000243F  0000              add [bx+si],al
00002441  0000              add [bx+si],al
00002443  0000              add [bx+si],al
00002445  0000              add [bx+si],al
00002447  0000              add [bx+si],al
00002449  0000              add [bx+si],al
0000244B  0000              add [bx+si],al
0000244D  0000              add [bx+si],al
0000244F  0000              add [bx+si],al
00002451  0000              add [bx+si],al
00002453  0000              add [bx+si],al
00002455  0000              add [bx+si],al
00002457  0000              add [bx+si],al
00002459  0000              add [bx+si],al
0000245B  0000              add [bx+si],al
0000245D  0000              add [bx+si],al
0000245F  0000              add [bx+si],al
00002461  0000              add [bx+si],al
00002463  0000              add [bx+si],al
00002465  0000              add [bx+si],al
00002467  0000              add [bx+si],al
00002469  0000              add [bx+si],al
0000246B  0000              add [bx+si],al
0000246D  0000              add [bx+si],al
0000246F  0000              add [bx+si],al
00002471  0000              add [bx+si],al
00002473  0000              add [bx+si],al
00002475  0000              add [bx+si],al
00002477  0000              add [bx+si],al
00002479  0000              add [bx+si],al
0000247B  0000              add [bx+si],al
0000247D  0000              add [bx+si],al
0000247F  0000              add [bx+si],al
00002481  0000              add [bx+si],al
00002483  0000              add [bx+si],al
00002485  0000              add [bx+si],al
00002487  0000              add [bx+si],al
00002489  0000              add [bx+si],al
0000248B  0000              add [bx+si],al
0000248D  0000              add [bx+si],al
0000248F  0000              add [bx+si],al
00002491  0000              add [bx+si],al
00002493  0000              add [bx+si],al
00002495  0000              add [bx+si],al
00002497  0000              add [bx+si],al
00002499  0000              add [bx+si],al
0000249B  0000              add [bx+si],al
0000249D  0000              add [bx+si],al
0000249F  0000              add [bx+si],al
000024A1  0000              add [bx+si],al
000024A3  0000              add [bx+si],al
000024A5  0000              add [bx+si],al
000024A7  0000              add [bx+si],al
000024A9  0000              add [bx+si],al
000024AB  0000              add [bx+si],al
000024AD  0000              add [bx+si],al
000024AF  0000              add [bx+si],al
000024B1  0000              add [bx+si],al
000024B3  0000              add [bx+si],al
000024B5  0000              add [bx+si],al
000024B7  0000              add [bx+si],al
000024B9  0000              add [bx+si],al
000024BB  0000              add [bx+si],al
000024BD  0000              add [bx+si],al
000024BF  0000              add [bx+si],al
000024C1  0000              add [bx+si],al
000024C3  0000              add [bx+si],al
000024C5  0000              add [bx+si],al
000024C7  0000              add [bx+si],al
000024C9  0000              add [bx+si],al
000024CB  0000              add [bx+si],al
000024CD  0000              add [bx+si],al
000024CF  0000              add [bx+si],al
000024D1  0000              add [bx+si],al
000024D3  0000              add [bx+si],al
000024D5  0000              add [bx+si],al
000024D7  0000              add [bx+si],al
000024D9  0000              add [bx+si],al
000024DB  0000              add [bx+si],al
000024DD  0000              add [bx+si],al
000024DF  0000              add [bx+si],al
000024E1  0000              add [bx+si],al
000024E3  0000              add [bx+si],al
000024E5  0000              add [bx+si],al
000024E7  0000              add [bx+si],al
000024E9  0000              add [bx+si],al
000024EB  0000              add [bx+si],al
000024ED  0000              add [bx+si],al
000024EF  0000              add [bx+si],al
000024F1  0000              add [bx+si],al
000024F3  0000              add [bx+si],al
000024F5  0000              add [bx+si],al
000024F7  0000              add [bx+si],al
000024F9  0000              add [bx+si],al
000024FB  0000              add [bx+si],al
000024FD  0000              add [bx+si],al
000024FF  0000              add [bx+si],al
00002501  0000              add [bx+si],al
00002503  0000              add [bx+si],al
00002505  0000              add [bx+si],al
00002507  0000              add [bx+si],al
00002509  0000              add [bx+si],al
0000250B  0000              add [bx+si],al
0000250D  0000              add [bx+si],al
0000250F  0000              add [bx+si],al
00002511  0000              add [bx+si],al
00002513  0000              add [bx+si],al
00002515  0000              add [bx+si],al
00002517  0000              add [bx+si],al
00002519  0000              add [bx+si],al
0000251B  0000              add [bx+si],al
0000251D  0000              add [bx+si],al
0000251F  0000              add [bx+si],al
00002521  0000              add [bx+si],al
00002523  0000              add [bx+si],al
00002525  0000              add [bx+si],al
00002527  0000              add [bx+si],al
00002529  0000              add [bx+si],al
0000252B  0000              add [bx+si],al
0000252D  0000              add [bx+si],al
0000252F  0000              add [bx+si],al
00002531  0000              add [bx+si],al
00002533  0000              add [bx+si],al
00002535  0000              add [bx+si],al
00002537  0000              add [bx+si],al
00002539  0000              add [bx+si],al
0000253B  0000              add [bx+si],al
0000253D  0000              add [bx+si],al
0000253F  0000              add [bx+si],al
00002541  0000              add [bx+si],al
00002543  0000              add [bx+si],al
00002545  0000              add [bx+si],al
00002547  0000              add [bx+si],al
00002549  0000              add [bx+si],al
0000254B  0000              add [bx+si],al
0000254D  0000              add [bx+si],al
0000254F  0000              add [bx+si],al
00002551  0000              add [bx+si],al
00002553  0000              add [bx+si],al
00002555  0000              add [bx+si],al
00002557  0000              add [bx+si],al
00002559  0000              add [bx+si],al
0000255B  0000              add [bx+si],al
0000255D  0000              add [bx+si],al
0000255F  0000              add [bx+si],al
00002561  0000              add [bx+si],al
00002563  0000              add [bx+si],al
00002565  0000              add [bx+si],al
00002567  0000              add [bx+si],al
00002569  0000              add [bx+si],al
0000256B  0000              add [bx+si],al
0000256D  0000              add [bx+si],al
0000256F  0000              add [bx+si],al
00002571  0000              add [bx+si],al
00002573  0000              add [bx+si],al
00002575  0000              add [bx+si],al
00002577  0000              add [bx+si],al
00002579  0000              add [bx+si],al
0000257B  0000              add [bx+si],al
0000257D  0000              add [bx+si],al
0000257F  0000              add [bx+si],al
00002581  0000              add [bx+si],al
00002583  0000              add [bx+si],al
00002585  0000              add [bx+si],al
00002587  0000              add [bx+si],al
00002589  0000              add [bx+si],al
0000258B  0000              add [bx+si],al
0000258D  0000              add [bx+si],al
0000258F  0000              add [bx+si],al
00002591  0000              add [bx+si],al
00002593  0000              add [bx+si],al
00002595  0000              add [bx+si],al
00002597  0000              add [bx+si],al
00002599  0000              add [bx+si],al
0000259B  0000              add [bx+si],al
0000259D  0000              add [bx+si],al
0000259F  0000              add [bx+si],al
000025A1  0000              add [bx+si],al
000025A3  0000              add [bx+si],al
000025A5  0000              add [bx+si],al
000025A7  0000              add [bx+si],al
000025A9  0000              add [bx+si],al
000025AB  0000              add [bx+si],al
000025AD  0000              add [bx+si],al
000025AF  0000              add [bx+si],al
000025B1  0000              add [bx+si],al
000025B3  0000              add [bx+si],al
000025B5  0000              add [bx+si],al
000025B7  0000              add [bx+si],al
000025B9  0000              add [bx+si],al
000025BB  0000              add [bx+si],al
000025BD  0000              add [bx+si],al
000025BF  0000              add [bx+si],al
000025C1  0000              add [bx+si],al
000025C3  0000              add [bx+si],al
000025C5  0000              add [bx+si],al
000025C7  0000              add [bx+si],al
000025C9  0000              add [bx+si],al
000025CB  0000              add [bx+si],al
000025CD  0000              add [bx+si],al
000025CF  0000              add [bx+si],al
000025D1  0000              add [bx+si],al
000025D3  0000              add [bx+si],al
000025D5  0000              add [bx+si],al
000025D7  0000              add [bx+si],al
000025D9  0000              add [bx+si],al
000025DB  0000              add [bx+si],al
000025DD  0000              add [bx+si],al
000025DF  0000              add [bx+si],al
000025E1  0000              add [bx+si],al
000025E3  0000              add [bx+si],al
000025E5  0000              add [bx+si],al
000025E7  0000              add [bx+si],al
000025E9  0000              add [bx+si],al
000025EB  0000              add [bx+si],al
000025ED  0000              add [bx+si],al
000025EF  0000              add [bx+si],al
000025F1  0000              add [bx+si],al
000025F3  0000              add [bx+si],al
000025F5  0000              add [bx+si],al
000025F7  0000              add [bx+si],al
000025F9  0000              add [bx+si],al
000025FB  0000              add [bx+si],al
000025FD  0000              add [bx+si],al
000025FF  0000              add [bx+si],al
00002601  0000              add [bx+si],al
00002603  0000              add [bx+si],al
00002605  0000              add [bx+si],al
00002607  0000              add [bx+si],al
00002609  0000              add [bx+si],al
0000260B  0000              add [bx+si],al
0000260D  0000              add [bx+si],al
0000260F  0000              add [bx+si],al
00002611  0000              add [bx+si],al
00002613  0000              add [bx+si],al
00002615  0000              add [bx+si],al
00002617  0000              add [bx+si],al
00002619  0000              add [bx+si],al
0000261B  0000              add [bx+si],al
0000261D  0000              add [bx+si],al
0000261F  0000              add [bx+si],al
00002621  0000              add [bx+si],al
00002623  0000              add [bx+si],al
00002625  0000              add [bx+si],al
00002627  0000              add [bx+si],al
00002629  0000              add [bx+si],al
0000262B  0000              add [bx+si],al
0000262D  0000              add [bx+si],al
0000262F  0000              add [bx+si],al
00002631  0000              add [bx+si],al
00002633  0000              add [bx+si],al
00002635  0000              add [bx+si],al
00002637  0000              add [bx+si],al
00002639  0000              add [bx+si],al
0000263B  0000              add [bx+si],al
0000263D  0000              add [bx+si],al
0000263F  0000              add [bx+si],al
00002641  0000              add [bx+si],al
00002643  0000              add [bx+si],al
00002645  0000              add [bx+si],al
00002647  0000              add [bx+si],al
00002649  0000              add [bx+si],al
0000264B  0000              add [bx+si],al
0000264D  0000              add [bx+si],al
0000264F  0000              add [bx+si],al
00002651  0000              add [bx+si],al
00002653  0000              add [bx+si],al
00002655  0000              add [bx+si],al
00002657  0000              add [bx+si],al
00002659  0000              add [bx+si],al
0000265B  0000              add [bx+si],al
0000265D  0000              add [bx+si],al
0000265F  0000              add [bx+si],al
00002661  0000              add [bx+si],al
00002663  0000              add [bx+si],al
00002665  0000              add [bx+si],al
00002667  0000              add [bx+si],al
00002669  0000              add [bx+si],al
0000266B  0000              add [bx+si],al
0000266D  0000              add [bx+si],al
0000266F  0000              add [bx+si],al
00002671  0000              add [bx+si],al
00002673  0000              add [bx+si],al
00002675  0000              add [bx+si],al
00002677  0000              add [bx+si],al
00002679  0000              add [bx+si],al
0000267B  0000              add [bx+si],al
0000267D  0000              add [bx+si],al
0000267F  0000              add [bx+si],al
00002681  0000              add [bx+si],al
00002683  0000              add [bx+si],al
00002685  0000              add [bx+si],al
00002687  0000              add [bx+si],al
00002689  0000              add [bx+si],al
0000268B  0000              add [bx+si],al
0000268D  0000              add [bx+si],al
0000268F  0000              add [bx+si],al
00002691  0000              add [bx+si],al
00002693  0000              add [bx+si],al
00002695  0000              add [bx+si],al
00002697  0000              add [bx+si],al
00002699  0000              add [bx+si],al
0000269B  0000              add [bx+si],al
0000269D  0000              add [bx+si],al
0000269F  0000              add [bx+si],al
000026A1  0000              add [bx+si],al
000026A3  0000              add [bx+si],al
000026A5  0000              add [bx+si],al
000026A7  0000              add [bx+si],al
000026A9  0000              add [bx+si],al
000026AB  0000              add [bx+si],al
000026AD  0000              add [bx+si],al
000026AF  0000              add [bx+si],al
000026B1  0000              add [bx+si],al
000026B3  0000              add [bx+si],al
000026B5  0000              add [bx+si],al
000026B7  0000              add [bx+si],al
000026B9  0000              add [bx+si],al
000026BB  0000              add [bx+si],al
000026BD  0000              add [bx+si],al
000026BF  0000              add [bx+si],al
000026C1  0000              add [bx+si],al
000026C3  0000              add [bx+si],al
000026C5  0000              add [bx+si],al
000026C7  0000              add [bx+si],al
000026C9  0000              add [bx+si],al
000026CB  0000              add [bx+si],al
000026CD  0000              add [bx+si],al
000026CF  0000              add [bx+si],al
000026D1  0000              add [bx+si],al
000026D3  0000              add [bx+si],al
000026D5  0000              add [bx+si],al
000026D7  0000              add [bx+si],al
000026D9  0000              add [bx+si],al
000026DB  0000              add [bx+si],al
000026DD  0000              add [bx+si],al
000026DF  0000              add [bx+si],al
000026E1  0000              add [bx+si],al
000026E3  0000              add [bx+si],al
000026E5  0000              add [bx+si],al
000026E7  0000              add [bx+si],al
000026E9  0000              add [bx+si],al
000026EB  0000              add [bx+si],al
000026ED  0000              add [bx+si],al
000026EF  0000              add [bx+si],al
000026F1  0000              add [bx+si],al
000026F3  0000              add [bx+si],al
000026F5  0000              add [bx+si],al
000026F7  0000              add [bx+si],al
000026F9  0000              add [bx+si],al
000026FB  0000              add [bx+si],al
000026FD  0000              add [bx+si],al
000026FF  0000              add [bx+si],al
00002701  0000              add [bx+si],al
00002703  0000              add [bx+si],al
00002705  0000              add [bx+si],al
00002707  0000              add [bx+si],al
00002709  0000              add [bx+si],al
0000270B  0000              add [bx+si],al
0000270D  0000              add [bx+si],al
0000270F  0000              add [bx+si],al
00002711  0000              add [bx+si],al
00002713  0000              add [bx+si],al
00002715  0000              add [bx+si],al
00002717  0000              add [bx+si],al
00002719  0000              add [bx+si],al
0000271B  0000              add [bx+si],al
0000271D  0000              add [bx+si],al
0000271F  0000              add [bx+si],al
00002721  0000              add [bx+si],al
00002723  0000              add [bx+si],al
00002725  0000              add [bx+si],al
00002727  0000              add [bx+si],al
00002729  0000              add [bx+si],al
0000272B  0000              add [bx+si],al
0000272D  0000              add [bx+si],al
0000272F  0000              add [bx+si],al
00002731  0000              add [bx+si],al
00002733  0000              add [bx+si],al
00002735  0000              add [bx+si],al
00002737  0000              add [bx+si],al
00002739  0000              add [bx+si],al
0000273B  0000              add [bx+si],al
0000273D  0000              add [bx+si],al
0000273F  0000              add [bx+si],al
00002741  0000              add [bx+si],al
00002743  0000              add [bx+si],al
00002745  0000              add [bx+si],al
00002747  0000              add [bx+si],al
00002749  0000              add [bx+si],al
0000274B  0000              add [bx+si],al
0000274D  0000              add [bx+si],al
0000274F  0000              add [bx+si],al
00002751  0000              add [bx+si],al
00002753  0000              add [bx+si],al
00002755  0000              add [bx+si],al
00002757  0000              add [bx+si],al
00002759  0000              add [bx+si],al
0000275B  0000              add [bx+si],al
0000275D  0000              add [bx+si],al
0000275F  0000              add [bx+si],al
00002761  0000              add [bx+si],al
00002763  0000              add [bx+si],al
00002765  0000              add [bx+si],al
00002767  0000              add [bx+si],al
00002769  0000              add [bx+si],al
0000276B  0000              add [bx+si],al
0000276D  0000              add [bx+si],al
0000276F  0000              add [bx+si],al
00002771  0000              add [bx+si],al
00002773  0000              add [bx+si],al
00002775  0000              add [bx+si],al
00002777  0000              add [bx+si],al
00002779  0000              add [bx+si],al
0000277B  0000              add [bx+si],al
0000277D  0000              add [bx+si],al
0000277F  0000              add [bx+si],al
00002781  0000              add [bx+si],al
00002783  0000              add [bx+si],al
00002785  0000              add [bx+si],al
00002787  0000              add [bx+si],al
00002789  0000              add [bx+si],al
0000278B  0000              add [bx+si],al
0000278D  0000              add [bx+si],al
0000278F  0000              add [bx+si],al
00002791  0000              add [bx+si],al
00002793  0000              add [bx+si],al
00002795  0000              add [bx+si],al
00002797  0000              add [bx+si],al
00002799  0000              add [bx+si],al
0000279B  0000              add [bx+si],al
0000279D  0000              add [bx+si],al
0000279F  0000              add [bx+si],al
000027A1  0000              add [bx+si],al
000027A3  0000              add [bx+si],al
000027A5  0000              add [bx+si],al
000027A7  0000              add [bx+si],al
000027A9  0000              add [bx+si],al
000027AB  0000              add [bx+si],al
000027AD  0000              add [bx+si],al
000027AF  0000              add [bx+si],al
000027B1  0000              add [bx+si],al
000027B3  0000              add [bx+si],al
000027B5  0000              add [bx+si],al
000027B7  0000              add [bx+si],al
000027B9  0000              add [bx+si],al
000027BB  0000              add [bx+si],al
000027BD  0000              add [bx+si],al
000027BF  0000              add [bx+si],al
000027C1  0000              add [bx+si],al
000027C3  0000              add [bx+si],al
000027C5  0000              add [bx+si],al
000027C7  0000              add [bx+si],al
000027C9  0000              add [bx+si],al
000027CB  0000              add [bx+si],al
000027CD  0000              add [bx+si],al
000027CF  0000              add [bx+si],al
000027D1  0000              add [bx+si],al
000027D3  0000              add [bx+si],al
000027D5  0000              add [bx+si],al
000027D7  0000              add [bx+si],al
000027D9  0000              add [bx+si],al
000027DB  0000              add [bx+si],al
000027DD  0000              add [bx+si],al
000027DF  0000              add [bx+si],al
000027E1  0000              add [bx+si],al
000027E3  0000              add [bx+si],al
000027E5  0000              add [bx+si],al
000027E7  0000              add [bx+si],al
000027E9  0000              add [bx+si],al
000027EB  0000              add [bx+si],al
000027ED  0000              add [bx+si],al
000027EF  0000              add [bx+si],al
000027F1  0000              add [bx+si],al
000027F3  0000              add [bx+si],al
000027F5  0000              add [bx+si],al
000027F7  0000              add [bx+si],al
000027F9  0000              add [bx+si],al
000027FB  0000              add [bx+si],al
000027FD  0000              add [bx+si],al
000027FF  0000              add [bx+si],al
00002801  0000              add [bx+si],al
00002803  0000              add [bx+si],al
00002805  0000              add [bx+si],al
00002807  0000              add [bx+si],al
00002809  0000              add [bx+si],al
0000280B  0000              add [bx+si],al
0000280D  0000              add [bx+si],al
0000280F  0000              add [bx+si],al
00002811  0000              add [bx+si],al
00002813  0000              add [bx+si],al
00002815  0000              add [bx+si],al
00002817  0000              add [bx+si],al
00002819  0000              add [bx+si],al
0000281B  0000              add [bx+si],al
0000281D  0000              add [bx+si],al
0000281F  0000              add [bx+si],al
00002821  0000              add [bx+si],al
00002823  0000              add [bx+si],al
00002825  0000              add [bx+si],al
00002827  0000              add [bx+si],al
00002829  0000              add [bx+si],al
0000282B  0000              add [bx+si],al
0000282D  0000              add [bx+si],al
0000282F  0000              add [bx+si],al
00002831  0000              add [bx+si],al
00002833  0000              add [bx+si],al
00002835  0000              add [bx+si],al
00002837  0000              add [bx+si],al
00002839  0000              add [bx+si],al
0000283B  0000              add [bx+si],al
0000283D  0000              add [bx+si],al
0000283F  0000              add [bx+si],al
00002841  0000              add [bx+si],al
00002843  0000              add [bx+si],al
00002845  0000              add [bx+si],al
00002847  0000              add [bx+si],al
00002849  0000              add [bx+si],al
0000284B  0000              add [bx+si],al
0000284D  0000              add [bx+si],al
0000284F  0000              add [bx+si],al
00002851  0000              add [bx+si],al
00002853  0000              add [bx+si],al
00002855  0000              add [bx+si],al
00002857  0000              add [bx+si],al
00002859  0000              add [bx+si],al
0000285B  0000              add [bx+si],al
0000285D  0000              add [bx+si],al
0000285F  0000              add [bx+si],al
00002861  0000              add [bx+si],al
00002863  0000              add [bx+si],al
00002865  0000              add [bx+si],al
00002867  0000              add [bx+si],al
00002869  0000              add [bx+si],al
0000286B  0000              add [bx+si],al
0000286D  0000              add [bx+si],al
0000286F  0000              add [bx+si],al
00002871  0000              add [bx+si],al
00002873  0000              add [bx+si],al
00002875  0000              add [bx+si],al
00002877  0000              add [bx+si],al
00002879  0000              add [bx+si],al
0000287B  0000              add [bx+si],al
0000287D  0000              add [bx+si],al
0000287F  0000              add [bx+si],al
00002881  0000              add [bx+si],al
00002883  0000              add [bx+si],al
00002885  0000              add [bx+si],al
00002887  0000              add [bx+si],al
00002889  0000              add [bx+si],al
0000288B  0000              add [bx+si],al
0000288D  0000              add [bx+si],al
0000288F  0000              add [bx+si],al
00002891  0000              add [bx+si],al
00002893  0000              add [bx+si],al
00002895  0000              add [bx+si],al
00002897  0000              add [bx+si],al
00002899  0000              add [bx+si],al
0000289B  0000              add [bx+si],al
0000289D  0000              add [bx+si],al
0000289F  0000              add [bx+si],al
000028A1  0000              add [bx+si],al
000028A3  0000              add [bx+si],al
000028A5  0000              add [bx+si],al
000028A7  0000              add [bx+si],al
000028A9  0000              add [bx+si],al
000028AB  0000              add [bx+si],al
000028AD  0000              add [bx+si],al
000028AF  0000              add [bx+si],al
000028B1  0000              add [bx+si],al
000028B3  0000              add [bx+si],al
000028B5  0000              add [bx+si],al
000028B7  0000              add [bx+si],al
000028B9  0000              add [bx+si],al
000028BB  0000              add [bx+si],al
000028BD  0000              add [bx+si],al
000028BF  0000              add [bx+si],al
000028C1  0000              add [bx+si],al
000028C3  0000              add [bx+si],al
000028C5  0000              add [bx+si],al
000028C7  0000              add [bx+si],al
000028C9  0000              add [bx+si],al
000028CB  0000              add [bx+si],al
000028CD  0000              add [bx+si],al
000028CF  0000              add [bx+si],al
000028D1  0000              add [bx+si],al
000028D3  0000              add [bx+si],al
000028D5  0000              add [bx+si],al
000028D7  0000              add [bx+si],al
000028D9  0000              add [bx+si],al
000028DB  0000              add [bx+si],al
000028DD  0000              add [bx+si],al
000028DF  0000              add [bx+si],al
000028E1  0000              add [bx+si],al
000028E3  0000              add [bx+si],al
000028E5  0000              add [bx+si],al
000028E7  0000              add [bx+si],al
000028E9  0000              add [bx+si],al
000028EB  0000              add [bx+si],al
000028ED  0000              add [bx+si],al
000028EF  0000              add [bx+si],al
000028F1  0000              add [bx+si],al
000028F3  0000              add [bx+si],al
000028F5  0000              add [bx+si],al
000028F7  0000              add [bx+si],al
000028F9  0000              add [bx+si],al
000028FB  0000              add [bx+si],al
000028FD  0000              add [bx+si],al
000028FF  0000              add [bx+si],al
00002901  0000              add [bx+si],al
00002903  0000              add [bx+si],al
00002905  0000              add [bx+si],al
00002907  0000              add [bx+si],al
00002909  0000              add [bx+si],al
0000290B  0000              add [bx+si],al
0000290D  0000              add [bx+si],al
0000290F  0000              add [bx+si],al
00002911  0000              add [bx+si],al
00002913  0000              add [bx+si],al
00002915  0000              add [bx+si],al
00002917  0000              add [bx+si],al
00002919  0000              add [bx+si],al
0000291B  0000              add [bx+si],al
0000291D  0000              add [bx+si],al
0000291F  0000              add [bx+si],al
00002921  0000              add [bx+si],al
00002923  0000              add [bx+si],al
00002925  0000              add [bx+si],al
00002927  0000              add [bx+si],al
00002929  0000              add [bx+si],al
0000292B  0000              add [bx+si],al
0000292D  0000              add [bx+si],al
0000292F  0000              add [bx+si],al
00002931  0000              add [bx+si],al
00002933  0000              add [bx+si],al
00002935  0000              add [bx+si],al
00002937  0000              add [bx+si],al
00002939  0000              add [bx+si],al
0000293B  0000              add [bx+si],al
0000293D  0000              add [bx+si],al
0000293F  0000              add [bx+si],al
00002941  0000              add [bx+si],al
00002943  0000              add [bx+si],al
00002945  0000              add [bx+si],al
00002947  0000              add [bx+si],al
00002949  0000              add [bx+si],al
0000294B  0000              add [bx+si],al
0000294D  0000              add [bx+si],al
0000294F  0000              add [bx+si],al
00002951  0000              add [bx+si],al
00002953  0000              add [bx+si],al
00002955  0000              add [bx+si],al
00002957  0000              add [bx+si],al
00002959  0000              add [bx+si],al
0000295B  0000              add [bx+si],al
0000295D  0000              add [bx+si],al
0000295F  0000              add [bx+si],al
00002961  0000              add [bx+si],al
00002963  0000              add [bx+si],al
00002965  0000              add [bx+si],al
00002967  0000              add [bx+si],al
00002969  0000              add [bx+si],al
0000296B  0000              add [bx+si],al
0000296D  0000              add [bx+si],al
0000296F  0000              add [bx+si],al
00002971  0000              add [bx+si],al
00002973  0000              add [bx+si],al
00002975  0000              add [bx+si],al
00002977  0000              add [bx+si],al
00002979  0000              add [bx+si],al
0000297B  0000              add [bx+si],al
0000297D  0000              add [bx+si],al
0000297F  0000              add [bx+si],al
00002981  0000              add [bx+si],al
00002983  0000              add [bx+si],al
00002985  0000              add [bx+si],al
00002987  0000              add [bx+si],al
00002989  0000              add [bx+si],al
0000298B  0000              add [bx+si],al
0000298D  0000              add [bx+si],al
0000298F  0000              add [bx+si],al
00002991  0000              add [bx+si],al
00002993  0000              add [bx+si],al
00002995  0000              add [bx+si],al
00002997  0000              add [bx+si],al
00002999  0000              add [bx+si],al
0000299B  0000              add [bx+si],al
0000299D  0000              add [bx+si],al
0000299F  0000              add [bx+si],al
000029A1  0000              add [bx+si],al
000029A3  0000              add [bx+si],al
000029A5  0000              add [bx+si],al
000029A7  0000              add [bx+si],al
000029A9  0000              add [bx+si],al
000029AB  0000              add [bx+si],al
000029AD  0000              add [bx+si],al
000029AF  0000              add [bx+si],al
000029B1  0000              add [bx+si],al
000029B3  0000              add [bx+si],al
000029B5  0000              add [bx+si],al
000029B7  0000              add [bx+si],al
000029B9  0000              add [bx+si],al
000029BB  0000              add [bx+si],al
000029BD  0000              add [bx+si],al
000029BF  0000              add [bx+si],al
000029C1  0000              add [bx+si],al
000029C3  0000              add [bx+si],al
000029C5  0000              add [bx+si],al
000029C7  0000              add [bx+si],al
000029C9  0000              add [bx+si],al
000029CB  0000              add [bx+si],al
000029CD  0000              add [bx+si],al
000029CF  0000              add [bx+si],al
000029D1  0000              add [bx+si],al
000029D3  0000              add [bx+si],al
000029D5  0000              add [bx+si],al
000029D7  0000              add [bx+si],al
000029D9  0000              add [bx+si],al
000029DB  0000              add [bx+si],al
000029DD  0000              add [bx+si],al
000029DF  0000              add [bx+si],al
000029E1  0000              add [bx+si],al
000029E3  0000              add [bx+si],al
000029E5  0000              add [bx+si],al
000029E7  0000              add [bx+si],al
000029E9  0000              add [bx+si],al
000029EB  0000              add [bx+si],al
000029ED  0000              add [bx+si],al
000029EF  0000              add [bx+si],al
000029F1  0000              add [bx+si],al
000029F3  0000              add [bx+si],al
000029F5  0000              add [bx+si],al
000029F7  0000              add [bx+si],al
000029F9  0000              add [bx+si],al
000029FB  0000              add [bx+si],al
000029FD  0000              add [bx+si],al
000029FF  0000              add [bx+si],al
00002A01  0000              add [bx+si],al
00002A03  0000              add [bx+si],al
00002A05  0000              add [bx+si],al
00002A07  0000              add [bx+si],al
00002A09  0000              add [bx+si],al
00002A0B  0000              add [bx+si],al
00002A0D  0000              add [bx+si],al
00002A0F  0000              add [bx+si],al
00002A11  0000              add [bx+si],al
00002A13  0000              add [bx+si],al
00002A15  0000              add [bx+si],al
00002A17  0000              add [bx+si],al
00002A19  0000              add [bx+si],al
00002A1B  0000              add [bx+si],al
00002A1D  0000              add [bx+si],al
00002A1F  0000              add [bx+si],al
00002A21  0000              add [bx+si],al
00002A23  0000              add [bx+si],al
00002A25  0000              add [bx+si],al
00002A27  0000              add [bx+si],al
00002A29  0000              add [bx+si],al
00002A2B  0000              add [bx+si],al
00002A2D  0000              add [bx+si],al
00002A2F  0000              add [bx+si],al
00002A31  0000              add [bx+si],al
00002A33  0000              add [bx+si],al
00002A35  0000              add [bx+si],al
00002A37  0000              add [bx+si],al
00002A39  0000              add [bx+si],al
00002A3B  0000              add [bx+si],al
00002A3D  0000              add [bx+si],al
00002A3F  0000              add [bx+si],al
00002A41  0000              add [bx+si],al
00002A43  0000              add [bx+si],al
00002A45  0000              add [bx+si],al
00002A47  0000              add [bx+si],al
00002A49  0000              add [bx+si],al
00002A4B  0000              add [bx+si],al
00002A4D  0000              add [bx+si],al
00002A4F  0000              add [bx+si],al
00002A51  0000              add [bx+si],al
00002A53  0000              add [bx+si],al
00002A55  0000              add [bx+si],al
00002A57  0000              add [bx+si],al
00002A59  0000              add [bx+si],al
00002A5B  0000              add [bx+si],al
00002A5D  0000              add [bx+si],al
00002A5F  0000              add [bx+si],al
00002A61  0000              add [bx+si],al
00002A63  0000              add [bx+si],al
00002A65  0000              add [bx+si],al
00002A67  0000              add [bx+si],al
00002A69  0000              add [bx+si],al
00002A6B  0000              add [bx+si],al
00002A6D  0000              add [bx+si],al
00002A6F  0000              add [bx+si],al
00002A71  0000              add [bx+si],al
00002A73  0000              add [bx+si],al
00002A75  0000              add [bx+si],al
00002A77  0000              add [bx+si],al
00002A79  0000              add [bx+si],al
00002A7B  0000              add [bx+si],al
00002A7D  0000              add [bx+si],al
00002A7F  0000              add [bx+si],al
00002A81  0000              add [bx+si],al
00002A83  0000              add [bx+si],al
00002A85  0000              add [bx+si],al
00002A87  0000              add [bx+si],al
00002A89  0000              add [bx+si],al
00002A8B  0000              add [bx+si],al
00002A8D  0000              add [bx+si],al
00002A8F  0000              add [bx+si],al
00002A91  0000              add [bx+si],al
00002A93  0000              add [bx+si],al
00002A95  0000              add [bx+si],al
00002A97  0000              add [bx+si],al
00002A99  0000              add [bx+si],al
00002A9B  0000              add [bx+si],al
00002A9D  0000              add [bx+si],al
00002A9F  0000              add [bx+si],al
00002AA1  0000              add [bx+si],al
00002AA3  0000              add [bx+si],al
00002AA5  0000              add [bx+si],al
00002AA7  0000              add [bx+si],al
00002AA9  0000              add [bx+si],al
00002AAB  0000              add [bx+si],al
00002AAD  0000              add [bx+si],al
00002AAF  0000              add [bx+si],al
00002AB1  0000              add [bx+si],al
00002AB3  0000              add [bx+si],al
00002AB5  0000              add [bx+si],al
00002AB7  0000              add [bx+si],al
00002AB9  0000              add [bx+si],al
00002ABB  0000              add [bx+si],al
00002ABD  0000              add [bx+si],al
00002ABF  0000              add [bx+si],al
00002AC1  0000              add [bx+si],al
00002AC3  0000              add [bx+si],al
00002AC5  0000              add [bx+si],al
00002AC7  0000              add [bx+si],al
00002AC9  0000              add [bx+si],al
00002ACB  0000              add [bx+si],al
00002ACD  0000              add [bx+si],al
00002ACF  0000              add [bx+si],al
00002AD1  0000              add [bx+si],al
00002AD3  0000              add [bx+si],al
00002AD5  0000              add [bx+si],al
00002AD7  0000              add [bx+si],al
00002AD9  0000              add [bx+si],al
00002ADB  0000              add [bx+si],al
00002ADD  0000              add [bx+si],al
00002ADF  0000              add [bx+si],al
00002AE1  0000              add [bx+si],al
00002AE3  0000              add [bx+si],al
00002AE5  0000              add [bx+si],al
00002AE7  0000              add [bx+si],al
00002AE9  0000              add [bx+si],al
00002AEB  0000              add [bx+si],al
00002AED  0000              add [bx+si],al
00002AEF  0000              add [bx+si],al
00002AF1  0000              add [bx+si],al
00002AF3  0000              add [bx+si],al
00002AF5  0000              add [bx+si],al
00002AF7  0000              add [bx+si],al
00002AF9  0000              add [bx+si],al
00002AFB  0000              add [bx+si],al
00002AFD  0000              add [bx+si],al
00002AFF  0000              add [bx+si],al
00002B01  0000              add [bx+si],al
00002B03  0000              add [bx+si],al
00002B05  0000              add [bx+si],al
00002B07  0000              add [bx+si],al
00002B09  0000              add [bx+si],al
00002B0B  0000              add [bx+si],al
00002B0D  0000              add [bx+si],al
00002B0F  0000              add [bx+si],al
00002B11  0000              add [bx+si],al
00002B13  0000              add [bx+si],al
00002B15  0000              add [bx+si],al
00002B17  0000              add [bx+si],al
00002B19  0000              add [bx+si],al
00002B1B  0000              add [bx+si],al
00002B1D  0000              add [bx+si],al
00002B1F  0000              add [bx+si],al
00002B21  0000              add [bx+si],al
00002B23  0000              add [bx+si],al
00002B25  0000              add [bx+si],al
00002B27  0000              add [bx+si],al
00002B29  0000              add [bx+si],al
00002B2B  0000              add [bx+si],al
00002B2D  0000              add [bx+si],al
00002B2F  0000              add [bx+si],al
00002B31  0000              add [bx+si],al
00002B33  0000              add [bx+si],al
00002B35  0000              add [bx+si],al
00002B37  0000              add [bx+si],al
00002B39  0000              add [bx+si],al
00002B3B  0000              add [bx+si],al
00002B3D  0000              add [bx+si],al
00002B3F  0000              add [bx+si],al
00002B41  0000              add [bx+si],al
00002B43  0000              add [bx+si],al
00002B45  0000              add [bx+si],al
00002B47  0000              add [bx+si],al
00002B49  0000              add [bx+si],al
00002B4B  0000              add [bx+si],al
00002B4D  0000              add [bx+si],al
00002B4F  0000              add [bx+si],al
00002B51  0000              add [bx+si],al
00002B53  0000              add [bx+si],al
00002B55  0000              add [bx+si],al
00002B57  0000              add [bx+si],al
00002B59  0000              add [bx+si],al
00002B5B  0000              add [bx+si],al
00002B5D  0000              add [bx+si],al
00002B5F  0000              add [bx+si],al
00002B61  0000              add [bx+si],al
00002B63  0000              add [bx+si],al
00002B65  0000              add [bx+si],al
00002B67  0000              add [bx+si],al
00002B69  0000              add [bx+si],al
00002B6B  0000              add [bx+si],al
00002B6D  0000              add [bx+si],al
00002B6F  0000              add [bx+si],al
00002B71  0000              add [bx+si],al
00002B73  0000              add [bx+si],al
00002B75  0000              add [bx+si],al
00002B77  0000              add [bx+si],al
00002B79  0000              add [bx+si],al
00002B7B  0000              add [bx+si],al
00002B7D  0000              add [bx+si],al
00002B7F  0000              add [bx+si],al
00002B81  0000              add [bx+si],al
00002B83  0000              add [bx+si],al
00002B85  0000              add [bx+si],al
00002B87  0000              add [bx+si],al
00002B89  0000              add [bx+si],al
00002B8B  0000              add [bx+si],al
00002B8D  0000              add [bx+si],al
00002B8F  0000              add [bx+si],al
00002B91  0000              add [bx+si],al
00002B93  0000              add [bx+si],al
00002B95  0000              add [bx+si],al
00002B97  0000              add [bx+si],al
00002B99  0000              add [bx+si],al
00002B9B  0000              add [bx+si],al
00002B9D  0000              add [bx+si],al
00002B9F  0000              add [bx+si],al
00002BA1  0000              add [bx+si],al
00002BA3  0000              add [bx+si],al
00002BA5  0000              add [bx+si],al
00002BA7  0000              add [bx+si],al
00002BA9  0000              add [bx+si],al
00002BAB  0000              add [bx+si],al
00002BAD  0000              add [bx+si],al
00002BAF  0000              add [bx+si],al
00002BB1  0000              add [bx+si],al
00002BB3  0000              add [bx+si],al
00002BB5  0000              add [bx+si],al
00002BB7  0000              add [bx+si],al
00002BB9  0000              add [bx+si],al
00002BBB  0000              add [bx+si],al
00002BBD  0000              add [bx+si],al
00002BBF  0000              add [bx+si],al
00002BC1  0000              add [bx+si],al
00002BC3  0000              add [bx+si],al
00002BC5  0000              add [bx+si],al
00002BC7  0000              add [bx+si],al
00002BC9  0000              add [bx+si],al
00002BCB  0000              add [bx+si],al
00002BCD  0000              add [bx+si],al
00002BCF  0000              add [bx+si],al
00002BD1  0000              add [bx+si],al
00002BD3  0000              add [bx+si],al
00002BD5  0000              add [bx+si],al
00002BD7  0000              add [bx+si],al
00002BD9  0000              add [bx+si],al
00002BDB  0000              add [bx+si],al
00002BDD  0000              add [bx+si],al
00002BDF  0000              add [bx+si],al
00002BE1  0000              add [bx+si],al
00002BE3  0000              add [bx+si],al
00002BE5  0000              add [bx+si],al
00002BE7  0000              add [bx+si],al
00002BE9  0000              add [bx+si],al
00002BEB  0000              add [bx+si],al
00002BED  0000              add [bx+si],al
00002BEF  0000              add [bx+si],al
00002BF1  0000              add [bx+si],al
00002BF3  0000              add [bx+si],al
00002BF5  0000              add [bx+si],al
00002BF7  0000              add [bx+si],al
00002BF9  0000              add [bx+si],al
00002BFB  0000              add [bx+si],al
00002BFD  0000              add [bx+si],al
00002BFF  0000              add [bx+si],al
00002C01  0000              add [bx+si],al
00002C03  0000              add [bx+si],al
00002C05  0000              add [bx+si],al
00002C07  0000              add [bx+si],al
00002C09  0000              add [bx+si],al
00002C0B  0000              add [bx+si],al
00002C0D  0000              add [bx+si],al
00002C0F  0000              add [bx+si],al
00002C11  0000              add [bx+si],al
00002C13  0000              add [bx+si],al
00002C15  0000              add [bx+si],al
00002C17  0000              add [bx+si],al
00002C19  0000              add [bx+si],al
00002C1B  0000              add [bx+si],al
00002C1D  0000              add [bx+si],al
00002C1F  0000              add [bx+si],al
00002C21  0000              add [bx+si],al
00002C23  0000              add [bx+si],al
00002C25  0000              add [bx+si],al
00002C27  0000              add [bx+si],al
00002C29  0000              add [bx+si],al
00002C2B  0000              add [bx+si],al
00002C2D  0000              add [bx+si],al
00002C2F  0000              add [bx+si],al
00002C31  0000              add [bx+si],al
00002C33  0000              add [bx+si],al
00002C35  0000              add [bx+si],al
00002C37  0000              add [bx+si],al
00002C39  0000              add [bx+si],al
00002C3B  0000              add [bx+si],al
00002C3D  0000              add [bx+si],al
00002C3F  0000              add [bx+si],al
00002C41  0000              add [bx+si],al
00002C43  0000              add [bx+si],al
00002C45  0000              add [bx+si],al
00002C47  0000              add [bx+si],al
00002C49  0000              add [bx+si],al
00002C4B  0000              add [bx+si],al
00002C4D  0000              add [bx+si],al
00002C4F  0000              add [bx+si],al
00002C51  0000              add [bx+si],al
00002C53  0000              add [bx+si],al
00002C55  0000              add [bx+si],al
00002C57  0000              add [bx+si],al
00002C59  0000              add [bx+si],al
00002C5B  0000              add [bx+si],al
00002C5D  0000              add [bx+si],al
00002C5F  0000              add [bx+si],al
00002C61  0000              add [bx+si],al
00002C63  0000              add [bx+si],al
00002C65  0000              add [bx+si],al
00002C67  0000              add [bx+si],al
00002C69  0000              add [bx+si],al
00002C6B  0000              add [bx+si],al
00002C6D  0000              add [bx+si],al
00002C6F  0000              add [bx+si],al
00002C71  0000              add [bx+si],al
00002C73  0000              add [bx+si],al
00002C75  0000              add [bx+si],al
00002C77  0000              add [bx+si],al
00002C79  0000              add [bx+si],al
00002C7B  0000              add [bx+si],al
00002C7D  0000              add [bx+si],al
00002C7F  0000              add [bx+si],al
00002C81  0000              add [bx+si],al
00002C83  0000              add [bx+si],al
00002C85  0000              add [bx+si],al
00002C87  0000              add [bx+si],al
00002C89  0000              add [bx+si],al
00002C8B  0000              add [bx+si],al
00002C8D  0000              add [bx+si],al
00002C8F  0000              add [bx+si],al
00002C91  0000              add [bx+si],al
00002C93  0000              add [bx+si],al
00002C95  0000              add [bx+si],al
00002C97  0000              add [bx+si],al
00002C99  0000              add [bx+si],al
00002C9B  0000              add [bx+si],al
00002C9D  0000              add [bx+si],al
00002C9F  0000              add [bx+si],al
00002CA1  0000              add [bx+si],al
00002CA3  0000              add [bx+si],al
00002CA5  0000              add [bx+si],al
00002CA7  0000              add [bx+si],al
00002CA9  0000              add [bx+si],al
00002CAB  0000              add [bx+si],al
00002CAD  0000              add [bx+si],al
00002CAF  0000              add [bx+si],al
00002CB1  0000              add [bx+si],al
00002CB3  0000              add [bx+si],al
00002CB5  0000              add [bx+si],al
00002CB7  0000              add [bx+si],al
00002CB9  0000              add [bx+si],al
00002CBB  0000              add [bx+si],al
00002CBD  0000              add [bx+si],al
00002CBF  0000              add [bx+si],al
00002CC1  0000              add [bx+si],al
00002CC3  0000              add [bx+si],al
00002CC5  0000              add [bx+si],al
00002CC7  0000              add [bx+si],al
00002CC9  0000              add [bx+si],al
00002CCB  0000              add [bx+si],al
00002CCD  0000              add [bx+si],al
00002CCF  0000              add [bx+si],al
00002CD1  0000              add [bx+si],al
00002CD3  0000              add [bx+si],al
00002CD5  0000              add [bx+si],al
00002CD7  0000              add [bx+si],al
00002CD9  0000              add [bx+si],al
00002CDB  0000              add [bx+si],al
00002CDD  0000              add [bx+si],al
00002CDF  0000              add [bx+si],al
00002CE1  0000              add [bx+si],al
00002CE3  0000              add [bx+si],al
00002CE5  0000              add [bx+si],al
00002CE7  0000              add [bx+si],al
00002CE9  0000              add [bx+si],al
00002CEB  0000              add [bx+si],al
00002CED  0000              add [bx+si],al
00002CEF  0000              add [bx+si],al
00002CF1  0000              add [bx+si],al
00002CF3  0000              add [bx+si],al
00002CF5  0000              add [bx+si],al
00002CF7  0000              add [bx+si],al
00002CF9  0000              add [bx+si],al
00002CFB  0000              add [bx+si],al
00002CFD  0000              add [bx+si],al
00002CFF  0000              add [bx+si],al
00002D01  0000              add [bx+si],al
00002D03  0000              add [bx+si],al
00002D05  0000              add [bx+si],al
00002D07  0000              add [bx+si],al
00002D09  0000              add [bx+si],al
00002D0B  0000              add [bx+si],al
00002D0D  0000              add [bx+si],al
00002D0F  0000              add [bx+si],al
00002D11  0000              add [bx+si],al
00002D13  0000              add [bx+si],al
00002D15  0000              add [bx+si],al
00002D17  0000              add [bx+si],al
00002D19  0000              add [bx+si],al
00002D1B  0000              add [bx+si],al
00002D1D  0000              add [bx+si],al
00002D1F  0000              add [bx+si],al
00002D21  0000              add [bx+si],al
00002D23  0000              add [bx+si],al
00002D25  0000              add [bx+si],al
00002D27  0000              add [bx+si],al
00002D29  0000              add [bx+si],al
00002D2B  0000              add [bx+si],al
00002D2D  0000              add [bx+si],al
00002D2F  0000              add [bx+si],al
00002D31  0000              add [bx+si],al
00002D33  0000              add [bx+si],al
00002D35  0000              add [bx+si],al
00002D37  0000              add [bx+si],al
00002D39  0000              add [bx+si],al
00002D3B  0000              add [bx+si],al
00002D3D  0000              add [bx+si],al
00002D3F  0000              add [bx+si],al
00002D41  0000              add [bx+si],al
00002D43  0000              add [bx+si],al
00002D45  0000              add [bx+si],al
00002D47  0000              add [bx+si],al
00002D49  0000              add [bx+si],al
00002D4B  0000              add [bx+si],al
00002D4D  0000              add [bx+si],al
00002D4F  0000              add [bx+si],al
00002D51  0000              add [bx+si],al
00002D53  0000              add [bx+si],al
00002D55  0000              add [bx+si],al
00002D57  0000              add [bx+si],al
00002D59  0000              add [bx+si],al
00002D5B  0000              add [bx+si],al
00002D5D  0000              add [bx+si],al
00002D5F  0000              add [bx+si],al
00002D61  0000              add [bx+si],al
00002D63  0000              add [bx+si],al
00002D65  0000              add [bx+si],al
00002D67  0000              add [bx+si],al
00002D69  0000              add [bx+si],al
00002D6B  0000              add [bx+si],al
00002D6D  0000              add [bx+si],al
00002D6F  0000              add [bx+si],al
00002D71  0000              add [bx+si],al
00002D73  0000              add [bx+si],al
00002D75  0000              add [bx+si],al
00002D77  0000              add [bx+si],al
00002D79  0000              add [bx+si],al
00002D7B  0000              add [bx+si],al
00002D7D  0000              add [bx+si],al
00002D7F  0000              add [bx+si],al
00002D81  0000              add [bx+si],al
00002D83  0000              add [bx+si],al
00002D85  0000              add [bx+si],al
00002D87  0000              add [bx+si],al
00002D89  0000              add [bx+si],al
00002D8B  0000              add [bx+si],al
00002D8D  0000              add [bx+si],al
00002D8F  0000              add [bx+si],al
00002D91  0000              add [bx+si],al
00002D93  0000              add [bx+si],al
00002D95  0000              add [bx+si],al
00002D97  0000              add [bx+si],al
00002D99  0000              add [bx+si],al
00002D9B  0000              add [bx+si],al
00002D9D  0000              add [bx+si],al
00002D9F  0000              add [bx+si],al
00002DA1  0000              add [bx+si],al
00002DA3  0000              add [bx+si],al
00002DA5  0000              add [bx+si],al
00002DA7  0000              add [bx+si],al
00002DA9  0000              add [bx+si],al
00002DAB  0000              add [bx+si],al
00002DAD  0000              add [bx+si],al
00002DAF  0000              add [bx+si],al
00002DB1  0000              add [bx+si],al
00002DB3  0000              add [bx+si],al
00002DB5  0000              add [bx+si],al
00002DB7  0000              add [bx+si],al
00002DB9  0000              add [bx+si],al
00002DBB  0000              add [bx+si],al
00002DBD  0000              add [bx+si],al
00002DBF  0000              add [bx+si],al
00002DC1  0000              add [bx+si],al
00002DC3  0000              add [bx+si],al
00002DC5  0000              add [bx+si],al
00002DC7  0000              add [bx+si],al
00002DC9  0000              add [bx+si],al
00002DCB  0000              add [bx+si],al
00002DCD  0000              add [bx+si],al
00002DCF  0000              add [bx+si],al
00002DD1  0000              add [bx+si],al
00002DD3  0000              add [bx+si],al
00002DD5  0000              add [bx+si],al
00002DD7  0000              add [bx+si],al
00002DD9  0000              add [bx+si],al
00002DDB  0000              add [bx+si],al
00002DDD  0000              add [bx+si],al
00002DDF  0000              add [bx+si],al
00002DE1  0000              add [bx+si],al
00002DE3  0000              add [bx+si],al
00002DE5  0000              add [bx+si],al
00002DE7  0000              add [bx+si],al
00002DE9  0000              add [bx+si],al
00002DEB  0000              add [bx+si],al
00002DED  0000              add [bx+si],al
00002DEF  0000              add [bx+si],al
00002DF1  0000              add [bx+si],al
00002DF3  0000              add [bx+si],al
00002DF5  0000              add [bx+si],al
00002DF7  0000              add [bx+si],al
00002DF9  0000              add [bx+si],al
00002DFB  0000              add [bx+si],al
00002DFD  0000              add [bx+si],al
00002DFF  0000              add [bx+si],al
00002E01  0000              add [bx+si],al
00002E03  0000              add [bx+si],al
00002E05  0000              add [bx+si],al
00002E07  0000              add [bx+si],al
00002E09  0000              add [bx+si],al
00002E0B  0000              add [bx+si],al
00002E0D  0000              add [bx+si],al
00002E0F  0000              add [bx+si],al
00002E11  0000              add [bx+si],al
00002E13  0000              add [bx+si],al
00002E15  0000              add [bx+si],al
00002E17  0000              add [bx+si],al
00002E19  0000              add [bx+si],al
00002E1B  0000              add [bx+si],al
00002E1D  0000              add [bx+si],al
00002E1F  0000              add [bx+si],al
00002E21  0000              add [bx+si],al
00002E23  0000              add [bx+si],al
00002E25  0000              add [bx+si],al
00002E27  0000              add [bx+si],al
00002E29  0000              add [bx+si],al
00002E2B  0000              add [bx+si],al
00002E2D  0000              add [bx+si],al
00002E2F  0000              add [bx+si],al
00002E31  0000              add [bx+si],al
00002E33  0000              add [bx+si],al
00002E35  0000              add [bx+si],al
00002E37  0000              add [bx+si],al
00002E39  0000              add [bx+si],al
00002E3B  0000              add [bx+si],al
00002E3D  0000              add [bx+si],al
00002E3F  0000              add [bx+si],al
00002E41  0000              add [bx+si],al
00002E43  0000              add [bx+si],al
00002E45  0000              add [bx+si],al
00002E47  0000              add [bx+si],al
00002E49  0000              add [bx+si],al
00002E4B  0000              add [bx+si],al
00002E4D  0000              add [bx+si],al
00002E4F  0000              add [bx+si],al
00002E51  0000              add [bx+si],al
00002E53  0000              add [bx+si],al
00002E55  0000              add [bx+si],al
00002E57  0000              add [bx+si],al
00002E59  0000              add [bx+si],al
00002E5B  0000              add [bx+si],al
00002E5D  0000              add [bx+si],al
00002E5F  0000              add [bx+si],al
00002E61  0000              add [bx+si],al
00002E63  0000              add [bx+si],al
00002E65  0000              add [bx+si],al
00002E67  0000              add [bx+si],al
00002E69  0000              add [bx+si],al
00002E6B  0000              add [bx+si],al
00002E6D  0000              add [bx+si],al
00002E6F  0000              add [bx+si],al
00002E71  0000              add [bx+si],al
00002E73  0000              add [bx+si],al
00002E75  0000              add [bx+si],al
00002E77  0000              add [bx+si],al
00002E79  0000              add [bx+si],al
00002E7B  0000              add [bx+si],al
00002E7D  0000              add [bx+si],al
00002E7F  0000              add [bx+si],al
00002E81  0000              add [bx+si],al
00002E83  0000              add [bx+si],al
00002E85  0000              add [bx+si],al
00002E87  0000              add [bx+si],al
00002E89  0000              add [bx+si],al
00002E8B  0000              add [bx+si],al
00002E8D  0000              add [bx+si],al
00002E8F  0000              add [bx+si],al
00002E91  0000              add [bx+si],al
00002E93  0000              add [bx+si],al
00002E95  0000              add [bx+si],al
00002E97  0000              add [bx+si],al
00002E99  0000              add [bx+si],al
00002E9B  0000              add [bx+si],al
00002E9D  0000              add [bx+si],al
00002E9F  0000              add [bx+si],al
00002EA1  0000              add [bx+si],al
00002EA3  0000              add [bx+si],al
00002EA5  0000              add [bx+si],al
00002EA7  0000              add [bx+si],al
00002EA9  0000              add [bx+si],al
00002EAB  0000              add [bx+si],al
00002EAD  0000              add [bx+si],al
00002EAF  0000              add [bx+si],al
00002EB1  0000              add [bx+si],al
00002EB3  0000              add [bx+si],al
00002EB5  0000              add [bx+si],al
00002EB7  0000              add [bx+si],al
00002EB9  0000              add [bx+si],al
00002EBB  0000              add [bx+si],al
00002EBD  0000              add [bx+si],al
00002EBF  0000              add [bx+si],al
00002EC1  0000              add [bx+si],al
00002EC3  0000              add [bx+si],al
00002EC5  0000              add [bx+si],al
00002EC7  0000              add [bx+si],al
00002EC9  0000              add [bx+si],al
00002ECB  0000              add [bx+si],al
00002ECD  0000              add [bx+si],al
00002ECF  0000              add [bx+si],al
00002ED1  0000              add [bx+si],al
00002ED3  0000              add [bx+si],al
00002ED5  0000              add [bx+si],al
00002ED7  0000              add [bx+si],al
00002ED9  0000              add [bx+si],al
00002EDB  0000              add [bx+si],al
00002EDD  0000              add [bx+si],al
00002EDF  0000              add [bx+si],al
00002EE1  0000              add [bx+si],al
00002EE3  0000              add [bx+si],al
00002EE5  0000              add [bx+si],al
00002EE7  0000              add [bx+si],al
00002EE9  0000              add [bx+si],al
00002EEB  0000              add [bx+si],al
00002EED  0000              add [bx+si],al
00002EEF  0000              add [bx+si],al
00002EF1  0000              add [bx+si],al
00002EF3  0000              add [bx+si],al
00002EF5  0000              add [bx+si],al
00002EF7  0000              add [bx+si],al
00002EF9  0000              add [bx+si],al
00002EFB  0000              add [bx+si],al
00002EFD  0000              add [bx+si],al
00002EFF  0000              add [bx+si],al
00002F01  0000              add [bx+si],al
00002F03  0000              add [bx+si],al
00002F05  0000              add [bx+si],al
00002F07  0000              add [bx+si],al
00002F09  0000              add [bx+si],al
00002F0B  0000              add [bx+si],al
00002F0D  0000              add [bx+si],al
00002F0F  0000              add [bx+si],al
00002F11  0000              add [bx+si],al
00002F13  0000              add [bx+si],al
00002F15  0000              add [bx+si],al
00002F17  0000              add [bx+si],al
00002F19  0000              add [bx+si],al
00002F1B  0000              add [bx+si],al
00002F1D  0000              add [bx+si],al
00002F1F  0000              add [bx+si],al
00002F21  0000              add [bx+si],al
00002F23  0000              add [bx+si],al
00002F25  0000              add [bx+si],al
00002F27  0000              add [bx+si],al
00002F29  0000              add [bx+si],al
00002F2B  0000              add [bx+si],al
00002F2D  0000              add [bx+si],al
00002F2F  0000              add [bx+si],al
00002F31  0000              add [bx+si],al
00002F33  0000              add [bx+si],al
00002F35  0000              add [bx+si],al
00002F37  0000              add [bx+si],al
00002F39  0000              add [bx+si],al
00002F3B  0000              add [bx+si],al
00002F3D  0000              add [bx+si],al
00002F3F  0000              add [bx+si],al
00002F41  0000              add [bx+si],al
00002F43  0000              add [bx+si],al
00002F45  0000              add [bx+si],al
00002F47  0000              add [bx+si],al
00002F49  0000              add [bx+si],al
00002F4B  0000              add [bx+si],al
00002F4D  0000              add [bx+si],al
00002F4F  0000              add [bx+si],al
00002F51  0000              add [bx+si],al
00002F53  0000              add [bx+si],al
00002F55  0000              add [bx+si],al
00002F57  0000              add [bx+si],al
00002F59  0000              add [bx+si],al
00002F5B  0000              add [bx+si],al
00002F5D  0000              add [bx+si],al
00002F5F  0000              add [bx+si],al
00002F61  0000              add [bx+si],al
00002F63  0000              add [bx+si],al
00002F65  0000              add [bx+si],al
00002F67  0000              add [bx+si],al
00002F69  0000              add [bx+si],al
00002F6B  0000              add [bx+si],al
00002F6D  0000              add [bx+si],al
00002F6F  0000              add [bx+si],al
00002F71  0000              add [bx+si],al
00002F73  0000              add [bx+si],al
00002F75  0000              add [bx+si],al
00002F77  0000              add [bx+si],al
00002F79  0000              add [bx+si],al
00002F7B  0000              add [bx+si],al
00002F7D  0000              add [bx+si],al
00002F7F  0000              add [bx+si],al
00002F81  0000              add [bx+si],al
00002F83  0000              add [bx+si],al
00002F85  0000              add [bx+si],al
00002F87  0000              add [bx+si],al
00002F89  0000              add [bx+si],al
00002F8B  0000              add [bx+si],al
00002F8D  0000              add [bx+si],al
00002F8F  0000              add [bx+si],al
00002F91  0000              add [bx+si],al
00002F93  0000              add [bx+si],al
00002F95  0000              add [bx+si],al
00002F97  0000              add [bx+si],al
00002F99  0000              add [bx+si],al
00002F9B  0000              add [bx+si],al
00002F9D  0000              add [bx+si],al
00002F9F  0000              add [bx+si],al
00002FA1  0000              add [bx+si],al
00002FA3  0000              add [bx+si],al
00002FA5  0000              add [bx+si],al
00002FA7  0000              add [bx+si],al
00002FA9  0000              add [bx+si],al
00002FAB  0000              add [bx+si],al
00002FAD  0000              add [bx+si],al
00002FAF  0000              add [bx+si],al
00002FB1  0000              add [bx+si],al
00002FB3  0000              add [bx+si],al
00002FB5  0000              add [bx+si],al
00002FB7  0000              add [bx+si],al
00002FB9  0000              add [bx+si],al
00002FBB  0000              add [bx+si],al
00002FBD  0000              add [bx+si],al
00002FBF  0000              add [bx+si],al
00002FC1  0000              add [bx+si],al
00002FC3  0000              add [bx+si],al
00002FC5  0000              add [bx+si],al
00002FC7  0000              add [bx+si],al
00002FC9  0000              add [bx+si],al
00002FCB  0000              add [bx+si],al
00002FCD  0000              add [bx+si],al
00002FCF  0000              add [bx+si],al
00002FD1  0000              add [bx+si],al
00002FD3  0000              add [bx+si],al
00002FD5  0000              add [bx+si],al
00002FD7  0000              add [bx+si],al
00002FD9  0000              add [bx+si],al
00002FDB  0000              add [bx+si],al
00002FDD  0000              add [bx+si],al
00002FDF  0000              add [bx+si],al
00002FE1  0000              add [bx+si],al
00002FE3  0000              add [bx+si],al
00002FE5  0000              add [bx+si],al
00002FE7  0000              add [bx+si],al
00002FE9  0000              add [bx+si],al
00002FEB  0000              add [bx+si],al
00002FED  0000              add [bx+si],al
00002FEF  0000              add [bx+si],al
00002FF1  0000              add [bx+si],al
00002FF3  0000              add [bx+si],al
00002FF5  0000              add [bx+si],al
00002FF7  0000              add [bx+si],al
00002FF9  0000              add [bx+si],al
00002FFB  0000              add [bx+si],al
00002FFD  0000              add [bx+si],al
00002FFF  0000              add [bx+si],al
00003001  0000              add [bx+si],al
00003003  0000              add [bx+si],al
00003005  0000              add [bx+si],al
00003007  0000              add [bx+si],al
00003009  0000              add [bx+si],al
0000300B  0000              add [bx+si],al
0000300D  0000              add [bx+si],al
0000300F  0000              add [bx+si],al
00003011  0000              add [bx+si],al
00003013  0000              add [bx+si],al
00003015  0000              add [bx+si],al
00003017  0000              add [bx+si],al
00003019  0000              add [bx+si],al
0000301B  0000              add [bx+si],al
0000301D  0000              add [bx+si],al
0000301F  0000              add [bx+si],al
00003021  0000              add [bx+si],al
00003023  0000              add [bx+si],al
00003025  0000              add [bx+si],al
00003027  0000              add [bx+si],al
00003029  0000              add [bx+si],al
0000302B  0000              add [bx+si],al
0000302D  0000              add [bx+si],al
0000302F  0000              add [bx+si],al
00003031  0000              add [bx+si],al
00003033  0000              add [bx+si],al
00003035  0000              add [bx+si],al
00003037  0000              add [bx+si],al
00003039  0000              add [bx+si],al
0000303B  0000              add [bx+si],al
0000303D  0000              add [bx+si],al
0000303F  0000              add [bx+si],al
00003041  0000              add [bx+si],al
00003043  0000              add [bx+si],al
00003045  0000              add [bx+si],al
00003047  0000              add [bx+si],al
00003049  0000              add [bx+si],al
0000304B  0000              add [bx+si],al
0000304D  0000              add [bx+si],al
0000304F  0000              add [bx+si],al
00003051  0000              add [bx+si],al
00003053  0000              add [bx+si],al
00003055  0000              add [bx+si],al
00003057  0000              add [bx+si],al
00003059  0000              add [bx+si],al
0000305B  0000              add [bx+si],al
0000305D  0000              add [bx+si],al
0000305F  0000              add [bx+si],al
00003061  0000              add [bx+si],al
00003063  0000              add [bx+si],al
00003065  0000              add [bx+si],al
00003067  0000              add [bx+si],al
00003069  0000              add [bx+si],al
0000306B  0000              add [bx+si],al
0000306D  0000              add [bx+si],al
0000306F  0000              add [bx+si],al
00003071  0000              add [bx+si],al
00003073  0000              add [bx+si],al
00003075  0000              add [bx+si],al
00003077  0000              add [bx+si],al
00003079  0000              add [bx+si],al
0000307B  0000              add [bx+si],al
0000307D  0000              add [bx+si],al
0000307F  0000              add [bx+si],al
00003081  0000              add [bx+si],al
00003083  0000              add [bx+si],al
00003085  0000              add [bx+si],al
00003087  0000              add [bx+si],al
00003089  0000              add [bx+si],al
0000308B  0000              add [bx+si],al
0000308D  0000              add [bx+si],al
0000308F  0000              add [bx+si],al
00003091  0000              add [bx+si],al
00003093  0000              add [bx+si],al
00003095  0000              add [bx+si],al
00003097  0000              add [bx+si],al
00003099  0000              add [bx+si],al
0000309B  0000              add [bx+si],al
0000309D  0000              add [bx+si],al
0000309F  0000              add [bx+si],al
000030A1  0000              add [bx+si],al
000030A3  0000              add [bx+si],al
000030A5  0000              add [bx+si],al
000030A7  0000              add [bx+si],al
000030A9  0000              add [bx+si],al
000030AB  0000              add [bx+si],al
000030AD  0000              add [bx+si],al
000030AF  0000              add [bx+si],al
000030B1  0000              add [bx+si],al
000030B3  0000              add [bx+si],al
000030B5  0000              add [bx+si],al
000030B7  0000              add [bx+si],al
000030B9  0000              add [bx+si],al
000030BB  0000              add [bx+si],al
000030BD  0000              add [bx+si],al
000030BF  0000              add [bx+si],al
000030C1  0000              add [bx+si],al
000030C3  0000              add [bx+si],al
000030C5  0000              add [bx+si],al
000030C7  0000              add [bx+si],al
000030C9  0000              add [bx+si],al
000030CB  0000              add [bx+si],al
000030CD  0000              add [bx+si],al
000030CF  0000              add [bx+si],al
000030D1  0000              add [bx+si],al
000030D3  0000              add [bx+si],al
000030D5  0000              add [bx+si],al
000030D7  0000              add [bx+si],al
000030D9  0000              add [bx+si],al
000030DB  0000              add [bx+si],al
000030DD  0000              add [bx+si],al
000030DF  0000              add [bx+si],al
000030E1  0000              add [bx+si],al
000030E3  0000              add [bx+si],al
000030E5  0000              add [bx+si],al
000030E7  0000              add [bx+si],al
000030E9  0000              add [bx+si],al
000030EB  0000              add [bx+si],al
000030ED  0000              add [bx+si],al
000030EF  0000              add [bx+si],al
000030F1  0000              add [bx+si],al
000030F3  0000              add [bx+si],al
000030F5  0000              add [bx+si],al
000030F7  0000              add [bx+si],al
000030F9  0000              add [bx+si],al
000030FB  0000              add [bx+si],al
000030FD  0000              add [bx+si],al
000030FF  0000              add [bx+si],al
00003101  0000              add [bx+si],al
00003103  0000              add [bx+si],al
00003105  0000              add [bx+si],al
00003107  0000              add [bx+si],al
00003109  0000              add [bx+si],al
0000310B  0000              add [bx+si],al
0000310D  0000              add [bx+si],al
0000310F  0000              add [bx+si],al
00003111  0000              add [bx+si],al
00003113  0000              add [bx+si],al
00003115  0000              add [bx+si],al
00003117  0000              add [bx+si],al
00003119  0000              add [bx+si],al
0000311B  0000              add [bx+si],al
0000311D  0000              add [bx+si],al
0000311F  0000              add [bx+si],al
00003121  0000              add [bx+si],al
00003123  0000              add [bx+si],al
00003125  0000              add [bx+si],al
00003127  0000              add [bx+si],al
00003129  0000              add [bx+si],al
0000312B  0000              add [bx+si],al
0000312D  0000              add [bx+si],al
0000312F  0000              add [bx+si],al
00003131  0000              add [bx+si],al
00003133  0000              add [bx+si],al
00003135  0000              add [bx+si],al
00003137  0000              add [bx+si],al
00003139  0000              add [bx+si],al
0000313B  0000              add [bx+si],al
0000313D  0000              add [bx+si],al
0000313F  0000              add [bx+si],al
00003141  0000              add [bx+si],al
00003143  0000              add [bx+si],al
00003145  0000              add [bx+si],al
00003147  0000              add [bx+si],al
00003149  0000              add [bx+si],al
0000314B  0000              add [bx+si],al
0000314D  0000              add [bx+si],al
0000314F  0000              add [bx+si],al
00003151  0000              add [bx+si],al
00003153  0000              add [bx+si],al
00003155  0000              add [bx+si],al
00003157  0000              add [bx+si],al
00003159  0000              add [bx+si],al
0000315B  0000              add [bx+si],al
0000315D  0000              add [bx+si],al
0000315F  0000              add [bx+si],al
00003161  0000              add [bx+si],al
00003163  0000              add [bx+si],al
00003165  0000              add [bx+si],al
00003167  0000              add [bx+si],al
00003169  0000              add [bx+si],al
0000316B  0000              add [bx+si],al
0000316D  0000              add [bx+si],al
0000316F  0000              add [bx+si],al
00003171  0000              add [bx+si],al
00003173  0000              add [bx+si],al
00003175  0000              add [bx+si],al
00003177  0000              add [bx+si],al
00003179  0000              add [bx+si],al
0000317B  0000              add [bx+si],al
0000317D  0000              add [bx+si],al
0000317F  0000              add [bx+si],al
00003181  0000              add [bx+si],al
00003183  0000              add [bx+si],al
00003185  0000              add [bx+si],al
00003187  0000              add [bx+si],al
00003189  0000              add [bx+si],al
0000318B  0000              add [bx+si],al
0000318D  0000              add [bx+si],al
0000318F  0000              add [bx+si],al
00003191  0000              add [bx+si],al
00003193  0000              add [bx+si],al
00003195  0000              add [bx+si],al
00003197  0000              add [bx+si],al
00003199  0000              add [bx+si],al
0000319B  0000              add [bx+si],al
0000319D  0000              add [bx+si],al
0000319F  0000              add [bx+si],al
000031A1  0000              add [bx+si],al
000031A3  0000              add [bx+si],al
000031A5  0000              add [bx+si],al
000031A7  0000              add [bx+si],al
000031A9  0000              add [bx+si],al
000031AB  0000              add [bx+si],al
000031AD  0000              add [bx+si],al
000031AF  0000              add [bx+si],al
000031B1  0000              add [bx+si],al
000031B3  0000              add [bx+si],al
000031B5  0000              add [bx+si],al
000031B7  0000              add [bx+si],al
000031B9  0000              add [bx+si],al
000031BB  0000              add [bx+si],al
000031BD  0000              add [bx+si],al
000031BF  0000              add [bx+si],al
000031C1  0000              add [bx+si],al
000031C3  0000              add [bx+si],al
000031C5  0000              add [bx+si],al
000031C7  0000              add [bx+si],al
000031C9  0000              add [bx+si],al
000031CB  0000              add [bx+si],al
000031CD  0000              add [bx+si],al
000031CF  0000              add [bx+si],al
000031D1  0000              add [bx+si],al
000031D3  0000              add [bx+si],al
000031D5  0000              add [bx+si],al
000031D7  0000              add [bx+si],al
000031D9  0000              add [bx+si],al
000031DB  0000              add [bx+si],al
000031DD  0000              add [bx+si],al
000031DF  0000              add [bx+si],al
000031E1  0000              add [bx+si],al
000031E3  0000              add [bx+si],al
000031E5  0000              add [bx+si],al
000031E7  0000              add [bx+si],al
000031E9  0000              add [bx+si],al
000031EB  0000              add [bx+si],al
000031ED  0000              add [bx+si],al
000031EF  0000              add [bx+si],al
000031F1  0000              add [bx+si],al
000031F3  0000              add [bx+si],al
000031F5  0000              add [bx+si],al
000031F7  0000              add [bx+si],al
000031F9  0000              add [bx+si],al
000031FB  0000              add [bx+si],al
000031FD  0000              add [bx+si],al
000031FF  00B71D00          add [bx+0x1d],dh
00003203  00C3              add bl,al
00003205  1D0000            sbb ax,0x0
00003208  B01D              mov al,0x1d
0000320A  0000              add [bx+si],al
0000320C  BC1D00            mov sp,0x1d
0000320F  004E6F            add [bp+0x6f],cl
00003212  6E                outsb
00003213  6553              gs push bx
00003215  6F                outsw
00003216  6D                insw
00003217  6566696C656C696E  imul ebp,[gs:si+0x65],dword 0x656e696c
         -65
00003220  2020              and [bx+si],ah
00003222  2020              and [bx+si],ah
00003224  7472              jz 0x3298
00003226  7565              jnz 0x328d
00003228  203C              and [si],bh
0000322A  3D204C            cmp ax,0x4c20
0000322D  6F                outsw
0000322E  636174            arpl [bx+di+0x74],sp
00003231  696F6E6C6F        imul bp,[bx+0x6e],word 0x6f6c
00003236  636174            arpl [bx+di+0x74],sp
00003239  696F6E2028        imul bp,[bx+0x6e],word 0x2820
0000323E  627974            bound di,[bx+di+0x74]
00003241  657320            gs jnc 0x3264
00003244  636F6C            arpl [bx+0x6c],bp
00003247  50                push ax
00003248  61                popa
00003249  6E                outsb
0000324A  6963496E66        imul sp,[bp+di+0x49],word 0x666e
0000324F  6F                outsw
00003250  7061              jo 0x32b3
00003252  796C              jns 0x32c0
00003254  6F                outsw
00003255  61                popa
00003256  646D              fs insw
00003258  657373            gs jnc 0x32ce
0000325B  61                popa
0000325C  676563616E        arpl [gs:ecx+0x6e],sp
00003261  5F                pop di
00003262  756E              jnz 0x32d2
00003264  7769              ja 0x32cf
00003266  6E                outsb
00003267  64666F            fs outsd
0000326A  7263              jc 0x32cf
0000326C  655F              gs pop di
0000326E  6E                outsb
0000326F  6F                outsw
00003270  5F                pop di
00003271  626163            bound sp,[bx+di+0x63]
00003274  6B747261          imul si,[si+0x72],byte +0x61
00003278  636500            arpl [di+0x0],sp
0000327B  004E16            add [bp+0x16],cl
0000327E  0000              add [bx+si],al
00003280  0C00              or al,0x0
00003282  0000              add [bx+si],al
00003284  0400              add al,0x0
00003286  0000              add [bx+si],al
00003288  1118              adc [bx+si],bx
0000328A  0000              add [bx+si],al
0000328C  8515              test [di],dx
0000328E  0000              add [bx+si],al
00003290  3A160000          cmp dl,[0x0]
00003294  7372              jnc 0x3308
00003296  632F              arpl [bx],bp
00003298  6D                insw
00003299  61                popa
0000329A  696E2E7273        imul bp,[bp+0x2e],word 0x7372
0000329F  54                push sp
000032A0  686973            push word 0x7369
000032A3  206973            and [bx+di+0x73],ch
000032A6  206177            and [bx+di+0x77],ah
000032A9  65736F            gs jnc 0x331b
000032AC  6D                insw
000032AD  652130            and [gs:bx+si],si
000032B0  3132              xor [bp+si],si
000032B2  3334              xor si,[si]
000032B4  353637            xor ax,0x3736
000032B7  3839              cmp [bx+di],bh
000032B9  61                popa
000032BA  626364            bound sp,[bp+di+0x64]
000032BD  65667261          gs o32 jc 0x3322
000032C1  6E                outsb
000032C2  676520656E        and [gs:ebp+0x6e],ah
000032C7  6420696E          and [fs:bx+di+0x6e],ch
000032CB  64657820          gs js 0x32ef
000032CF  2920              sub [bx+si],sp
000032D1  7768              ja 0x333b
000032D3  656E              gs outsb
000032D5  20736C            and [bp+di+0x6c],dh
000032D8  6963696E67        imul sp,[bp+di+0x69],word 0x676e
000032DD  206045            and [bx+si+0x45],ah
000032E0  7272              jc 0x3354
000032E2  6F                outsw
000032E3  72DF              jc 0x32c4
000032E5  40                inc ax
000032E6  0000              add [bx+si],al
000032E8  050000            add ax,0x0
000032EB  00944000          add [si+0x40],dl
000032EF  000B              add [bp+di],cl
000032F1  0000              add [bx+si],al
000032F3  0024              add [si],ah
000032F5  0000              add [bx+si],al
000032F7  0005              add [di],al
000032F9  0000              add [bx+si],al
000032FB  006865            add [bx+si+0x65],ch
000032FE  6C                insb
000032FF  6C                insb
00003300  6F                outsw
00003301  0A00              or al,[bx+si]
00003303  000C              add [si],cl
00003305  41                inc cx
00003306  0000              add [bx+si],al
00003308  0000              add [bx+si],al
0000330A  0000              add [bx+si],al
0000330C  292E2E00          sub [0x2e],bp
00003310  0D4100            or ax,0x41
00003313  0002              add [bp+si],al
00003315  0000              add [bx+si],al
00003317  00416E            add [bx+di+0x6e],al
0000331A  7963              jns 0x337f
0000331C  61                popa
0000331D  6C                insb
0000331E  6C                insb
0000331F  656420604F        and [fs:bx+si+0x4f],ah
00003324  7074              jo 0x339a
00003326  696F6E3A3A        imul bp,[bx+0x6e],word 0x3a3a
0000332B  756E              jnz 0x339b
0000332D  7772              ja 0x33a1
0000332F  61                popa
00003330  7028              jo 0x335a
00003332  296020            sub [bx+si+0x20],sp
00003335  6F                outsw
00003336  6E                outsb
00003337  206120            and [bx+di+0x20],ah
0000333A  60                pusha
0000333B  4E                dec si
0000333C  6F                outsw
0000333D  6E                outsb
0000333E  6560              gs pusha
00003340  207661            and [bp+0x61],dh
00003343  6C                insb
00003344  7565              jnz 0x33ab
00003346  0000              add [bx+si],al
00003348  5D                pop bp
00003349  1900              sbb [bx+si],ax
0000334B  0000              add [bx+si],al
0000334D  0000              add [bx+si],al
0000334F  0001              add [bx+di],al
00003351  0000              add [bx+si],al
00003353  005E19            add [bp+0x19],bl
00003356  0000              add [bx+si],al
00003358  696E646578        imul bp,[bp+0x64],word 0x7865
0000335D  206F75            and [bx+0x75],ch
00003360  7420              jz 0x3382
00003362  6F                outsw
00003363  6620626F          o32 and [bp+si+0x6f],ah
00003367  756E              jnz 0x33d7
00003369  64733A            fs jnc 0x33a6
0000336C  207468            and [si+0x68],dh
0000336F  65206C65          and [gs:si+0x65],ch
00003373  6E                outsb
00003374  206973            and [bx+di+0x73],ch
00003377  2020              and [bx+si],ah
00003379  627574            bound si,[di+0x74]
0000337C  207468            and [si+0x68],dh
0000337F  6520696E          and [gs:bx+di+0x6e],ch
00003383  64657820          gs js 0x33a7
00003387  6973200000        imul si,[bp+di+0x20],word 0x0
0000338C  58                pop ax
0000338D  41                inc cx
0000338E  0000              add [bx+si],al
00003390  2000              and [bx+si],al
00003392  0000              add [bx+si],al
00003394  7841              js 0x33d7
00003396  0000              add [bx+si],al
00003398  1200              adc al,[bx+si]
0000339A  0000              add [bx+si],al
0000339C  3A20              cmp ah,[bx+si]
0000339E  0000              add [bx+si],al
000033A0  4E                dec si
000033A1  16                push ss
000033A2  0000              add [bx+si],al
000033A4  0C00              or al,0x0
000033A6  0000              add [bx+si],al
000033A8  0400              add al,0x0
000033AA  0000              add [bx+si],al
000033AC  E623              out 0x23,al
000033AE  0000              add [bx+si],al
000033B0  56                push si
000033B1  2A00              sub al,[bx+si]
000033B3  00962A00          add [bp+0x2a],dl
000033B7  0020              add [bx+si],ah
000033B9  7B20              jpo 0x33db
000033BB  2C20              sub al,0x20
000033BD  207B0A            and [bp+di+0xa],bh
000033C0  2C0A              sub al,0xa
000033C2  207B20            and [bp+di+0x20],bh
000033C5  2E2E207D7D        and [cs:di+0x7d],bh
000033CA  207D28            and [di+0x28],bh
000033CD  280A              sub [bp+si],cl
000033CF  2F                das
000033D0  686F6D            push word 0x6d6f
000033D3  652F              gs das
000033D5  646965676F2F      imul sp,[fs:di+0x67],word 0x2f6f
000033DB  2E7275            cs jc 0x3453
000033DE  7374              jnc 0x3454
000033E0  7570              jnz 0x3452
000033E2  2F                das
000033E3  746F              jz 0x3454
000033E5  6F                outsw
000033E6  6C                insb
000033E7  636861            arpl [bx+si+0x61],bp
000033EA  696E732F6E        imul bp,[bp+0x73],word 0x6e2f
000033EF  696768746C        imul sp,[bx+0x68],word 0x6c74
000033F4  792D              jns 0x3423
000033F6  7838              js 0x3430
000033F8  365F              ss pop di
000033FA  36342D            ss xor al,0x2d
000033FD  756E              jnz 0x346d
000033FF  6B6E6F77          imul bp,[bp+0x6f],byte +0x77
00003403  6E                outsb
00003404  2D6C69            sub ax,0x696c
00003407  6E                outsb
00003408  7578              jnz 0x3482
0000340A  2D676E            sub ax,0x6e67
0000340D  752F              jnz 0x343e
0000340F  6C                insb
00003410  69622F7275        imul sp,[bp+si+0x2f],word 0x7572
00003415  7374              jnc 0x348b
00003417  6C                insb
00003418  69622F7372        imul sp,[bp+si+0x2f],word 0x7273
0000341D  632F              arpl [bx],bp
0000341F  7275              jc 0x3496
00003421  7374              jnc 0x3497
00003423  2F                das
00003424  6C                insb
00003425  6962726172        imul sp,[bp+si+0x72],word 0x7261
0000342A  792F              jns 0x345b
0000342C  636F72            arpl [bx+0x72],bp
0000342F  652F              gs das
00003431  7372              jnc 0x34a5
00003433  632F              arpl [bx],bp
00003435  666D              insd
00003437  742F              jz 0x3468
00003439  6E                outsb
0000343A  756D              jnz 0x34a9
0000343C  2E7273            cs jc 0x34b2
0000343F  00CF              add bh,cl
00003441  41                inc cx
00003442  0000              add [bx+si],al
00003444  7000              jo 0x3446
00003446  0000              add [bx+si],al
00003448  69000000          imul ax,[bx+si],word 0x0
0000344C  17                pop ss
0000344D  0000              add [bx+si],al
0000344F  0030              add [bx+si],dh
00003451  7830              js 0x3483
00003453  3030              xor [bx+si],dh
00003455  3130              xor [bx+si],si
00003457  3230              xor dh,[bx+si]
00003459  3330              xor si,[bx+si]
0000345B  3430              xor al,0x30
0000345D  353036            xor ax,0x3630
00003460  3037              xor [bx],dh
00003462  3038              xor [bx+si],bh
00003464  3039              xor [bx+di],bh
00003466  3130              xor [bx+si],si
00003468  3131              xor [bx+di],si
0000346A  3132              xor [bp+si],si
0000346C  3133              xor [bp+di],si
0000346E  3134              xor [si],si
00003470  3135              xor [di],si
00003472  31363137          xor [0x3731],si
00003476  3138              xor [bx+si],di
00003478  3139              xor [bx+di],di
0000347A  3230              xor dh,[bx+si]
0000347C  3231              xor dh,[bx+di]
0000347E  3232              xor dh,[bp+si]
00003480  3233              xor dh,[bp+di]
00003482  3234              xor dh,[si]
00003484  3235              xor dh,[di]
00003486  32363237          xor dh,[0x3732]
0000348A  3238              xor bh,[bx+si]
0000348C  3239              xor bh,[bx+di]
0000348E  3330              xor si,[bx+si]
00003490  3331              xor si,[bx+di]
00003492  3332              xor si,[bp+si]
00003494  3333              xor si,[bp+di]
00003496  3334              xor si,[si]
00003498  3335              xor si,[di]
0000349A  33363337          xor si,[0x3733]
0000349E  3338              xor di,[bx+si]
000034A0  3339              xor di,[bx+di]
000034A2  3430              xor al,0x30
000034A4  3431              xor al,0x31
000034A6  3432              xor al,0x32
000034A8  3433              xor al,0x33
000034AA  3434              xor al,0x34
000034AC  3435              xor al,0x35
000034AE  3436              xor al,0x36
000034B0  3437              xor al,0x37
000034B2  3438              xor al,0x38
000034B4  3439              xor al,0x39
000034B6  353035            xor ax,0x3530
000034B9  3135              xor [di],si
000034BB  3235              xor dh,[di]
000034BD  3335              xor si,[di]
000034BF  3435              xor al,0x35
000034C1  353536            xor ax,0x3635
000034C4  353735            xor ax,0x3537
000034C7  3835              cmp [di],dh
000034C9  39363036          cmp [0x3630],si
000034CD  31363236          xor [0x3632],si
000034D1  33363436          xor si,[0x3634]
000034D5  353636            xor ax,0x3636
000034D8  3637              ss aaa
000034DA  3638363937        cmp [ss:0x3739],dh
000034DF  3037              xor [bx],dh
000034E1  3137              xor [bx],si
000034E3  3237              xor dh,[bx]
000034E5  3337              xor si,[bx]
000034E7  3437              xor al,0x37
000034E9  353736            xor ax,0x3637
000034EC  37                aaa
000034ED  37                aaa
000034EE  37                aaa
000034EF  3837              cmp [bx],dh
000034F1  3938              cmp [bx+si],di
000034F3  3038              xor [bx+si],bh
000034F5  3138              xor [bx+si],di
000034F7  3238              xor bh,[bx+si]
000034F9  3338              xor di,[bx+si]
000034FB  3438              xor al,0x38
000034FD  353836            xor ax,0x3638
00003500  3837              cmp [bx],dh
00003502  3838              cmp [bx+si],bh
00003504  3839              cmp [bx+di],bh
00003506  3930              cmp [bx+si],si
00003508  3931              cmp [bx+di],si
0000350A  3932              cmp [bp+si],si
0000350C  3933              cmp [bp+di],si
0000350E  3934              cmp [si],si
00003510  3935              cmp [di],si
00003512  39363937          cmp [0x3739],si
00003516  3938              cmp [bx+si],di
00003518  3939              cmp [bx+di],di
0000351A  2F                das
0000351B  686F6D            push word 0x6d6f
0000351E  652F              gs das
00003520  646965676F2F      imul sp,[fs:di+0x67],word 0x2f6f
00003526  2E7275            cs jc 0x359e
00003529  7374              jnc 0x359f
0000352B  7570              jnz 0x359d
0000352D  2F                das
0000352E  746F              jz 0x359f
00003530  6F                outsw
00003531  6C                insb
00003532  636861            arpl [bx+si+0x61],bp
00003535  696E732F6E        imul bp,[bp+0x73],word 0x6e2f
0000353A  696768746C        imul sp,[bx+0x68],word 0x6c74
0000353F  792D              jns 0x356e
00003541  7838              js 0x357b
00003543  365F              ss pop di
00003545  36342D            ss xor al,0x2d
00003548  756E              jnz 0x35b8
0000354A  6B6E6F77          imul bp,[bp+0x6f],byte +0x77
0000354E  6E                outsb
0000354F  2D6C69            sub ax,0x696c
00003552  6E                outsb
00003553  7578              jnz 0x35cd
00003555  2D676E            sub ax,0x6e67
00003558  752F              jnz 0x3589
0000355A  6C                insb
0000355B  69622F7275        imul sp,[bp+si+0x2f],word 0x7572
00003560  7374              jnc 0x35d6
00003562  6C                insb
00003563  69622F7372        imul sp,[bp+si+0x2f],word 0x7273
00003568  632F              arpl [bx],bp
0000356A  7275              jc 0x35e1
0000356C  7374              jnc 0x35e2
0000356E  2F                das
0000356F  6C                insb
00003570  6962726172        imul sp,[bp+si+0x72],word 0x7261
00003575  792F              jns 0x35a6
00003577  636F72            arpl [bx+0x72],bp
0000357A  652F              gs das
0000357C  7372              jnc 0x35f0
0000357E  632F              arpl [bx],bp
00003580  666D              insd
00003582  742F              jz 0x35b3
00003584  6D                insw
00003585  6F                outsw
00003586  642E7273          cs jc 0x35fd
0000358A  6661              popad
0000358C  6C                insb
0000358D  7365              jnc 0x35f4
0000358F  001A              add [bp+si],bl
00003591  43                inc bx
00003592  0000              add [bx+si],al
00003594  7000              jo 0x3596
00003596  0000              add [bx+si],al
00003598  350900            xor ax,0x9
0000359B  001A              add [bp+si],bl
0000359D  0000              add [bx+si],al
0000359F  001A              add [bp+si],bl
000035A1  43                inc bx
000035A2  0000              add [bx+si],al
000035A4  7000              jo 0x35a6
000035A6  0000              add [bx+si],al
000035A8  2E0900            or [cs:bx+si],ax
000035AB  0022              add [bp+si],ah
000035AD  0000              add [bx+si],al
000035AF  007261            add [bp+si+0x61],dh
000035B2  6E                outsb
000035B3  6765207374        and [gs:ebx+0x74],dh
000035B8  61                popa
000035B9  7274              jc 0x362f
000035BB  20696E            and [bx+di+0x6e],ch
000035BE  64657820          gs js 0x35e2
000035C2  206F75            and [bx+0x75],ch
000035C5  7420              jz 0x35e7
000035C7  6F                outsw
000035C8  66207261          o32 and [bp+si+0x61],dh
000035CC  6E                outsb
000035CD  676520666F        and [gs:esi+0x6f],ah
000035D2  7220              jc 0x35f4
000035D4  736C              jnc 0x3642
000035D6  696365206F        imul sp,[bp+di+0x65],word 0x6f20
000035DB  66206C65          o32 and [si+0x65],ch
000035DF  6E                outsb
000035E0  677468            jz 0x364b
000035E3  20B04300          and [bx+si+0x43],dh
000035E7  0012              add [bp+si],dl
000035E9  0000              add [bx+si],al
000035EB  00C2              add dl,al
000035ED  43                inc bx
000035EE  0000              add [bx+si],al
000035F0  2200              and al,[bx+si]
000035F2  0000              add [bx+si],al
000035F4  BF4000            mov di,0x40
000035F7  0010              add [bx+si],dl
000035F9  0000              add [bx+si],al
000035FB  00C2              add dl,al
000035FD  43                inc bx
000035FE  0000              add [bx+si],al
00003600  2200              and al,[bx+si]
00003602  0000              add [bx+si],al
00003604  736C              jnc 0x3672
00003606  6963652069        imul sp,[bp+di+0x65],word 0x6920
0000360B  6E                outsb
0000360C  64657820          gs js 0x3630
00003610  7374              jnc 0x3686
00003612  61                popa
00003613  7274              jc 0x3689
00003615  7320              jnc 0x3637
00003617  61                popa
00003618  7420              jz 0x363a
0000361A  206275            and [bp+si+0x75],ah
0000361D  7420              jz 0x363f
0000361F  656E              gs outsb
00003621  647320            fs jnc 0x3644
00003624  61                popa
00003625  7420              jz 0x3647
00003627  0004              add [si],al
00003629  44                inc sp
0000362A  0000              add [bx+si],al
0000362C  16                push ss
0000362D  0000              add [bx+si],al
0000362F  001A              add [bp+si],bl
00003631  44                inc sp
00003632  0000              add [bx+si],al
00003634  0D0000            or ax,0x0
00003637  002F              add [bx],ch
00003639  686F6D            push word 0x6d6f
0000363C  652F              gs das
0000363E  646965676F2F      imul sp,[fs:di+0x67],word 0x2f6f
00003644  2E7275            cs jc 0x36bc
00003647  7374              jnc 0x36bd
00003649  7570              jnz 0x36bb
0000364B  2F                das
0000364C  746F              jz 0x36bd
0000364E  6F                outsw
0000364F  6C                insb
00003650  636861            arpl [bx+si+0x61],bp
00003653  696E732F6E        imul bp,[bp+0x73],word 0x6e2f
00003658  696768746C        imul sp,[bx+0x68],word 0x6c74
0000365D  792D              jns 0x368c
0000365F  7838              js 0x3699
00003661  365F              ss pop di
00003663  36342D            ss xor al,0x2d
00003666  756E              jnz 0x36d6
00003668  6B6E6F77          imul bp,[bp+0x6f],byte +0x77
0000366C  6E                outsb
0000366D  2D6C69            sub ax,0x696c
00003670  6E                outsb
00003671  7578              jnz 0x36eb
00003673  2D676E            sub ax,0x6e67
00003676  752F              jnz 0x36a7
00003678  6C                insb
00003679  69622F7275        imul sp,[bp+si+0x2f],word 0x7572
0000367E  7374              jnc 0x36f4
00003680  6C                insb
00003681  69622F7372        imul sp,[bp+si+0x2f],word 0x7273
00003686  632F              arpl [bx],bp
00003688  7275              jc 0x36ff
0000368A  7374              jnc 0x3700
0000368C  2F                das
0000368D  6C                insb
0000368E  6962726172        imul sp,[bp+si+0x72],word 0x7261
00003693  792F              jns 0x36c4
00003695  636F72            arpl [bx+0x72],bp
00003698  652F              gs das
0000369A  7372              jnc 0x370e
0000369C  632F              arpl [bx],bp
0000369E  736C              jnc 0x370c
000036A0  6963652F69        imul sp,[bp+di+0x65],word 0x692f
000036A5  7465              jz 0x370c
000036A7  722E              jc 0x36d7
000036A9  7273              jc 0x371e
000036AB  0038              add [bx+si],bh
000036AD  44                inc sp
000036AE  0000              add [bx+si],al
000036B0  7300              jnc 0x36b2
000036B2  0000              add [bx+si],al
000036B4  C405              les ax,[di]
000036B6  0000              add [bx+si],al
000036B8  250000            and ax,0x0
000036BB  006173            add [bx+di+0x73],ah
000036BE  7365              jnc 0x3725
000036C0  7274              jc 0x3736
000036C2  696F6E2066        imul bp,[bx+0x6e],word 0x6620
000036C7  61                popa
000036C8  696C65643A        imul bp,[si+0x65],word 0x3a64
000036CD  206D69            and [di+0x69],ch
000036D0  64203C            and [fs:si],bh
000036D3  3D2073            cmp ax,0x7320
000036D6  656C              gs insb
000036D8  662E6C            cs o32 insb
000036DB  656E              gs outsb
000036DD  2829              sub [bx+di],ch
000036DF  736F              jnc 0x3750
000036E1  7572              jnz 0x3755
000036E3  636520            arpl [di+0x20],sp
000036E6  736C              jnc 0x3754
000036E8  696365206C        imul sp,[bp+di+0x65],word 0x6c20
000036ED  656E              gs outsb
000036EF  677468            jz 0x375a
000036F2  2028              and [bx+si],ch
000036F4  2920              sub [bx+si],sp
000036F6  646F              fs outsw
000036F8  657320            gs jnc 0x371b
000036FB  6E                outsb
000036FC  6F                outsw
000036FD  7420              jz 0x371f
000036FF  6D                insw
00003700  61                popa
00003701  7463              jz 0x3766
00003703  682064            push word 0x6420
00003706  657374            gs jnc 0x377d
00003709  696E617469        imul bp,[bp+0x61],word 0x6974
0000370E  6F                outsw
0000370F  6E                outsb
00003710  20736C            and [bp+di+0x6c],dh
00003713  696365206C        imul sp,[bp+di+0x65],word 0x6c20
00003718  656E              gs outsb
0000371A  677468            jz 0x3785
0000371D  2028              and [bx+si],ch
0000371F  00DF              add bh,bl
00003721  44                inc sp
00003722  0000              add [bx+si],al
00003724  150000            adc ax,0x0
00003727  00F4              add ah,dh
00003729  44                inc sp
0000372A  0000              add [bx+si],al
0000372C  2B00              sub ax,[bx+si]
0000372E  0000              add [bx+si],al
00003730  0C41              or al,0x41
00003732  0000              add [bx+si],al
00003734  0100              add [bx+si],ax
00003736  0000              add [bx+si],al
00003738  2F                das
00003739  686F6D            push word 0x6d6f
0000373C  652F              gs das
0000373E  646965676F2F      imul sp,[fs:di+0x67],word 0x2f6f
00003744  2E7275            cs jc 0x37bc
00003747  7374              jnc 0x37bd
00003749  7570              jnz 0x37bb
0000374B  2F                das
0000374C  746F              jz 0x37bd
0000374E  6F                outsw
0000374F  6C                insb
00003750  636861            arpl [bx+si+0x61],bp
00003753  696E732F6E        imul bp,[bp+0x73],word 0x6e2f
00003758  696768746C        imul sp,[bx+0x68],word 0x6c74
0000375D  792D              jns 0x378c
0000375F  7838              js 0x3799
00003761  365F              ss pop di
00003763  36342D            ss xor al,0x2d
00003766  756E              jnz 0x37d6
00003768  6B6E6F77          imul bp,[bp+0x6f],byte +0x77
0000376C  6E                outsb
0000376D  2D6C69            sub ax,0x696c
00003770  6E                outsb
00003771  7578              jnz 0x37eb
00003773  2D676E            sub ax,0x6e67
00003776  752F              jnz 0x37a7
00003778  6C                insb
00003779  69622F7275        imul sp,[bp+si+0x2f],word 0x7572
0000377E  7374              jnc 0x37f4
00003780  6C                insb
00003781  69622F7372        imul sp,[bp+si+0x2f],word 0x7273
00003786  632F              arpl [bx],bp
00003788  7275              jc 0x37ff
0000378A  7374              jnc 0x3800
0000378C  2F                das
0000378D  6C                insb
0000378E  6962726172        imul sp,[bp+si+0x72],word 0x7261
00003793  792F              jns 0x37c4
00003795  636F72            arpl [bx+0x72],bp
00003798  652F              gs das
0000379A  7372              jnc 0x380e
0000379C  632F              arpl [bx],bp
0000379E  7374              jnc 0x3814
000037A0  722F              jc 0x37d1
000037A2  636F75            arpl [bx+0x75],bp
000037A5  6E                outsb
000037A6  742E              jz 0x37d6
000037A8  7273              jc 0x381d
000037AA  0000              add [bx+si],al
000037AC  384500            cmp [di+0x0],al
000037AF  007200            add [bp+si+0x0],dh
000037B2  0000              add [bx+si],al
000037B4  4F                dec di
000037B5  0000              add [bx+si],al
000037B7  0032              add [bp+si],dh
000037B9  0000              add [bx+si],al
000037BB  002F              add [bx],ch
000037BD  686F6D            push word 0x6d6f
000037C0  652F              gs das
000037C2  646965676F2F      imul sp,[fs:di+0x67],word 0x2f6f
000037C8  2E7275            cs jc 0x3840
000037CB  7374              jnc 0x3841
000037CD  7570              jnz 0x383f
000037CF  2F                das
000037D0  746F              jz 0x3841
000037D2  6F                outsw
000037D3  6C                insb
000037D4  636861            arpl [bx+si+0x61],bp
000037D7  696E732F6E        imul bp,[bp+0x73],word 0x6e2f
000037DC  696768746C        imul sp,[bx+0x68],word 0x6c74
000037E1  792D              jns 0x3810
000037E3  7838              js 0x381d
000037E5  365F              ss pop di
000037E7  36342D            ss xor al,0x2d
000037EA  756E              jnz 0x385a
000037EC  6B6E6F77          imul bp,[bp+0x6f],byte +0x77
000037F0  6E                outsb
000037F1  2D6C69            sub ax,0x696c
000037F4  6E                outsb
000037F5  7578              jnz 0x386f
000037F7  2D676E            sub ax,0x6e67
000037FA  752F              jnz 0x382b
000037FC  6C                insb
000037FD  69622F7275        imul sp,[bp+si+0x2f],word 0x7572
00003802  7374              jnc 0x3878
00003804  6C                insb
00003805  69622F7372        imul sp,[bp+si+0x2f],word 0x7273
0000380A  632F              arpl [bx],bp
0000380C  7275              jc 0x3883
0000380E  7374              jnc 0x3884
00003810  2F                das
00003811  6C                insb
00003812  6962726172        imul sp,[bp+si+0x72],word 0x7261
00003817  792F              jns 0x3848
00003819  636F72            arpl [bx+0x72],bp
0000381C  652F              gs das
0000381E  7372              jnc 0x3892
00003820  632F              arpl [bx],bp
00003822  7374              jnc 0x3898
00003824  722F              jc 0x3855
00003826  7061              jo 0x3889
00003828  7474              jz 0x389e
0000382A  65726E            gs jc 0x389b
0000382D  2E7273            cs jc 0x38a3
00003830  BC4500            mov sp,0x45
00003833  007400            add [si+0x0],dh
00003836  0000              add [bx+si],al
00003838  B80100            mov ax,0x1
0000383B  0037              add [bx],dh
0000383D  0000              add [bx+si],al
0000383F  005B2E            add [bp+di+0x2e],bl
00003842  2E2E5D            cs pop bp
00003845  626567            bound sp,[di+0x67]
00003848  696E203C3D        imul bp,[bp+0x20],word 0x3d3c
0000384D  20656E            and [di+0x6e],ah
00003850  642028            and [fs:bx+si],ch
00003853  60                pusha
00003854  45                inc bp
00003855  46                inc si
00003856  0000              add [bx+si],al
00003858  0E                push cs
00003859  0000              add [bx+si],al
0000385B  0028              add [bx+si],ch
0000385D  40                inc ax
0000385E  0000              add [bx+si],al
00003860  0400              add al,0x0
00003862  0000              add [bx+si],al
00003864  CF                iret
00003865  40                inc ax
00003866  0000              add [bx+si],al
00003868  1000              adc [bx+si],al
0000386A  0000              add [bx+si],al
0000386C  53                push bx
0000386D  46                inc si
0000386E  0000              add [bx+si],al
00003870  0100              add [bx+si],ax
00003872  0000              add [bx+si],al
00003874  627974            bound di,[bx+di+0x74]
00003877  6520696E          and [gs:bx+di+0x6e],ch
0000387B  64657820          gs js 0x389f
0000387F  206973            and [bx+di+0x73],ch
00003882  206E6F            and [bp+0x6f],ch
00003885  7420              jz 0x38a7
00003887  61                popa
00003888  206368            and [bp+di+0x68],ah
0000388B  61                popa
0000388C  7220              jc 0x38ae
0000388E  626F75            bound bp,[bx+0x75]
00003891  6E                outsb
00003892  6461              fs popa
00003894  7279              jc 0x390f
00003896  3B20              cmp sp,[bx+si]
00003898  6974206973        imul si,[si+0x20],word 0x7369
0000389D  20696E            and [bx+di+0x6e],ch
000038A0  7369              jnc 0x390b
000038A2  64652029          and [gs:bx+di],ch
000038A6  206F66            and [bx+0x66],ch
000038A9  206000            and [bx+si+0x0],ah
000038AC  7446              jz 0x38f4
000038AE  0000              add [bx+si],al
000038B0  0B00              or ax,[bx+si]
000038B2  0000              add [bx+si],al
000038B4  7F46              jg 0x38fc
000038B6  0000              add [bx+si],al
000038B8  260000            add [es:bx+si],al
000038BB  003C              add [si],bh
000038BD  40                inc ax
000038BE  0000              add [bx+si],al
000038C0  0800              or [bx+si],al
000038C2  0000              add [bx+si],al
000038C4  A5                movsw
000038C5  46                inc si
000038C6  0000              add [bx+si],al
000038C8  06                push es
000038C9  0000              add [bx+si],al
000038CB  005346            add [bp+di+0x46],dl
000038CE  0000              add [bx+si],al
000038D0  0100              add [bx+si],ax
000038D2  0000              add [bx+si],al
000038D4  206973            and [bx+di+0x73],ch
000038D7  206F75            and [bx+0x75],ch
000038DA  7420              jz 0x38fc
000038DC  6F                outsw
000038DD  6620626F          o32 and [bp+si+0x6f],ah
000038E1  756E              jnz 0x3951
000038E3  647320            fs jnc 0x3906
000038E6  6F                outsw
000038E7  66206000          o32 and [bx+si+0x0],ah
000038EB  007446            add [si+0x46],dh
000038EE  0000              add [bx+si],al
000038F0  0B00              or ax,[bx+si]
000038F2  0000              add [bx+si],al
000038F4  D446              aam 0x46
000038F6  0000              add [bx+si],al
000038F8  16                push ss
000038F9  0000              add [bx+si],al
000038FB  005346            add [bp+di+0x46],dl
000038FE  0000              add [bx+si],al
00003900  0100              add [bx+si],ax
00003902  0000              add [bx+si],al
00003904  2F                das
00003905  686F6D            push word 0x6d6f
00003908  652F              gs das
0000390A  646965676F2F      imul sp,[fs:di+0x67],word 0x2f6f
00003910  2E7275            cs jc 0x3988
00003913  7374              jnc 0x3989
00003915  7570              jnz 0x3987
00003917  2F                das
00003918  746F              jz 0x3989
0000391A  6F                outsw
0000391B  6C                insb
0000391C  636861            arpl [bx+si+0x61],bp
0000391F  696E732F6E        imul bp,[bp+0x73],word 0x6e2f
00003924  696768746C        imul sp,[bx+0x68],word 0x6c74
00003929  792D              jns 0x3958
0000392B  7838              js 0x3965
0000392D  365F              ss pop di
0000392F  36342D            ss xor al,0x2d
00003932  756E              jnz 0x39a2
00003934  6B6E6F77          imul bp,[bp+0x6f],byte +0x77
00003938  6E                outsb
00003939  2D6C69            sub ax,0x696c
0000393C  6E                outsb
0000393D  7578              jnz 0x39b7
0000393F  2D676E            sub ax,0x6e67
00003942  752F              jnz 0x3973
00003944  6C                insb
00003945  69622F7275        imul sp,[bp+si+0x2f],word 0x7572
0000394A  7374              jnc 0x39c0
0000394C  6C                insb
0000394D  69622F7372        imul sp,[bp+si+0x2f],word 0x7273
00003952  632F              arpl [bx],bp
00003954  7275              jc 0x39cb
00003956  7374              jnc 0x39cc
00003958  2F                das
00003959  6C                insb
0000395A  6962726172        imul sp,[bp+si+0x72],word 0x7261
0000395F  792F              jns 0x3990
00003961  636F72            arpl [bx+0x72],bp
00003964  652F              gs das
00003966  7372              jnc 0x39da
00003968  632F              arpl [bx],bp
0000396A  7374              jnc 0x39e0
0000396C  722F              jc 0x399d
0000396E  6D                insw
0000396F  6F                outsw
00003970  642E7273          cs jc 0x39e7
00003974  0447              add al,0x47
00003976  0000              add [bx+si],al
00003978  7000              jo 0x397a
0000397A  0000              add [bx+si],al
0000397C  0901              or [bx+di],ax
0000397E  0000              add [bx+si],al
00003980  2C00              sub al,0x0
00003982  0000              add [bx+si],al
00003984  2F                das
00003985  686F6D            push word 0x6d6f
00003988  652F              gs das
0000398A  646965676F2F      imul sp,[fs:di+0x67],word 0x2f6f
00003990  2E7275            cs jc 0x3a08
00003993  7374              jnc 0x3a09
00003995  7570              jnz 0x3a07
00003997  2F                das
00003998  746F              jz 0x3a09
0000399A  6F                outsw
0000399B  6C                insb
0000399C  636861            arpl [bx+si+0x61],bp
0000399F  696E732F6E        imul bp,[bp+0x73],word 0x6e2f
000039A4  696768746C        imul sp,[bx+0x68],word 0x6c74
000039A9  792D              jns 0x39d8
000039AB  7838              js 0x39e5
000039AD  365F              ss pop di
000039AF  36342D            ss xor al,0x2d
000039B2  756E              jnz 0x3a22
000039B4  6B6E6F77          imul bp,[bp+0x6f],byte +0x77
000039B8  6E                outsb
000039B9  2D6C69            sub ax,0x696c
000039BC  6E                outsb
000039BD  7578              jnz 0x3a37
000039BF  2D676E            sub ax,0x6e67
000039C2  752F              jnz 0x39f3
000039C4  6C                insb
000039C5  69622F7275        imul sp,[bp+si+0x2f],word 0x7572
000039CA  7374              jnc 0x3a40
000039CC  6C                insb
000039CD  69622F7372        imul sp,[bp+si+0x2f],word 0x7273
000039D2  632F              arpl [bx],bp
000039D4  7275              jc 0x3a4b
000039D6  7374              jnc 0x3a4c
000039D8  2F                das
000039D9  6C                insb
000039DA  6962726172        imul sp,[bp+si+0x72],word 0x7261
000039DF  792F              jns 0x3a10
000039E1  636F72            arpl [bx+0x72],bp
000039E4  652F              gs das
000039E6  7372              jnc 0x3a5a
000039E8  632F              arpl [bx],bp
000039EA  756E              jnz 0x3a5a
000039EC  69636F6465        imul sp,[bp+di+0x6f],word 0x6564
000039F1  2F                das
000039F2  7072              jo 0x3a66
000039F4  696E746162        imul bp,[bp+0x74],word 0x6261
000039F9  6C                insb
000039FA  652E7273          cs jc 0x3a71
000039FE  0000              add [bx+si],al
00003A00  844700            test [bx+0x0],al
00003A03  007A00            add [bp+si+0x0],bh
00003A06  0000              add [bx+si],al
00003A08  1A00              sbb al,[bx+si]
00003A0A  0000              add [bx+si],al
00003A0C  360000            add [ss:bx+si],al
00003A0F  00844700          add [si+0x47],al
00003A13  007A00            add [bp+si+0x0],bh
00003A16  0000              add [bx+si],al
00003A18  0A00              or al,[bx+si]
00003A1A  0000              add [bx+si],al
00003A1C  2B00              sub ax,[bx+si]
00003A1E  0000              add [bx+si],al
00003A20  00060101          add [0x101],al
00003A24  0301              add ax,[bx+di]
00003A26  0402              add al,0x2
00003A28  050707            add ax,0x707
00003A2B  0208              add cl,[bx+si]
00003A2D  0809              or [bx+di],cl
00003A2F  020A              add cl,[bp+si]
00003A31  050B02            add ax,0x20b
00003A34  0E                push cs
00003A35  0410              add al,0x10
00003A37  0111              add [bx+di],dx
00003A39  0212              add dl,[bp+si]
00003A3B  051311            add ax,0x1113
00003A3E  1401              adc al,0x1
00003A40  150217            adc ax,0x1702
00003A43  0219              add bl,[bx+di]
00003A45  0D1C05            or ax,0x51c
00003A48  1D081F            sbb ax,0x1f08
00003A4B  0124              add [si],sp
00003A4D  016A04            add [bp+si+0x4],bp
00003A50  6B02AF            imul ax,[bp+si],byte -0x51
00003A53  03B102BC          add si,[bx+di-0x43fe]
00003A57  02CF              add cl,bh
00003A59  02D1              add dl,cl
00003A5B  02D4              add dl,ah
00003A5D  0CD5              or al,0xd5
00003A5F  09D6              or si,dx
00003A61  02D7              add dl,bh
00003A63  02DA              add bl,dl
00003A65  01E0              add ax,sp
00003A67  05E102            add ax,0x2e1
00003A6A  E704              out 0x4,ax
00003A6C  E802EE            call 0x2871
00003A6F  20F0              and al,dh
00003A71  04F8              add al,0xf8
00003A73  02FA              add bh,dl
00003A75  03FB              add di,bx
00003A77  010C              add [si],cx
00003A79  27                daa
00003A7A  3B3E4E4F          cmp di,[0x4f4e]
00003A7E  8F                db 0x8f
00003A7F  9E                sahf
00003A80  9E                sahf
00003A81  9F                lahf
00003A82  7B8B              jpo 0x3a0f
00003A84  93                xchg ax,bx
00003A85  96                xchg ax,si
00003A86  A2B2BA            mov [0xbab2],al
00003A89  86B10607          xchg dh,[bx+di+0x706]
00003A8D  09363D3E          or [0x3e3d],si
00003A91  56                push si
00003A92  F3D0D1            rep rcl cl,1
00003A95  0414              add al,0x14
00003A97  18363756          sbb [0x5637],dh
00003A9B  57                push di
00003A9C  7FAA              jg 0x3a48
00003A9E  AE                scasb
00003A9F  AF                scasw
00003AA0  BD35E0            mov bp,0xe035
00003AA3  1287898E          adc al,[bx-0x7177]
00003AA7  9E                sahf
00003AA8  040D              add al,0xd
00003AAA  0E                push cs
00003AAB  1112              adc [bp+si],dx
00003AAD  2931              sub [bx+di],si
00003AAF  343A              xor al,0x3a
00003AB1  45                inc bp
00003AB2  46                inc si
00003AB3  49                dec cx
00003AB4  4A                dec dx
00003AB5  4E                dec si
00003AB6  4F                dec di
00003AB7  64655C            gs pop sp
00003ABA  B6B7              mov dh,0xb7
00003ABC  1B1C              sbb bx,[si]
00003ABE  07                pop es
00003ABF  080A              or [bp+si],cl
00003AC1  0B14              or dx,[si]
00003AC3  17                pop ss
00003AC4  36393A            cmp [ss:bp+si],di
00003AC7  A8A9              test al,0xa9
00003AC9  D8D9              fcomp st1
00003ACB  0937              or [bx],si
00003ACD  90                nop
00003ACE  91                xchg ax,cx
00003ACF  A807              test al,0x7
00003AD1  0A3B              or bh,[bp+di]
00003AD3  3E66698F92116F5F  imul ecx,[ds:bx+0x1192],dword 0xeebf5f6f
         -BFEE
00003ADD  EF                out dx,ax
00003ADE  5A                pop dx
00003ADF  62                db 0x62
00003AE0  F4                hlt
00003AE1  FC                cld
00003AE2  FF5354            call [bp+di+0x54]
00003AE5  9A9B2E2F27        call 0x272f:0x2e9b
00003AEA  28559D            sub [di-0x63],dl
00003AED  A0A1A3            mov al,[0xa3a1]
00003AF0  A4                movsb
00003AF1  A7                cmpsw
00003AF2  A8AD              test al,0xad
00003AF4  BABCC4            mov dx,0xc4bc
00003AF7  06                push es
00003AF8  0B0C              or cx,[si]
00003AFA  151D3A            adc ax,0x3a1d
00003AFD  3F                aas
00003AFE  45                inc bp
00003AFF  51                push cx
00003B00  A6                cmpsb
00003B01  A7                cmpsw
00003B02  CC                int3
00003B03  CDA0              int 0xa0
00003B05  07                pop es
00003B06  191A              sbb [bp+si],bx
00003B08  2225              and ah,[di]
00003B0A  3E3F              ds aas
00003B0C  E7EC              out 0xec,ax
00003B0E  EF                out dx,ax
00003B0F  FFC5              inc bp
00003B11  C60420            mov byte [si],0x20
00003B14  2325              and sp,[di]
00003B16  262833            sub [es:bp+di],dh
00003B19  383A              cmp [bp+si],bh
00003B1B  48                dec ax
00003B1C  4A                dec dx
00003B1D  4C                dec sp
00003B1E  50                push ax
00003B1F  53                push bx
00003B20  55                push bp
00003B21  56                push si
00003B22  58                pop ax
00003B23  5A                pop dx
00003B24  5C                pop sp
00003B25  5E                pop si
00003B26  60                pusha
00003B27  636566            arpl [di+0x66],sp
00003B2A  6B73787D          imul si,[bp+di+0x78],byte +0x7d
00003B2E  7F8A              jg 0x3aba
00003B30  A4                movsb
00003B31  AA                stosb
00003B32  AF                scasw
00003B33  B0C0              mov al,0xc0
00003B35  D0AEAF6E          shr byte [bp+0x6eaf],1
00003B39  6F                outsw
00003B3A  BE935E            mov si,0x5e93
00003B3D  227B05            and bh,[bp+di+0x5]
00003B40  0304              add ax,[si]
00003B42  2D0366            sub ax,0x6603
00003B45  0301              add ax,[bx+di]
00003B47  2F                das
00003B48  2E80821D0331      add byte [cs:bp+si+0x31d],0x31
00003B4E  0F1C04            cldemote [si]
00003B51  2409              and al,0x9
00003B53  1E                push ds
00003B54  052B05            add ax,0x52b
00003B57  44                inc sp
00003B58  040E              add al,0xe
00003B5A  2A80AA06          sub al,[bx+si+0x6aa]
00003B5E  2404              and al,0x4
00003B60  2404              and al,0x4
00003B62  2808              sub [bx+si],cl
00003B64  340B              xor al,0xb
00003B66  4E                dec si
00003B67  43                inc bx
00003B68  81370916          xor word [bx],0x1609
00003B6C  0A08              or cl,[bx+si]
00003B6E  183B              sbb [bp+di],bh
00003B70  45                inc bp
00003B71  3903              cmp [bp+di],ax
00003B73  6308              arpl [bx+si],cx
00003B75  0930              or [bx+si],si
00003B77  16                push ss
00003B78  052103            add ax,0x321
00003B7B  1B05              sbb ax,[di]
00003B7D  014038            add [bx+si+0x38],ax
00003B80  044B              add al,0x4b
00003B82  052F04            add ax,0x42f
00003B85  0A07              or al,[bx]
00003B87  0907              or [bx],ax
00003B89  40                inc ax
00003B8A  2027              and [bx],ah
00003B8C  040C              add al,0xc
00003B8E  0936033A          or [0x3a03],si
00003B92  051A07            add ax,0x71a
00003B95  040C              add al,0xc
00003B97  07                pop es
00003B98  50                push ax
00003B99  49                dec cx
00003B9A  37                aaa
00003B9B  330D              xor cx,[di]
00003B9D  3307              xor ax,[bx]
00003B9F  2E080A            or [cs:bp+si],cl
00003BA2  8126524B2B08      and word [0x4b52],0x82b
00003BA8  2A161A26          sub dl,[0x261a]
00003BAC  1C14              sbb al,0x14
00003BAE  17                pop ss
00003BAF  094E04            or [bp+0x4],cx
00003BB2  2409              and al,0x9
00003BB4  44                inc sp
00003BB5  0D1907            or ax,0x719
00003BB8  0A064808          or al,[0x848]
00003BBC  27                daa
00003BBD  09750B            or [di+0xb],si
00003BC0  42                inc dx
00003BC1  3E2A063B05        sub al,[ds:0x53b]
00003BC6  0A065106          or al,[0x651]
00003BCA  0105              add [di],ax
00003BCC  1003              adc [bp+di],al
00003BCE  05808B            add ax,0x8b80
00003BD1  621E4808          bound bx,[0x848]
00003BD5  0A80A65E          or al,[bx+si+0x5ea6]
00003BD9  22450B            and al,[di+0xb]
00003BDC  0A060D13          or al,[0x130d]
00003BE0  3A060A36          cmp al,[0x360a]
00003BE4  2C04              sub al,0x4
00003BE6  17                pop ss
00003BE7  80B93C6453        cmp byte [bx+di+0x643c],0x53
00003BEC  0C48              or al,0x48
00003BEE  090A              or [bp+si],cx
00003BF0  46                inc si
00003BF1  45                inc bp
00003BF2  1B4808            sbb cx,[bx+si+0x8]
00003BF5  53                push bx
00003BF6  0D4907            or ax,0x749
00003BF9  0A80F646          or al,[bx+si+0x46f6]
00003BFD  0A1D              or bl,[di]
00003BFF  034749            add ax,[bx+0x49]
00003C02  37                aaa
00003C03  030E080A          add cx,[0xa08]
00003C07  06                push es
00003C08  3907              cmp [bx],ax
00003C0A  0A813619          or al,[bx+di+0x1936]
00003C0E  07                pop es
00003C0F  3B03              cmp ax,[bp+di]
00003C11  1C56              sbb al,0x56
00003C13  010F              add [bx],cx
00003C15  320D              xor cl,[di]
00003C17  839B66750B        sbb word [bp+di+0x7566],byte +0xb
00003C1C  80C48A            add ah,0x8a
00003C1F  4C                dec sp
00003C20  630D              arpl [di],cx
00003C22  8430              test [bx+si],dh
00003C24  10168FAA          adc [0xaa8f],dl
00003C28  82                db 0x82
00003C29  47                inc di
00003C2A  A1B982            mov ax,[0x82b9]
00003C2D  3907              cmp [bx],ax
00003C2F  2A04              sub al,[si]
00003C31  5C                pop sp
00003C32  06                push es
00003C33  260A460A          or al,[es:bp+0xa]
00003C37  2805              sub [di],al
00003C39  1382B05B          adc ax,[bp+si+0x5bb0]
00003C3D  654B              gs dec bx
00003C3F  0439              add al,0x39
00003C41  07                pop es
00003C42  114005            adc [bx+si+0x5],ax
00003C45  0B02              or ax,[bp+si]
00003C47  0E                push cs
00003C48  97                xchg ax,di
00003C49  F8                clc
00003C4A  0884D62A          or [si+0x2ad6],al
00003C4E  09A2E781          or [bp+si-0x7e19],sp
00003C52  330F              xor cx,[bx]
00003C54  011D              add [di],bx
00003C56  06                push es
00003C57  0E                push cs
00003C58  0408              add al,0x8
00003C5A  818C89046B05      or word [si+0x489],0x56b
00003C60  0D0309            or ax,0x903
00003C63  07                pop es
00003C64  10926047          adc [bp+si+0x4760],dl
00003C68  09743C            or [si+0x3c],si
00003C6B  80F60A            xor dh,0xa
00003C6E  7308              jnc 0x3c78
00003C70  7015              jo 0x3c87
00003C72  46                inc si
00003C73  7A14              jpe 0x3c89
00003C75  0C14              or al,0x14
00003C77  0C57              or al,0x57
00003C79  0919              or [bx+di],bx
00003C7B  8087814703        add byte [bx+0x4781],0x3
00003C80  85420F            test [bp+si+0xf],ax
00003C83  158450            adc ax,0x5084
00003C86  1F                pop ds
00003C87  06                push es
00003C88  06                push es
00003C89  80D52B            adc ch,0x2b
00003C8C  053E21            add ax,0x213e
00003C8F  01702D            add [bx+si+0x2d],si
00003C92  031A              add bx,[bp+si]
00003C94  0402              add al,0x2
00003C96  81401F113A        add word [bx+si+0x1f],0x3a11
00003C9B  050181            add ax,0x8101
00003C9E  D02A              shr byte [bp+si],1
00003CA0  82                db 0x82
00003CA1  E680              out 0x80,al
00003CA3  F729              imul word [bx+di]
00003CA5  4C                dec sp
00003CA6  040A              add al,0xa
00003CA8  0402              add al,0x2
00003CAA  831144            adc word [bx+di],byte +0x44
00003CAD  4C                dec sp
00003CAE  3D80C2            cmp ax,0xc280
00003CB1  3C06              cmp al,0x6
00003CB3  0104              add [si],ax
00003CB5  55                push bp
00003CB6  051B34            add ax,0x341b
00003CB9  02810E2C          add al,[bx+di+0x2c0e]
00003CBD  0464              add al,0x64
00003CBF  0C56              or al,0x56
00003CC1  0A80AE38          or al,[bx+si+0x38ae]
00003CC5  1D0D2C            sbb ax,0x2c0d
00003CC8  0409              add al,0x9
00003CCA  07                pop es
00003CCB  020E0680          add cl,[0x8006]
00003CCF  9A83D80411        call 0x1104:0xd883
00003CD4  030D              add cx,[di]
00003CD6  037704            add si,[bx+0x4]
00003CD9  5F                pop di
00003CDA  06                push es
00003CDB  0C04              or al,0x4
00003CDD  010F              add [bx],cx
00003CDF  0C04              or al,0x4
00003CE1  3808              cmp [bx+si],cl
00003CE3  0A062808          or al,[0x828]
00003CE7  224E81            and cl,[bp-0x7f]
00003CEA  54                push sp
00003CEB  0C1D              or al,0x1d
00003CED  0309              add cx,[bx+di]
00003CEF  07                pop es
00003CF0  36080E0409        or [ss:0x904],cl
00003CF5  07                pop es
00003CF6  0907              or [bx],ax
00003CF8  80CB25            or bl,0x25
00003CFB  0A840600          or al,[si+0x6]
00003CFF  0103              add [bp+di],ax
00003D01  050506            add ax,0x605
00003D04  06                push es
00003D05  0207              add al,[bx]
00003D07  06                push es
00003D08  0807              or [bx],al
00003D0A  0911              or [bx+di],dx
00003D0C  0A1C              or bl,[si]
00003D0E  0B19              or bx,[bx+di]
00003D10  0C1A              or al,0x1a
00003D12  0D100E            or ax,0xe10
00003D15  0C0F              or al,0xf
00003D17  0410              add al,0x10
00003D19  0312              add dx,[bp+si]
00003D1B  1213              adc dl,[bp+di]
00003D1D  09160117          or [0x1701],dx
00003D21  0418              add al,0x18
00003D23  0119              add [bx+di],bx
00003D25  031A              add bx,[bp+si]
00003D27  07                pop es
00003D28  1B01              sbb ax,[bx+di]
00003D2A  1C02              sbb al,0x2
00003D2C  1F                pop ds
00003D2D  16                push ss
00003D2E  2003              and [bp+di],al
00003D30  2B03              sub ax,[bp+di]
00003D32  2D0B2E            sub ax,0x2e0b
00003D35  0130              add [bx+si],si
00003D37  0331              add si,[bx+di]
00003D39  0232              add dh,[bp+si]
00003D3B  01A702A9          add [bx-0x56fe],sp
00003D3F  02AA04AB          add ch,[bp+si-0x54fc]
00003D43  08FA              or dl,bh
00003D45  02FB              add bh,bl
00003D47  05FD02            add ax,0x2fd
00003D4A  FE03              inc byte [bp+di]
00003D4C  FF09              dec word [bx+di]
00003D4E  AD                lodsw
00003D4F  7879              js 0x3dca
00003D51  8B8DA230          mov cx,[di+0x30a2]
00003D55  57                push di
00003D56  58                pop ax
00003D57  8B8C901C          mov cx,[si+0x1c90]
00003D5B  DD0E0F4B          fisttp qword [0x4b0f]
00003D5F  4C                dec sp
00003D60  FB                sti
00003D61  FC                cld
00003D62  2E2F              cs das
00003D64  3F                aas
00003D65  5C                pop sp
00003D66  5D                pop bp
00003D67  5F                pop di
00003D68  E284              loop 0x3cee
00003D6A  8D8E9192          lea cx,[bp-0x6d6f]
00003D6E  A9B1BA            test ax,0xbab1
00003D71  BBC5C6            mov bx,0xc6c5
00003D74  C9                leave
00003D75  CADEE4            retf 0xe4de
00003D78  E5FF              in ax,0xff
00003D7A  0004              add [si],al
00003D7C  1112              adc [bp+si],dx
00003D7E  2931              sub [bx+di],si
00003D80  3437              xor al,0x37
00003D82  3A3B              cmp bh,[bp+di]
00003D84  3D494A            cmp ax,0x4a49
00003D87  5D                pop bp
00003D88  848E92A9          test [bp-0x566e],cl
00003D8C  B1B4              mov cl,0xb4
00003D8E  BABBC6            mov dx,0xc6bb
00003D91  CACECF            retf 0xcfce
00003D94  E4E5              in al,0xe5
00003D96  0004              add [si],al
00003D98  0D0E11            or ax,0x110e
00003D9B  1229              adc ch,[bx+di]
00003D9D  3134              xor [si],si
00003D9F  3A3B              cmp bh,[bp+di]
00003DA1  45                inc bp
00003DA2  46                inc si
00003DA3  49                dec cx
00003DA4  4A                dec dx
00003DA5  5E                pop si
00003DA6  646584919B9D      test [gs:bx+di-0x6265],dl
00003DAC  C9                leave
00003DAD  CE                into
00003DAE  CF                iret
00003DAF  0D1129            or ax,0x2911
00003DB2  3A3B              cmp bh,[bp+di]
00003DB4  45                inc bp
00003DB5  49                dec cx
00003DB6  57                push di
00003DB7  5B                pop bx
00003DB8  5C                pop sp
00003DB9  5E                pop si
00003DBA  5F                pop di
00003DBB  64658D91A9B4      lea dx,[gs:bx+di-0x4b57]
00003DC1  BABBC5            mov dx,0xc5bb
00003DC4  C9                leave
00003DC5  DF                db 0xdf
00003DC6  E4E5              in al,0xe5
00003DC8  F00D1145          lock or ax,0x4511
00003DCC  49                dec cx
00003DCD  64658084B2BCBE    add byte [gs:si-0x434e],0xbe
00003DD4  BFD5D7            mov di,0xd7d5
00003DD7  F0F1              lock int1
00003DD9  83858BA4A6        add word [di-0x5b75],byte -0x5a
00003DDE  BEBFC5            mov si,0xc5bf
00003DE1  C7                db 0xc7
00003DE2  CF                iret
00003DE3  DADB              fcmovu st3
00003DE5  48                dec ax
00003DE6  98                cbw
00003DE7  BDCDC6            mov bp,0xc6cd
00003DEA  CE                into
00003DEB  CF                iret
00003DEC  49                dec cx
00003DED  4E                dec si
00003DEE  4F                dec di
00003DEF  57                push di
00003DF0  59                pop cx
00003DF1  5E                pop si
00003DF2  5F                pop di
00003DF3  898E8FB1          mov [bp-0x4e71],cx
00003DF7  B6B7              mov dh,0xb7
00003DF9  BFC1C6            mov di,0xc6c1
00003DFC  C7                db 0xc7
00003DFD  D7                xlatb
00003DFE  1116175B          adc [0x5b17],dx
00003E02  5C                pop sp
00003E03  F6F7              div bh
00003E05  FE                db 0xfe
00003E06  FF806D71          inc word [bx+si+0x716d]
00003E0A  DE                db 0xde
00003E0B  DF0E1F6E          fisttp word [0x6e1f]
00003E0F  6F                outsw
00003E10  1C1D              sbb al,0x1d
00003E12  5F                pop di
00003E13  7D7E              jnl 0x3e93
00003E15  AE                scasb
00003E16  AF                scasw
00003E17  7FBB              jg 0x3dd4
00003E19  BC1617            mov sp,0x1716
00003E1C  1E                push ds
00003E1D  1F                pop ds
00003E1E  46                inc si
00003E1F  47                inc di
00003E20  4E                dec si
00003E21  4F                dec di
00003E22  58                pop ax
00003E23  5A                pop dx
00003E24  5C                pop sp
00003E25  5E                pop si
00003E26  7E7F              jng 0x3ea7
00003E28  B5C5              mov ch,0xc5
00003E2A  D4D5              aam 0xd5
00003E2C  DCF0              fdivr to st0
00003E2E  F1                int1
00003E2F  F5                cmc
00003E30  7273              jc 0x3ea5
00003E32  8F                db 0x8f
00003E33  7475              jz 0x3eaa
00003E35  96                xchg ax,si
00003E36  262E2F            cs das
00003E39  A7                cmpsw
00003E3A  AF                scasw
00003E3B  B7BF              mov bh,0xbf
00003E3D  C7                db 0xc7
00003E3E  CF                iret
00003E3F  D7                xlatb
00003E40  DF9A4097          fistp word [bp+si-0x68c0]
00003E44  98                cbw
00003E45  308F1FD2          xor [bx-0x2de1],cl
00003E49  D4CE              aam 0xce
00003E4B  FF4E4F            dec word [bp+0x4f]
00003E4E  5A                pop dx
00003E4F  5B                pop bx
00003E50  07                pop es
00003E51  080F              or [bx],cl
00003E53  1027              adc [bx],ah
00003E55  2F                das
00003E56  EE                out dx,al
00003E57  EF                out dx,ax
00003E58  6E                outsb
00003E59  6F                outsw
00003E5A  37                aaa
00003E5B  3D3F42            cmp ax,0x423f
00003E5E  45                inc bp
00003E5F  90                nop
00003E60  91                xchg ax,cx
00003E61  53                push bx
00003E62  6775C8            jnz 0x3e2d
00003E65  C9                leave
00003E66  D0D1              rcl cl,1
00003E68  D8D9              fcomp st1
00003E6A  E7FE              out 0xfe,ax
00003E6C  FF00              inc word [bx+si]
00003E6E  205F22            and [bx+0x22],bl
00003E71  82                db 0x82
00003E72  DF04              fild word [si]
00003E74  82                db 0x82
00003E75  44                inc sp
00003E76  081B              or [bp+di],bl
00003E78  0406              add al,0x6
00003E7A  1181AC0E          adc [bx+di+0xeac],ax
00003E7E  80AB051F09        sub byte [bp+di+0x1f05],0x9
00003E83  811B0319          sbb word [bp+di],0x1903
00003E87  0801              or [bx+di],al
00003E89  042F              add al,0x2f
00003E8B  0434              add al,0x34
00003E8D  0407              add al,0x7
00003E8F  0301              add ax,[bx+di]
00003E91  07                pop es
00003E92  06                push es
00003E93  07                pop es
00003E94  110A              adc [bp+si],cx
00003E96  50                push ax
00003E97  0F1207            movlps xmm0,qword [bx]
00003E9A  55                push bp
00003E9B  07                pop es
00003E9C  0304              add ax,[si]
00003E9E  1C0A              sbb al,0xa
00003EA0  0903              or [bp+di],ax
00003EA2  0803              or [bp+di],al
00003EA4  07                pop es
00003EA5  0302              add ax,[bp+si]
00003EA7  0303              add ax,[bp+di]
00003EA9  030C              add cx,[si]
00003EAB  0405              add al,0x5
00003EAD  030B              add cx,[bp+di]
00003EAF  06                push es
00003EB0  010E1505          add [0x515],cx
00003EB4  4E                dec si
00003EB5  07                pop es
00003EB6  1B07              sbb ax,[bx]
00003EB8  57                push di
00003EB9  07                pop es
00003EBA  0206170C          add al,[0xc17]
00003EBE  50                push ax
00003EBF  0443              add al,0x43
00003EC1  032D              add bp,[di]
00003EC3  0301              add ax,[bx+di]
00003EC5  0411              add al,0x11
00003EC7  06                push es
00003EC8  0F                db 0x0f
00003EC9  0C3A              or al,0x3a
00003ECB  041D              add al,0x1d
00003ECD  255F20            and ax,0x205f
00003ED0  6D                insw
00003ED1  046A              add al,0x6a
00003ED3  2580C8            and ax,0xc880
00003ED6  0582B0            add ax,0xb082
00003ED9  031A              add bx,[bp+si]
00003EDB  06                push es
00003EDC  82                db 0x82
00003EDD  FD                std
00003EDE  035907            add bx,[bx+di+0x7]
00003EE1  16                push ss
00003EE2  0918              or [bx+si],bx
00003EE4  0914              or [si],dx
00003EE6  0C14              or al,0x14
00003EE8  0C6A              or al,0x6a
00003EEA  06                push es
00003EEB  0A061A06          or al,[0x61a]
00003EEF  59                pop cx
00003EF0  07                pop es
00003EF1  2B05              sub ax,[di]
00003EF3  46                inc si
00003EF4  0A2C              or ch,[si]
00003EF6  040C              add al,0xc
00003EF8  0401              add al,0x1
00003EFA  0331              add si,[bx+di]
00003EFC  0B2C              or bp,[si]
00003EFE  041A              add al,0x1a
00003F00  06                push es
00003F01  0B03              or ax,[bp+di]
00003F03  80AC060A06        sub byte [si+0xa06],0x6
00003F08  2F                das
00003F09  314D03            xor [di+0x3],cx
00003F0C  80A4083C03        and byte [si+0x3c08],0x3
00003F11  0F033C            lsl di,[si]
00003F14  07                pop es
00003F15  3808              cmp [bx+si],cl
00003F17  2B05              sub ax,[di]
00003F19  82                db 0x82
00003F1A  FF11              call [bx+di]
00003F1C  1808              sbb [bx+si],cl
00003F1E  2F                das
00003F1F  112D              adc [di],bp
00003F21  0321              add sp,[bx+di]
00003F23  0F                db 0x0f
00003F24  210F              and [bx],cx
00003F26  808C048297        or byte [si-0x7dfc],0x97
00003F2B  190B              sbb [bp+di],cx
00003F2D  158894            adc ax,0x9488
00003F30  052F05            add ax,0x52f
00003F33  3B07              cmp ax,[bx]
00003F35  020E1809          add cl,[0x918]
00003F39  80BE22740C        cmp byte [bp+0x7422],0xc
00003F3E  80D61A            adc dh,0x1a
00003F41  0C05              or al,0x5
00003F43  80FF05            cmp bh,0x5
00003F46  80DF0C            sbb bh,0xc
00003F49  F29D              repne popf
00003F4B  0337              add si,[bx]
00003F4D  09815C14          or [bx+di+0x145c],ax
00003F51  80B80880CB        cmp byte [bx+si-0x7ff8],0xcb
00003F56  050A18            add ax,0x180a
00003F59  3B03              cmp ax,[bp+di]
00003F5B  0A063808          or al,[0x838]
00003F5F  46                inc si
00003F60  080C              or [si],cl
00003F62  06                push es
00003F63  740B              jz 0x3f70
00003F65  1E                push ds
00003F66  035A04            add bx,[bp+si+0x4]
00003F69  59                pop cx
00003F6A  09808318          or [bx+si+0x1883],ax
00003F6E  1C0A              sbb al,0xa
00003F70  16                push ss
00003F71  094C04            or [si+0x4],cx
00003F74  808A06ABA4        or byte [bp+si-0x54fa],0xa4
00003F79  0C17              or al,0x17
00003F7B  0431              add al,0x31
00003F7D  A10481            mov ax,[0x8104]
00003F80  DA26070C          fisub dword [0xc07]
00003F84  050580            add ax,0x8005
00003F87  A6                cmpsb
00003F88  1081F507          adc [bx+di+0x7f5],al
00003F8C  0120              add [bx+si],sp
00003F8E  2A064C04          sub al,[0x44c]
00003F92  808D0480BE        or byte [di-0x7ffc],0xbe
00003F97  031B              add bx,[bp+di]
00003F99  030F              add cx,[bx]
00003F9B  0D2F68            or ax,0x682f
00003F9E  6F                outsw
00003F9F  6D                insw
00003FA0  652F              gs das
00003FA2  646965676F2F      imul sp,[fs:di+0x67],word 0x2f6f
00003FA8  2E7275            cs jc 0x4020
00003FAB  7374              jnc 0x4021
00003FAD  7570              jnz 0x401f
00003FAF  2F                das
00003FB0  746F              jz 0x4021
00003FB2  6F                outsw
00003FB3  6C                insb
00003FB4  636861            arpl [bx+si+0x61],bp
00003FB7  696E732F6E        imul bp,[bp+0x73],word 0x6e2f
00003FBC  696768746C        imul sp,[bx+0x68],word 0x6c74
00003FC1  792D              jns 0x3ff0
00003FC3  7838              js 0x3ffd
00003FC5  365F              ss pop di
00003FC7  36342D            ss xor al,0x2d
00003FCA  756E              jnz 0x403a
00003FCC  6B6E6F77          imul bp,[bp+0x6f],byte +0x77
00003FD0  6E                outsb
00003FD1  2D6C69            sub ax,0x696c
00003FD4  6E                outsb
00003FD5  7578              jnz 0x404f
00003FD7  2D676E            sub ax,0x6e67
00003FDA  752F              jnz 0x400b
00003FDC  6C                insb
00003FDD  69622F7275        imul sp,[bp+si+0x2f],word 0x7572
00003FE2  7374              jnc 0x4058
00003FE4  6C                insb
00003FE5  69622F7372        imul sp,[bp+si+0x2f],word 0x7273
00003FEA  632F              arpl [bx],bp
00003FEC  7275              jc 0x4063
00003FEE  7374              jnc 0x4064
00003FF0  2F                das
00003FF1  6C                insb
00003FF2  6962726172        imul sp,[bp+si+0x72],word 0x7261
00003FF7  792F              jns 0x4028
00003FF9  636F72            arpl [bx+0x72],bp
00003FFC  652F              gs das
00003FFE  7372              jnc 0x4072
00004000  632F              arpl [bx],bp
00004002  756E              jnz 0x4072
00004004  69636F6465        imul sp,[bp+di+0x6f],word 0x6564
00004009  2F                das
0000400A  756E              jnz 0x407a
0000400C  69636F6465        imul sp,[bp+di+0x6f],word 0x6564
00004011  5F                pop di
00004012  6461              fs popa
00004014  7461              jz 0x4077
00004016  2E7273            cs jc 0x408c
00004019  0000              add [bx+si],al
0000401B  009C4D00          add [si+0x4d],bl
0000401F  007D00            add [di+0x0],bh
00004022  0000              add [bx+si],al
00004024  50                push ax
00004025  0000              add [bx+si],al
00004027  0028              add [bx+si],ch
00004029  0000              add [bx+si],al
0000402B  009C4D00          add [si+0x4d],bl
0000402F  007D00            add [di+0x0],bh
00004032  0000              add [bx+si],al
00004034  5C                pop sp
00004035  0000              add [bx+si],al
00004037  00160000          add [0x0],dl
0000403B  002F              add [bx],ch
0000403D  686F6D            push word 0x6d6f
00004040  652F              gs das
00004042  646965676F2F      imul sp,[fs:di+0x67],word 0x2f6f
00004048  2E7275            cs jc 0x40c0
0000404B  7374              jnc 0x40c1
0000404D  7570              jnz 0x40bf
0000404F  2F                das
00004050  746F              jz 0x40c1
00004052  6F                outsw
00004053  6C                insb
00004054  636861            arpl [bx+si+0x61],bp
00004057  696E732F6E        imul bp,[bp+0x73],word 0x6e2f
0000405C  696768746C        imul sp,[bx+0x68],word 0x6c74
00004061  792D              jns 0x4090
00004063  7838              js 0x409d
00004065  365F              ss pop di
00004067  36342D            ss xor al,0x2d
0000406A  756E              jnz 0x40da
0000406C  6B6E6F77          imul bp,[bp+0x6f],byte +0x77
00004070  6E                outsb
00004071  2D6C69            sub ax,0x696c
00004074  6E                outsb
00004075  7578              jnz 0x40ef
00004077  2D676E            sub ax,0x6e67
0000407A  752F              jnz 0x40ab
0000407C  6C                insb
0000407D  69622F7275        imul sp,[bp+si+0x2f],word 0x7572
00004082  7374              jnc 0x40f8
00004084  6C                insb
00004085  69622F7372        imul sp,[bp+si+0x2f],word 0x7273
0000408A  632F              arpl [bx],bp
0000408C  7275              jc 0x4103
0000408E  7374              jnc 0x4104
00004090  2F                das
00004091  6C                insb
00004092  6962726172        imul sp,[bp+si+0x72],word 0x7261
00004097  792F              jns 0x40c8
00004099  636F72            arpl [bx+0x72],bp
0000409C  652F              gs das
0000409E  7372              jnc 0x4112
000040A0  632F              arpl [bx],bp
000040A2  657363            gs jnc 0x4108
000040A5  61                popa
000040A6  7065              jo 0x410d
000040A8  2E7273            cs jc 0x411e
000040AB  003C              add [si],bh
000040AD  4E                dec si
000040AE  0000              add [bx+si],al
000040B0  6F                outsw
000040B1  0000              add [bx+si],al
000040B3  0034              add [si],dh
000040B5  0000              add [bx+si],al
000040B7  000B              add [bp+di],cl
000040B9  0000              add [bx+si],al
000040BB  005C75            add [si+0x75],bl
000040BE  7B00              jpo 0x40c0
000040C0  3C4E              cmp al,0x4e
000040C2  0000              add [bx+si],al
000040C4  6F                outsw
000040C5  0000              add [bx+si],al
000040C7  0034              add [si],dh
000040C9  0000              add [bx+si],al
000040CB  001A              add [bp+si],bl
000040CD  0000              add [bx+si],al
000040CF  003C              add [si],bh
000040D1  4E                dec si
000040D2  0000              add [bx+si],al
000040D4  6F                outsw
000040D5  0000              add [bx+si],al
000040D7  005100            add [bx+di+0x0],dl
000040DA  0000              add [bx+si],al
000040DC  1300              adc ax,[bx+si]
000040DE  0000              add [bx+si],al
000040E0  3C4E              cmp al,0x4e
000040E2  0000              add [bx+si],al
000040E4  6F                outsw
000040E5  0000              add [bx+si],al
000040E7  006200            add [bp+si+0x0],ah
000040EA  0000              add [bx+si],al
000040EC  2300              and ax,[bx+si]
000040EE  0000              add [bx+si],al
000040F0  0003              add [bp+di],al
000040F2  0000              add [bx+si],al
000040F4  830420            add word [si],byte +0x20
000040F7  00910560          add [bx+di+0x6005],dl
000040FB  005D13            add [di+0x13],bl
000040FE  A00012            mov al,[0x1200]
00004101  17                pop ss
00004102  201F              and [bx],bl
00004104  0C20              or al,0x20
00004106  60                pusha
00004107  1F                pop ds
00004108  EF                out dx,ax
00004109  2CA0              sub al,0xa0
0000410B  2B2A              sub bp,[bp+si]
0000410D  3020              xor [bx+si],ah
0000410F  2C6F              sub al,0x6f
00004111  A6                cmpsb
00004112  E02C              loopne 0x4140
00004114  02A8602D          add ch,[bx+si+0x2d60]
00004118  1E                push ds
00004119  FB                sti
0000411A  60                pusha
0000411B  2E00FE            cs add dh,bh
0000411E  20369EFF          and [0xff9e],dh
00004122  60                pusha
00004123  36FD              ss std
00004125  01E1              add cx,sp
00004127  36010A            add [ss:bp+si],cx
0000412A  2137              and [bx],si
0000412C  240D              and al,0xd
0000412E  E137              loope 0x4167
00004130  AB                stosw
00004131  0E                push cs
00004132  61                popa
00004133  392F              cmp [bx],bp
00004135  18A13930          sbb [bx+di+0x3039],ah
00004139  1C61              sbb al,0x61
0000413B  48                dec ax
0000413C  F31E              rep push ds
0000413E  A14C40            mov ax,[0x404c]
00004141  3461              xor al,0x61
00004143  50                push ax
00004144  F06AA1            lock push byte -0x5f
00004147  51                push cx
00004148  4F                dec di
00004149  6F                outsw
0000414A  21529D            and [bp+si-0x63],dx
0000414D  BCA152            mov sp,0x52a1
00004150  00CF              add bh,cl
00004152  61                popa
00004153  53                push bx
00004154  65D1A15300        shl word [gs:bx+di+0x53],1
00004159  DA21              fisub dword [bx+di]
0000415B  54                push sp
0000415C  00E0              add al,ah
0000415E  E155              loope 0x41b5
00004160  AE                scasb
00004161  E261              loop 0x41c4
00004163  57                push di
00004164  EC                in al,dx
00004165  E421              in al,0x21
00004167  59                pop cx
00004168  D0E8              shr al,1
0000416A  A15920            mov ax,[0x2059]
0000416D  00EE              add dh,ch
0000416F  59                pop cx
00004170  F0017F5A          lock add [bx+0x5a],di
00004174  007000            add [bx+si+0x0],dh
00004177  07                pop es
00004178  002D              add [di],ch
0000417A  0101              add [bx+di],ax
0000417C  0102              add [bp+si],ax
0000417E  0102              add [bp+si],ax
00004180  0101              add [bx+di],ax
00004182  48                dec ax
00004183  0B30              or si,[bx+si]
00004185  151001            adc ax,0x110
00004188  6507              gs pop es
0000418A  02060202          add al,[0x202]
0000418E  0104              add [si],ax
00004190  2301              and ax,[bx+di]
00004192  1E                push ds
00004193  1B5B0B            sbb bx,[bp+di+0xb]
00004196  3A09              cmp cl,[bx+di]
00004198  0901              or [bx+di],ax
0000419A  1804              sbb [si],al
0000419C  0109              add [bx+di],cx
0000419E  0103              add [bp+di],ax
000041A0  0105              add [di],ax
000041A2  2B03              sub ax,[bp+di]
000041A4  3C08              cmp al,0x8
000041A6  2A18              sub bl,[bx+si]
000041A8  0120              add [bx+si],sp
000041AA  37                aaa
000041AB  0101              add [bx+di],ax
000041AD  0104              add [si],ax
000041AF  0804              or [si],al
000041B1  0103              add [bp+di],ax
000041B3  07                pop es
000041B4  0A02              or al,[bp+si]
000041B6  1D013A            sbb ax,0x3a01
000041B9  0101              add [bx+di],ax
000041BB  0102              add [bp+si],ax
000041BD  0408              add al,0x8
000041BF  0109              add [bx+di],cx
000041C1  010A              add [bp+si],cx
000041C3  021A              add bl,[bp+si]
000041C5  0102              add [bp+si],ax
000041C7  0239              add bh,[bx+di]
000041C9  0104              add [si],ax
000041CB  0204              add al,[si]
000041CD  0202              add al,[bp+si]
000041CF  0303              add ax,[bp+di]
000041D1  011E0203          add [0x302],bx
000041D5  010B              add [bp+di],cx
000041D7  0239              add bh,[bx+di]
000041D9  0104              add [si],ax
000041DB  050102            add ax,0x201
000041DE  0401              add al,0x1
000041E0  1402              adc al,0x2
000041E2  16                push ss
000041E3  06                push es
000041E4  0101              add [bx+di],ax
000041E6  3A01              cmp al,[bx+di]
000041E8  0102              add [bp+si],ax
000041EA  0104              add [si],ax
000041EC  0801              or [bx+di],al
000041EE  07                pop es
000041EF  030A              add cx,[bp+si]
000041F1  021E013B          add bl,[0x3b01]
000041F5  0101              add [bx+di],ax
000041F7  010C              add [si],cx
000041F9  0109              add [bx+di],cx
000041FB  0128              add [bx+si],bp
000041FD  0103              add [bp+di],ax
000041FF  0137              add [bx],si
00004201  0101              add [bx+di],ax
00004203  0305              add ax,[di]
00004205  0301              add ax,[bx+di]
00004207  0407              add al,0x7
00004209  020B              add cl,[bp+di]
0000420B  021D              add bl,[di]
0000420D  013A              add [bp+si],di
0000420F  0102              add [bp+si],ax
00004211  0102              add [bp+si],ax
00004213  0103              add [bp+di],ax
00004215  0105              add [di],ax
00004217  0207              add al,[bx]
00004219  020B              add cl,[bp+di]
0000421B  021C              add bl,[si]
0000421D  0239              add bh,[bx+di]
0000421F  0201              add al,[bx+di]
00004221  0102              add [bp+si],ax
00004223  0408              add al,0x8
00004225  0109              add [bx+di],cx
00004227  010A              add [bp+si],cx
00004229  021D              add bl,[di]
0000422B  014801            add [bx+si+0x1],cx
0000422E  0401              add al,0x1
00004230  0203              add al,[bp+di]
00004232  0101              add [bx+di],ax
00004234  0801              or [bx+di],al
00004236  51                push cx
00004237  0102              add [bp+si],ax
00004239  07                pop es
0000423A  0C08              or al,0x8
0000423C  6201              bound ax,[bx+di]
0000423E  0209              add cl,[bx+di]
00004240  0B07              or ax,[bx]
00004242  49                dec cx
00004243  021B              add bl,[bp+di]
00004245  0101              add [bx+di],ax
00004247  0101              add [bx+di],ax
00004249  0137              add [bx],si
0000424B  0E                push cs
0000424C  0105              add [di],ax
0000424E  0102              add [bp+si],ax
00004250  050B01            add ax,0x10b
00004253  2409              and al,0x9
00004255  016604            add [bp+0x4],sp
00004258  01060102          add [0x201],ax
0000425C  0202              add al,[bp+si]
0000425E  1902              sbb [bp+si],ax
00004260  0403              add al,0x3
00004262  1004              adc [si],al
00004264  0D0102            or ax,0x201
00004267  0206010F          add al,[0xf01]
0000426B  0100              add [bx+si],ax
0000426D  0300              add ax,[bx+si]
0000426F  031D              add bx,[di]
00004271  021E021E          add bl,[0x1e02]
00004275  024002            add al,[bx+si+0x2]
00004278  0107              add [bx],ax
0000427A  0801              or [bx+di],al
0000427C  020B              add cl,[bp+di]
0000427E  0901              or [bx+di],ax
00004280  2D0301            sub ax,0x103
00004283  017502            add [di+0x2],si
00004286  2201              and al,[bx+di]
00004288  7603              jna 0x428d
0000428A  0402              add al,0x2
0000428C  0901              or [bx+di],ax
0000428E  06                push es
0000428F  03DB              add bx,bx
00004291  0202              add al,[bp+si]
00004293  013A              add [bp+si],di
00004295  0101              add [bx+di],ax
00004297  07                pop es
00004298  0101              add [bx+di],ax
0000429A  0101              add [bx+di],ax
0000429C  0208              add cl,[bx+si]
0000429E  06                push es
0000429F  0A02              or al,[bp+si]
000042A1  0130              add [bx+si],si
000042A3  1F                pop ds
000042A4  3104              xor [si],ax
000042A6  3007              xor [bx],al
000042A8  0101              add [bx+di],ax
000042AA  050128            add ax,0x2801
000042AD  090C              or [si],cx
000042AF  0220              add ah,[bx+si]
000042B1  0402              add al,0x2
000042B3  0201              add al,[bx+di]
000042B5  0338              add di,[bx+si]
000042B7  0101              add [bx+di],ax
000042B9  0203              add al,[bp+di]
000042BB  0101              add [bx+di],ax
000042BD  033A              add di,[bp+si]
000042BF  0802              or [bp+si],al
000042C1  02980301          add bl,[bx+si+0x103]
000042C5  0D0107            or ax,0x701
000042C8  0401              add al,0x1
000042CA  06                push es
000042CB  0103              add [bp+di],ax
000042CD  02C6              add al,dh
000042CF  40                inc ax
000042D0  0001              add [bx+di],al
000042D2  C3                ret
000042D3  2100              and [bx+si],ax
000042D5  038D0160          add cx,[di+0x6001]
000042D9  2000              and [bx+si],al
000042DB  06                push es
000042DC  69020004          imul ax,[bp+si],word 0x400
000042E0  010A              add [bp+si],cx
000042E2  2002              and [bp+si],al
000042E4  50                push ax
000042E5  0200              add al,[bx+si]
000042E7  0103              add [bp+di],ax
000042E9  0104              add [si],ax
000042EB  0119              add [bx+di],bx
000042ED  0205              add al,[di]
000042EF  0197021A          add [bx+0x1a02],dx
000042F3  120D              adc cl,[di]
000042F5  01260819          add [0x1908],sp
000042F9  0B2E0330          or bp,[0x3003]
000042FD  0102              add [bp+si],ax
000042FF  0402              add al,0x2
00004301  0227              add ah,[bx]
00004303  014306            add [bp+di+0x6],ax
00004306  0202              add al,[bp+si]
00004308  0202              add al,[bp+si]
0000430A  0C01              or al,0x1
0000430C  0801              or [bx+di],al
0000430E  2F                das
0000430F  0133              add [bp+di],si
00004311  0101              add [bx+di],ax
00004313  0302              add ax,[bp+si]
00004315  0205              add al,[di]
00004317  0201              add al,[bx+di]
00004319  012A              add [bp+si],bp
0000431B  0208              add cl,[bx+si]
0000431D  01EE              add si,bp
0000431F  0102              add [bp+si],ax
00004321  0104              add [si],ax
00004323  0100              add [bx+si],ax
00004325  0100              add [bx+si],ax
00004327  1010              adc [bx+si],dl
00004329  1000              adc [bx+si],al
0000432B  0200              add al,[bx+si]
0000432D  01E2              add dx,sp
0000432F  01950500          add [di+0x5],dx
00004333  0301              add ax,[bx+di]
00004335  0205              add al,[di]
00004337  0428              add al,0x28
00004339  0304              add ax,[si]
0000433B  01A50200          add [di+0x2],sp
0000433F  0400              add al,0x0
00004341  025003            add dl,[bx+si+0x3]
00004344  46                inc si
00004345  0B31              or si,[bx+di]
00004347  047B              add al,0x7b
00004349  01360F29          add [0x290f],si
0000434D  0102              add [bp+si],ax
0000434F  020A              add cl,[bp+si]
00004351  0331              add si,[bx+di]
00004353  0402              add al,0x2
00004355  0207              add al,[bx]
00004357  013D              add [di],di
00004359  0324              add sp,[si]
0000435B  050108            add ax,0x801
0000435E  3E010C            add [ds:si],cx
00004361  0234              add dh,[si]
00004363  090A              or [bp+si],cx
00004365  0402              add al,0x2
00004367  015F03            add [bx+0x3],bx
0000436A  0201              add al,[bx+di]
0000436C  0102              add [bp+si],ax
0000436E  06                push es
0000436F  0102              add [bp+si],ax
00004371  019D0103          add [di+0x301],bx
00004375  0815              or [di],dl
00004377  0239              add bh,[bx+di]
00004379  0201              add al,[bx+di]
0000437B  0101              add [bx+di],ax
0000437D  0116010E          add [0xe01],dx
00004381  07                pop es
00004382  0305              add ax,[di]
00004384  C3                ret
00004385  0802              or [bp+si],al
00004387  0301              add ax,[bx+di]
00004389  0117              add [bx],dx
0000438B  015101            add [bx+di+0x1],dx
0000438E  02060101          add al,[0x101]
00004392  0201              add al,[bx+di]
00004394  0102              add [bp+si],ax
00004396  0102              add [bp+si],ax
00004398  EB01              jmp short 0x439b
0000439A  0204              add al,[si]
0000439C  06                push es
0000439D  0201              add al,[bx+di]
0000439F  021B              add bl,[bp+di]
000043A1  025508            add dl,[di+0x8]
000043A4  0201              add al,[bx+di]
000043A6  0102              add [bp+si],ax
000043A8  6A01              push byte +0x1
000043AA  0101              add [bx+di],ax
000043AC  02060101          add al,[0x101]
000043B0  650302            add ax,[gs:bp+si]
000043B3  0401              add al,0x1
000043B5  050009            add ax,0x900
000043B8  0102              add [bp+si],ax
000043BA  F5                cmc
000043BB  010A              add [bp+si],cx
000043BD  0201              add al,[bx+di]
000043BF  0104              add [si],ax
000043C1  01900402          add [bx+si+0x204],dx
000043C5  0204              add al,[si]
000043C7  0120              add [bx+si],sp
000043C9  0A28              or ch,[bx+si]
000043CB  06                push es
000043CC  0204              add al,[si]
000043CE  0801              or [bx+di],al
000043D0  09060203          or [0x302],ax
000043D4  2E0D0102          cs or ax,0x201
000043D8  0007              add [bx],al
000043DA  01060101          add [0x101],ax
000043DE  52                push dx
000043DF  16                push ss
000043E0  0207              add al,[bx]
000043E2  0102              add [bp+si],ax
000043E4  0102              add [bp+si],ax
000043E6  7A06              jpe 0x43ee
000043E8  0301              add ax,[bx+di]
000043EA  0102              add [bp+si],ax
000043EC  0107              add [bx],ax
000043EE  0101              add [bx+di],ax
000043F0  48                dec ax
000043F1  0203              add al,[bp+di]
000043F3  0101              add [bx+di],ax
000043F5  0100              add [bx+si],ax
000043F7  020B              add cl,[bp+di]
000043F9  0234              add dh,[si]
000043FB  050501            add ax,0x105
000043FE  0101              add [bx+di],ax
00004400  0001              add [bx+di],al
00004402  06                push es
00004403  0F0005            sldt [di]
00004406  3B07              cmp ax,[bx]
00004408  0001              add [bx+di],al
0000440A  3F                aas
0000440B  0451              add al,0x51
0000440D  0100              add [bx+si],ax
0000440F  0200              add al,[bx+si]
00004411  2E0217            add dl,[cs:bx]
00004414  0001              add [bx+di],al
00004416  0103              add [bp+di],ax
00004418  0405              add al,0x5
0000441A  0808              or [bx+si],cl
0000441C  0207              add al,[bx]
0000441E  1E                push ds
0000441F  0494              add al,0x94
00004421  0300              add ax,[bx+si]
00004423  37                aaa
00004424  0432              add al,0x32
00004426  0801              or [bx+di],al
00004428  0E                push cs
00004429  01160501          add [0x105],dx
0000442D  0F0007            sldt [bx]
00004430  0111              add [bx+di],dx
00004432  0207              add al,[bx]
00004434  0102              add [bp+si],ax
00004436  0105              add [di],ax
00004438  6401A00700        add [fs:bx+si+0x7],sp
0000443D  013D              add [di],di
0000443F  0400              add al,0x0
00004441  0400              add al,0x0
00004443  07                pop es
00004444  6D                insw
00004445  07                pop es
00004446  006080            add [bx+si-0x80],ah
00004449  F0                lock
0000444A  00                db 0x00
