00000000  8816              mov [esi],dl
00000002  9B7DBD            wait jnl 0xffffffc2
00000005  FC                cld
00000006  8F                db 0x8f
00000007  89EC              mov esp,ebp
00000009  E87501E843        call 0x43e80183
0000000E  01EB              add ebx,ebp
00000010  FE                db 0xfe
00000011  60                pusha
00000012  B40E              mov ah,0xe
00000014  8A07              mov al,[edi]
00000016  CD10              int 0x10
00000018  43                inc ebx
00000019  803F00            cmp byte [edi],0x0
0000001C  75F6              jnz 0x14
0000001E  61                popa
0000001F  C3                ret
00000020  60                pusha
00000021  B40E              mov ah,0xe
00000023  E8EBFFB00D        call 0xdb10013
00000028  CD10              int 0x10
0000002A  B00A              mov al,0xa
0000002C  CD10              int 0x10
0000002E  61                popa
0000002F  C3                ret
00000030  60                pusha
00000031  E80C00B40E        call 0xeb40042
00000036  B00D              mov al,0xd
00000038  CD10              int 0x10
0000003A  B00A              mov al,0xa
0000003C  CD10              int 0x10
0000003E  61                popa
0000003F  C3                ret
00000040  60                pusha
00000041  88D0              mov al,dl
00000043  E81300A374        call 0x74a3005b
00000048  7C88              jl 0xffffffd2
0000004A  F0E80B00A372      lock call 0x72a3005b
00000050  7CBB              jl 0xd
00000052  707C              jo 0xd0
00000054  E8BAFF61C3        call 0xc3620013
00000059  89C3              mov ebx,eax
0000005B  83E30F            and ebx,byte +0xf
0000005E  8AA7777C89C3      mov ah,[edi-0x3c768389]
00000064  81E3F000C1EB      and ebx,0xebc100f0
0000006A  048A              add al,0x8a
0000006C  87777C            xchg esi,[edi+0x7c]
0000006F  C3                ret
00000070  307830            xor [eax+0x30],bh
00000073  3030              xor [eax],dh
00000075  3000              xor [eax],al
00000077  3031              xor [ecx],dh
00000079  3233              xor dh,[ebx]
0000007B  3435              xor al,0x35
0000007D  3637              ss aaa
0000007F  3839              cmp [ecx],bh
00000081  61                popa
00000082  626364            bound esp,[ebx+0x64]
00000085  656660            gs pushaw
00000088  BA00800B00        mov edx,0xb8000
0000008D  8A03              mov al,[ebx]
0000008F  B40F              mov ah,0xf
00000091  668902            mov [edx],ax
00000094  83C301            add ebx,byte +0x1
00000097  83C202            add edx,byte +0x2
0000009A  803B00            cmp byte [ebx],0x0
0000009D  75EE              jnz 0x8d
0000009F  61                popa
000000A0  C3                ret
000000A1  E8E1FFFFFF        call 0x87
000000A6  C3                ret
000000A7  60                pusha
000000A8  88D0              mov al,dl
000000AA  E81F000000        call 0xce
000000AF  66A3747C0000      mov [0x7c74],ax
000000B5  88F0              mov al,dh
000000B7  E812000000        call 0xce
000000BC  66A3727C0000      mov [0x7c72],ax
000000C2  BB707C0000        mov ebx,0x7c70
000000C7  E8BBFFFFFF        call 0x87
000000CC  61                popa
000000CD  C3                ret
000000CE  6689C3            mov bx,ax
000000D1  83E30F            and ebx,byte +0xf
000000D4  8AA3777C0000      mov ah,[ebx+0x7c77]
000000DA  6689C3            mov bx,ax
000000DD  81E3F0000000      and ebx,0xf0
000000E3  C1EB04            shr ebx,byte 0x4
000000E6  8A83777C0000      mov al,[ebx+0x7c77]
000000EC  C3                ret
000000ED  60                pusha
000000EE  6652              push dx
000000F0  B67F              mov dh,0x7f
000000F2  B402              mov ah,0x2
000000F4  88F0              mov al,dh
000000F6  B500              mov ch,0x0
000000F8  B600              mov dh,0x0
000000FA  B102              mov cl,0x2
000000FC  CD13              int 0x13
000000FE  665A              pop dx
00000100  7206              jc 0x108
00000102  38C6              cmp dh,al
00000104  750D              jnz 0x113
00000106  61                popa
00000107  C3                ret
00000108  66BB1E7D          mov bx,0x7d1e
0000010C  E80FFFFFFF        call 0x20
00000111  EBFE              jmp short 0x111
00000113  66BB287D          mov bx,0x7d28
00000117  E804FFFFFF        call 0x20
0000011C  EBFE              jmp short 0x11c
0000011E  45                inc ebp
0000011F  207265            and [edx+0x65],dh
00000122  61                popa
00000123  64696E6700526561  imul ebp,[fs:esi+0x67],dword 0x61655200
0000012B  6420696E          and [fs:ecx+0x6e],ch
0000012F  636F6D            arpl [edi+0x6d],bp
00000132  7000              jo 0x134
00000134  0000              add [eax],al
00000136  0000              add [eax],al
00000138  0000              add [eax],al
0000013A  0000              add [eax],al
0000013C  FF                db 0xff
0000013D  FF00              inc dword [eax]
0000013F  0000              add [eax],al
00000141  9ACF00FFFF0000    call 0x0:0xffff00cf
00000148  0092CF001700      add [edx+0x1700cf],dl
0000014E  347D              xor al,0x7d
00000150  0000              add [eax],al
00000152  FA                cli
00000153  0F0116            lgdt [esi]
00000156  4C                dec esp
00000157  7D0F              jnl 0x168
00000159  20C0              and al,al
0000015B  6683C801          or ax,byte +0x1
0000015F  0F22C0            mov cr0,eax
00000162  EA677D080066B8    jmp 0xb866:0x87d67
00000169  1000              adc [eax],al
0000016B  8ED8              mov ds,eax
0000016D  8ED0              mov ss,eax
0000016F  8EC0              mov es,eax
00000171  8EE0              mov fs,eax
00000173  8EE8              mov gs,eax
00000175  BDFC8F0000        mov ebp,0x8ffc
0000017A  89EC              mov esp,ebp
0000017C  E813000000        call 0x194
00000181  BB9C7DE899        mov ebx,0x99e87d9c
00000186  FE                db 0xfe
00000187  BB0090B67F        mov ebx,0x7fb69000
0000018C  8A16              mov dl,[esi]
0000018E  9B7DE8            wait jnl 0x179
00000191  5A                pop edx
00000192  FFC3              inc ebx
00000194  E867120000        call 0x1400
00000199  EBFE              jmp short 0x199
0000019B  004C6F61          add [edi+ebp*2+0x61],cl
0000019F  64696E67206B6572  imul ebp,[fs:esi+0x67],dword 0x72656b20
000001A7  6E                outsb
000001A8  656C              gs insb
000001AA  20696E            and [ecx+0x6e],ch
000001AD  206D65            and [ebp+0x65],ch
000001B0  6D                insd
000001B1  6F                outsd
000001B2  7279              jc 0x22d
000001B4  00456E            add [ebp+0x6e],al
000001B7  7465              jz 0x21e
000001B9  7265              jc 0x220
000001BB  642033            and [fs:ebx],dh
000001BE  322D62697420      xor ch,[dword 0x20746962]
000001C4  50                push eax
000001C5  4D                dec ebp
000001C6  0000              add [eax],al
000001C8  0000              add [eax],al
000001CA  0000              add [eax],al
000001CC  0000              add [eax],al
000001CE  0000              add [eax],al
000001D0  0000              add [eax],al
000001D2  0000              add [eax],al
000001D4  0000              add [eax],al
000001D6  0000              add [eax],al
000001D8  0000              add [eax],al
000001DA  0000              add [eax],al
000001DC  0000              add [eax],al
000001DE  0000              add [eax],al
000001E0  0000              add [eax],al
000001E2  0000              add [eax],al
000001E4  0000              add [eax],al
000001E6  0000              add [eax],al
000001E8  0000              add [eax],al
000001EA  0000              add [eax],al
000001EC  0000              add [eax],al
000001EE  0000              add [eax],al
000001F0  0000              add [eax],al
000001F2  0000              add [eax],al
000001F4  0000              add [eax],al
000001F6  0000              add [eax],al
000001F8  0000              add [eax],al
000001FA  0000              add [eax],al
000001FC  0000              add [eax],al
000001FE  55                push ebp
000001FF  AA                stosb
00000200  53                push ebx
00000201  57                push edi
00000202  56                push esi
00000203  83EC18            sub esp,byte +0x18
00000206  31FF              xor edi,edi
00000208  47                inc edi
00000209  893D3CFA0000      mov [dword 0xfa3c],edi
0000020F  C60540FA000000    mov byte [dword 0xfa40],0x0
00000216  832544FA000000    and dword [dword 0xfa44],byte +0x0
0000021D  C70548FA00000080  mov dword [dword 0xfa48],0xb8000
         -0B00
00000227  C6054CFA00000F    mov byte [dword 0xfa4c],0xf
0000022E  E8FA180000        call 0x1b2d
00000233  E869050000        call 0x7a1
00000238  89E6              mov esi,esp
0000023A  C706D0E20000      mov dword [esi],0xe2d0
00000240  897E04            mov [esi+0x4],edi
00000243  83661000          and dword [esi+0x10],byte +0x0
00000247  BBF4E70000        mov ebx,0xe7f4
0000024C  895E08            mov [esi+0x8],ebx
0000024F  83660C00          and dword [esi+0xc],byte +0x0
00000253  89F1              mov ecx,esi
00000255  E8C9050000        call 0x823
0000025A  6A07              push byte +0x7
0000025C  59                pop ecx
0000025D  E8A8050000        call 0x80a
00000262  C70628E30000      mov dword [esi],0xe328
00000268  897E04            mov [esi+0x4],edi
0000026B  83661000          and dword [esi+0x10],byte +0x0
0000026F  895E08            mov [esi+0x8],ebx
00000272  83660C00          and dword [esi+0xc],byte +0x0
00000276  89E1              mov ecx,esp
00000278  E8A6050000        call 0x823
0000027D  E8231D0000        call 0x1fa5
00000282  E81B1D0000        call 0x1fa2
00000287  6690              xchg ax,ax
00000289  6690              xchg ax,ax
0000028B  6690              xchg ax,ax
0000028D  6690              xchg ax,ax
0000028F  90                nop
00000290  E86BFFFFFF        call 0x200
00000295  EBFE              jmp short 0x295
00000297  6690              xchg ax,ax
00000299  6690              xchg ax,ax
0000029B  6690              xchg ax,ax
0000029D  6690              xchg ax,ax
0000029F  90                nop
000002A0  E85BFFFFFF        call 0x200
000002A5  EBFE              jmp short 0x2a5
000002A7  90                nop
000002A8  8B542408          mov edx,[esp+0x8]
000002AC  8B442404          mov eax,[esp+0x4]
000002B0  0FB608            movzx ecx,byte [eax]
000002B3  E9C0390000        jmp 0x3c78
000002B8  8B542408          mov edx,[esp+0x8]
000002BC  8B442404          mov eax,[esp+0x4]
000002C0  8B00              mov eax,[eax]
000002C2  0FB608            movzx ecx,byte [eax]
000002C5  E9AE390000        jmp 0x3c78
000002CA  8B442404          mov eax,[esp+0x4]
000002CE  FF742408          push dword [esp+0x8]
000002D2  FF30              push dword [eax]
000002D4  E8E0010000        call 0x4b9
000002D9  59                pop ecx
000002DA  5A                pop edx
000002DB  C3                ret
000002DC  8B442404          mov eax,[esp+0x4]
000002E0  FF742408          push dword [esp+0x8]
000002E4  FF30              push dword [eax]
000002E6  E87C020000        call 0x567
000002EB  59                pop ecx
000002EC  5A                pop edx
000002ED  C3                ret
000002EE  55                push ebp
000002EF  53                push ebx
000002F0  57                push edi
000002F1  56                push esi
000002F2  50                push eax
000002F3  8B4C241C          mov ecx,[esp+0x1c]
000002F7  8B442418          mov eax,[esp+0x18]
000002FB  8B00              mov eax,[eax]
000002FD  8D7808            lea edi,[eax+0x8]
00000300  8D580C            lea ebx,[eax+0xc]
00000303  8D6810            lea ebp,[eax+0x10]
00000306  8D5011            lea edx,[eax+0x11]
00000309  89E6              mov esi,esp
0000030B  8916              mov [esi],edx
0000030D  BAE4DE0000        mov edx,0xdee4
00000312  685CDF0000        push dword 0xdf5c
00000317  56                push esi
00000318  6A12              push byte +0x12
0000031A  6848DF0000        push dword 0xdf48
0000031F  6838DF0000        push dword 0xdf38
00000324  55                push ebp
00000325  6A0A              push byte +0xa
00000327  682CDF0000        push dword 0xdf2c
0000032C  681CDF0000        push dword 0xdf1c
00000331  53                push ebx
00000332  6A08              push byte +0x8
00000334  6840DC0000        push dword 0xdc40
00000339  680CDF0000        push dword 0xdf0c
0000033E  57                push edi
0000033F  6A07              push byte +0x7
00000341  5E                pop esi
00000342  56                push esi
00000343  6804DF0000        push dword 0xdf04
00000348  68F4DE0000        push dword 0xdef4
0000034D  50                push eax
0000034E  6A07              push byte +0x7
00000350  58                pop eax
00000351  50                push eax
00000352  68EDDE0000        push dword 0xdeed
00000357  6A09              push byte +0x9
00000359  E89C390000        call 0x3cfa
0000035E  83C458            add esp,byte +0x58
00000361  5E                pop esi
00000362  5F                pop edi
00000363  5B                pop ebx
00000364  5D                pop ebp
00000365  C3                ret
00000366  57                push edi
00000367  56                push esi
00000368  8B442410          mov eax,[esp+0x10]
0000036C  8B7014            mov esi,[eax+0x14]
0000036F  8B4018            mov eax,[eax+0x18]
00000372  8B780C            mov edi,[eax+0xc]
00000375  6A03              push byte +0x3
00000377  6800E80000        push dword 0xe800
0000037C  56                push esi
0000037D  FFD7              call edi
0000037F  83C40C            add esp,byte +0xc
00000382  84C0              test al,al
00000384  7404              jz 0x38a
00000386  B001              mov al,0x1
00000388  EB0D              jmp short 0x397
0000038A  6A07              push byte +0x7
0000038C  6802E90000        push dword 0xe902
00000391  56                push esi
00000392  FFD7              call edi
00000394  83C40C            add esp,byte +0xc
00000397  5E                pop esi
00000398  5F                pop edi
00000399  C3                ret
0000039A  55                push ebp
0000039B  53                push ebx
0000039C  57                push edi
0000039D  56                push esi
0000039E  83EC0C            sub esp,byte +0xc
000003A1  8B7C2424          mov edi,[esp+0x24]
000003A5  8B442420          mov eax,[esp+0x20]
000003A9  8B28              mov ebp,[eax]
000003AB  8D5D08            lea ebx,[ebp+0x8]
000003AE  8D450C            lea eax,[ebp+0xc]
000003B1  89E1              mov ecx,esp
000003B3  8901              mov [ecx],eax
000003B5  8B4718            mov eax,[edi+0x18]
000003B8  6A08              push byte +0x8
000003BA  6838DC0000        push dword 0xdc38
000003BF  FF7714            push dword [edi+0x14]
000003C2  FF500C            call [eax+0xc]
000003C5  83C40C            add esp,byte +0xc
000003C8  8D742404          lea esi,[esp+0x4]
000003CC  893E              mov [esi],edi
000003CE  884604            mov [esi+0x4],al
000003D1  C6460500          mov byte [esi+0x5],0x0
000003D5  6A04              push byte +0x4
000003D7  5F                pop edi
000003D8  89F1              mov ecx,esi
000003DA  BA39DD0000        mov edx,0xdd39
000003DF  68B0DE0000        push dword 0xdeb0
000003E4  55                push ebp
000003E5  57                push edi
000003E6  E8B5320000        call 0x36a0
000003EB  83C40C            add esp,byte +0xc
000003EE  89F1              mov ecx,esi
000003F0  BA3DDD0000        mov edx,0xdd3d
000003F5  68C0DE0000        push dword 0xdec0
000003FA  53                push ebx
000003FB  57                push edi
000003FC  E89F320000        call 0x36a0
00000401  83C40C            add esp,byte +0xc
00000404  89F1              mov ecx,esi
00000406  BAD0DE0000        mov edx,0xded0
0000040B  68D4DE0000        push dword 0xded4
00000410  8D442404          lea eax,[esp+0x4]
00000414  50                push eax
00000415  6A03              push byte +0x3
00000417  E884320000        call 0x36a0
0000041C  83C40C            add esp,byte +0xc
0000041F  89F1              mov ecx,esi
00000421  E88E300000        call 0x34b4
00000426  83C40C            add esp,byte +0xc
00000429  5E                pop esi
0000042A  5F                pop edi
0000042B  5B                pop ebx
0000042C  5D                pop ebp
0000042D  C3                ret
0000042E  8B442408          mov eax,[esp+0x8]
00000432  8B4C2404          mov ecx,[esp+0x4]
00000436  8B09              mov ecx,[ecx]
00000438  8B09              mov ecx,[ecx]
0000043A  8B5014            mov edx,[eax+0x14]
0000043D  FF7018            push dword [eax+0x18]
00000440  E8CD290000        call 0x2e12
00000445  59                pop ecx
00000446  C3                ret
00000447  56                push esi
00000448  83EC30            sub esp,byte +0x30
0000044B  8B44243C          mov eax,[esp+0x3c]
0000044F  8B4C2438          mov ecx,[esp+0x38]
00000453  8B11              mov edx,[ecx]
00000455  8D7208            lea esi,[edx+0x8]
00000458  8D4C2418          lea ecx,[esp+0x18]
0000045C  8911              mov [ecx],edx
0000045E  83C20C            add edx,byte +0xc
00000461  C74104EABB0000    mov dword [ecx+0x4],0xbbea
00000468  897108            mov [ecx+0x8],esi
0000046B  BE9ABE0000        mov esi,0xbe9a
00000470  89710C            mov [ecx+0xc],esi
00000473  895110            mov [ecx+0x10],edx
00000476  897114            mov [ecx+0x14],esi
00000479  89E6              mov esi,esp
0000047B  C70660E80000      mov dword [esi],0xe860
00000481  6A03              push byte +0x3
00000483  5A                pop edx
00000484  895604            mov [esi+0x4],edx
00000487  83661000          and dword [esi+0x10],byte +0x0
0000048B  894E08            mov [esi+0x8],ecx
0000048E  89560C            mov [esi+0xc],edx
00000491  8B4814            mov ecx,[eax+0x14]
00000494  8B5018            mov edx,[eax+0x18]
00000497  56                push esi
00000498  E8962B0000        call 0x3033
0000049D  83C434            add esp,byte +0x34
000004A0  5E                pop esi
000004A1  C3                ret
000004A2  8B442408          mov eax,[esp+0x8]
000004A6  8B4C2404          mov ecx,[esp+0x4]
000004AA  8B09              mov ecx,[ecx]
000004AC  8B5014            mov edx,[eax+0x14]
000004AF  FF7018            push dword [eax+0x18]
000004B2  E85B290000        call 0x2e12
000004B7  59                pop ecx
000004B8  C3                ret
000004B9  57                push edi
000004BA  56                push esi
000004BB  81EC80000000      sub esp,0x80
000004C1  8BB42490000000    mov esi,[esp+0x90]
000004C8  8B84248C000000    mov eax,[esp+0x8c]
000004CF  8B4E1C            mov ecx,[esi+0x1c]
000004D2  F6C110            test cl,0x10
000004D5  7517              jnz 0x4ee
000004D7  F6C120            test cl,0x20
000004DA  753D              jnz 0x519
000004DC  0FB608            movzx ecx,byte [eax]
000004DF  89F2              mov edx,esi
000004E1  81C480000000      add esp,0x80
000004E7  5E                pop esi
000004E8  5F                pop edi
000004E9  E99F200000        jmp 0x258d
000004EE  8A00              mov al,[eax]
000004F0  BA80000000        mov edx,0x80
000004F5  89C1              mov ecx,eax
000004F7  80E10F            and cl,0xf
000004FA  80F90A            cmp cl,0xa
000004FD  7205              jc 0x504
000004FF  80C157            add cl,0x57
00000502  EB03              jmp short 0x507
00000504  80C930            or cl,0x30
00000507  88C4              mov ah,al
00000509  C0EC04            shr ah,byte 0x4
0000050C  884C14FF          mov [esp+edx-0x1],cl
00000510  4A                dec edx
00000511  3C0F              cmp al,0xf
00000513  88E0              mov al,ah
00000515  77DE              ja 0x4f5
00000517  EB29              jmp short 0x542
00000519  8A00              mov al,[eax]
0000051B  BA80000000        mov edx,0x80
00000520  89C1              mov ecx,eax
00000522  80E10F            and cl,0xf
00000525  80F90A            cmp cl,0xa
00000528  7205              jc 0x52f
0000052A  80C137            add cl,0x37
0000052D  EB03              jmp short 0x532
0000052F  80C930            or cl,0x30
00000532  88C4              mov ah,al
00000534  C0EC04            shr ah,byte 0x4
00000537  884C14FF          mov [esp+edx-0x1],cl
0000053B  4A                dec edx
0000053C  3C0F              cmp al,0xf
0000053E  88E0              mov al,ah
00000540  77DE              ja 0x520
00000542  89E1              mov ecx,esp
00000544  E8C12A0000        call 0x300a
00000549  89D7              mov edi,edx
0000054B  89F1              mov ecx,esi
0000054D  BA13FA0000        mov edx,0xfa13
00000552  57                push edi
00000553  50                push eax
00000554  6A02              push byte +0x2
00000556  E8E8200000        call 0x2643
0000055B  83C40C            add esp,byte +0xc
0000055E  81C480000000      add esp,0x80
00000564  5E                pop esi
00000565  5F                pop edi
00000566  C3                ret
00000567  57                push edi
00000568  56                push esi
00000569  81EC80000000      sub esp,0x80
0000056F  8BB42490000000    mov esi,[esp+0x90]
00000576  8B84248C000000    mov eax,[esp+0x8c]
0000057D  8B4E1C            mov ecx,[esi+0x1c]
00000580  F6C110            test cl,0x10
00000583  7517              jnz 0x59c
00000585  F6C120            test cl,0x20
00000588  7524              jnz 0x5ae
0000058A  0FB708            movzx ecx,word [eax]
0000058D  89F2              mov edx,esi
0000058F  81C480000000      add esp,0x80
00000595  5E                pop esi
00000596  5F                pop edi
00000597  E9F11F0000        jmp 0x258d
0000059C  0FB708            movzx ecx,word [eax]
0000059F  89F2              mov edx,esi
000005A1  81C480000000      add esp,0x80
000005A7  5E                pop esi
000005A8  5F                pop edi
000005A9  E94A2F0000        jmp 0x34f8
000005AE  0FB700            movzx eax,word [eax]
000005B1  BA80000000        mov edx,0x80
000005B6  89C1              mov ecx,eax
000005B8  80E10F            and cl,0xf
000005BB  80F90A            cmp cl,0xa
000005BE  7205              jc 0x5c5
000005C0  80C137            add cl,0x37
000005C3  EB03              jmp short 0x5c8
000005C5  80C930            or cl,0x30
000005C8  0FB7F8            movzx edi,ax
000005CB  C1EF04            shr edi,byte 0x4
000005CE  884C14FF          mov [esp+edx-0x1],cl
000005D2  4A                dec edx
000005D3  6683F80F          cmp ax,byte +0xf
000005D7  89F8              mov eax,edi
000005D9  77DB              ja 0x5b6
000005DB  89E1              mov ecx,esp
000005DD  E8282A0000        call 0x300a
000005E2  89D7              mov edi,edx
000005E4  89F1              mov ecx,esi
000005E6  BA13FA0000        mov edx,0xfa13
000005EB  57                push edi
000005EC  50                push eax
000005ED  6A02              push byte +0x2
000005EF  E84F200000        call 0x2643
000005F4  81C48C000000      add esp,0x8c
000005FA  5E                pop esi
000005FB  5F                pop edi
000005FC  C3                ret
000005FD  8B542408          mov edx,[esp+0x8]
00000601  8B4A1C            mov ecx,[edx+0x1c]
00000604  F6C110            test cl,0x10
00000607  0F852B2A0000      jnz near 0x3038
0000060D  8B442404          mov eax,[esp+0x4]
00000611  F6C120            test cl,0x20
00000614  750A              jnz 0x620
00000616  52                push edx
00000617  50                push eax
00000618  E87D2A0000        call 0x309a
0000061D  59                pop ecx
0000061E  5A                pop edx
0000061F  C3                ret
00000620  8B08              mov ecx,[eax]
00000622  E9822A0000        jmp 0x30a9
00000627  50                push eax
00000628  8B4C240C          mov ecx,[esp+0xc]
0000062C  8B442408          mov eax,[esp+0x8]
00000630  83242400          and dword [esp],byte +0x0
00000634  81F980000000      cmp ecx,0x80
0000063A  730B              jnc 0x647
0000063C  880C24            mov [esp],cl
0000063F  31C9              xor ecx,ecx
00000641  41                inc ecx
00000642  E986000000        jmp 0x6cd
00000647  89CA              mov edx,ecx
00000649  81F900080000      cmp ecx,0x800
0000064F  7317              jnc 0x668
00000651  C1EA06            shr edx,byte 0x6
00000654  80CAC0            or dl,0xc0
00000657  881424            mov [esp],dl
0000065A  80E13F            and cl,0x3f
0000065D  80C980            or cl,0x80
00000660  884C2401          mov [esp+0x1],cl
00000664  6A02              push byte +0x2
00000666  EB64              jmp short 0x6cc
00000668  81F900000100      cmp ecx,0x10000
0000066E  7326              jnc 0x696
00000670  C1EA0C            shr edx,byte 0xc
00000673  80CAE0            or dl,0xe0
00000676  881424            mov [esp],dl
00000679  89CA              mov edx,ecx
0000067B  C1EA06            shr edx,byte 0x6
0000067E  80E23F            and dl,0x3f
00000681  80CA80            or dl,0x80
00000684  88542401          mov [esp+0x1],dl
00000688  80E13F            and cl,0x3f
0000068B  80C980            or cl,0x80
0000068E  884C2402          mov [esp+0x2],cl
00000692  6A03              push byte +0x3
00000694  EB36              jmp short 0x6cc
00000696  C1EA12            shr edx,byte 0x12
00000699  80E207            and dl,0x7
0000069C  80CAF0            or dl,0xf0
0000069F  881424            mov [esp],dl
000006A2  89CA              mov edx,ecx
000006A4  C1EA0C            shr edx,byte 0xc
000006A7  80E23F            and dl,0x3f
000006AA  80CA80            or dl,0x80
000006AD  88542401          mov [esp+0x1],dl
000006B1  89CA              mov edx,ecx
000006B3  C1EA06            shr edx,byte 0x6
000006B6  80E23F            and dl,0x3f
000006B9  80CA80            or dl,0x80
000006BC  88542402          mov [esp+0x2],dl
000006C0  80E13F            and cl,0x3f
000006C3  80C980            or cl,0x80
000006C6  884C2403          mov [esp+0x3],cl
000006CA  6A04              push byte +0x4
000006CC  59                pop ecx
000006CD  89E2              mov edx,esp
000006CF  51                push ecx
000006D0  52                push edx
000006D1  50                push eax
000006D2  E845020000        call 0x91c
000006D7  83C40C            add esp,byte +0xc
000006DA  59                pop ecx
000006DB  C3                ret
000006DC  8B4C2404          mov ecx,[esp+0x4]
000006E0  BA6CDF0000        mov edx,0xdf6c
000006E5  FF742408          push dword [esp+0x8]
000006E9  E838270000        call 0x2e26
000006EE  59                pop ecx
000006EF  C3                ret
000006F0  C3                ret
000006F1  C3                ret
000006F2  C3                ret
000006F3  C3                ret
000006F4  B101              mov cl,0x1
000006F6  31C0              xor eax,eax
000006F8  F00FB00D40FA0000  lock cmpxchg [dword 0xfa40],cl
00000700  740D              jz 0x70f
00000702  A040FA0000        mov al,[0xfa40]
00000707  84C0              test al,al
00000709  74EB              jz 0x6f6
0000070B  F390              pause
0000070D  EBF3              jmp short 0x702
0000070F  C3                ret
00000710  8B442408          mov eax,[esp+0x8]
00000714  8B4818            mov ecx,[eax+0x18]
00000717  6A05              push byte +0x5
00000719  68F4DB0000        push dword 0xdbf4
0000071E  FF7014            push dword [eax+0x14]
00000721  FF510C            call [ecx+0xc]
00000724  83C40C            add esp,byte +0xc
00000727  C3                ret
00000728  8B442408          mov eax,[esp+0x8]
0000072C  8B4C2404          mov ecx,[esp+0x4]
00000730  0FB609            movzx ecx,byte [ecx]
00000733  8B5018            mov edx,[eax+0x18]
00000736  FF348D5CE40000    push dword [ecx*4+0xe45c]
0000073D  FF348D28E60000    push dword [ecx*4+0xe628]
00000744  FF7014            push dword [eax+0x14]
00000747  FF520C            call [edx+0xc]
0000074A  83C40C            add esp,byte +0xc
0000074D  C3                ret
0000074E  56                push esi
0000074F  50                push eax
00000750  8B4C2410          mov ecx,[esp+0x10]
00000754  8B44240C          mov eax,[esp+0xc]
00000758  833800            cmp dword [eax],byte +0x0
0000075B  7418              jz 0x775
0000075D  89E6              mov esi,esp
0000075F  8906              mov [esi],eax
00000761  BA35DD0000        mov edx,0xdd35
00000766  682E920000        push dword 0x922e
0000076B  56                push esi
0000076C  6A04              push byte +0x4
0000076E  E840360000        call 0x3db3
00000773  EB10              jmp short 0x785
00000775  8B4118            mov eax,[ecx+0x18]
00000778  6A04              push byte +0x4
0000077A  6831DD0000        push dword 0xdd31
0000077F  FF7114            push dword [ecx+0x14]
00000782  FF500C            call [eax+0xc]
00000785  83C410            add esp,byte +0x10
00000788  5E                pop esi
00000789  C3                ret
0000078A  833D3CFA000000    cmp dword [dword 0xfa3c],byte +0x0
00000791  0F855DFFFFFF      jnz near 0x6f4
00000797  B99CDF0000        mov ecx,0xdf9c
0000079C  E82A340000        call 0x3bcb
000007A1  56                push esi
000007A2  FA                cli
000007A3  E8E2FFFFFF        call 0x78a
000007A8  B944FA0000        mov ecx,0xfa44
000007AD  31D2              xor edx,edx
000007AF  E837010000        call 0x8eb
000007B4  BED0070000        mov esi,0x7d0
000007B9  83EE01            sub esi,byte +0x1
000007BC  7236              jc 0x7f4
000007BE  A144FA0000        mov eax,[0xfa44]
000007C3  3DD0070000        cmp eax,0x7d0
000007C8  720F              jc 0x7d9
000007CA  B944FA0000        mov ecx,0xfa44
000007CF  E8E6000000        call 0x8ba
000007D4  A144FA0000        mov eax,[0xfa44]
000007D9  8B0D48FA0000      mov ecx,[dword 0xfa48]
000007DF  C6044120          mov byte [ecx+eax*2],0x20
000007E3  C644410100        mov byte [ecx+eax*2+0x1],0x0
000007E8  B944FA0000        mov ecx,0xfa44
000007ED  E875000000        call 0x867
000007F2  EBC5              jmp short 0x7b9
000007F4  B944FA0000        mov ecx,0xfa44
000007F9  31D2              xor edx,edx
000007FB  E8EB000000        call 0x8eb
00000800  C60540FA000000    mov byte [dword 0xfa40],0x0
00000807  FB                sti
00000808  5E                pop esi
00000809  C3                ret
0000080A  53                push ebx
0000080B  89CB              mov ebx,ecx
0000080D  FA                cli
0000080E  E877FFFFFF        call 0x78a
00000813  881D4CFA0000      mov [dword 0xfa4c],bl
00000819  C60540FA000000    mov byte [dword 0xfa40],0x0
00000820  FB                sti
00000821  5B                pop ebx
00000822  C3                ret
00000823  56                push esi
00000824  50                push eax
00000825  FA                cli
00000826  833D3CFA000000    cmp dword [dword 0xfa3c],byte +0x0
0000082D  7425              jz 0x854
0000082F  89CE              mov esi,ecx
00000831  E8BEFEFFFF        call 0x6f4
00000836  56                push esi
00000837  6844FA0000        push dword 0xfa44
0000083C  E89BFEFFFF        call 0x6dc
00000841  59                pop ecx
00000842  5A                pop edx
00000843  84C0              test al,al
00000845  7517              jnz 0x85e
00000847  C60540FA000000    mov byte [dword 0xfa40],0x0
0000084E  FB                sti
0000084F  83C404            add esp,byte +0x4
00000852  5E                pop esi
00000853  C3                ret
00000854  B9ACDF0000        mov ecx,0xdfac
00000859  E86D330000        call 0x3bcb
0000085E  8D4C2403          lea ecx,[esp+0x3]
00000862  E8B6330000        call 0x3c1d
00000867  8B11              mov edx,[ecx]
00000869  42                inc edx
0000086A  8911              mov [ecx],edx
0000086C  81FACF070000      cmp edx,0x7cf
00000872  0F8673000000      jna near 0x8eb
00000878  C3                ret
00000879  55                push ebp
0000087A  53                push ebx
0000087B  57                push edi
0000087C  56                push esi
0000087D  89D6              mov esi,edx
0000087F  89CF              mov edi,ecx
00000881  8139D0070000      cmp dword [ecx],0x7d0
00000887  7207              jc 0x890
00000889  89F9              mov ecx,edi
0000088B  E82A000000        call 0x8ba
00000890  8A5C2418          mov bl,[esp+0x18]
00000894  8B6C2414          mov ebp,[esp+0x14]
00000898  85ED              test ebp,ebp
0000089A  7419              jz 0x8b5
0000089C  8B07              mov eax,[edi]
0000089E  8B4F04            mov ecx,[edi+0x4]
000008A1  8A16              mov dl,[esi]
000008A3  46                inc esi
000008A4  881441            mov [ecx+eax*2],dl
000008A7  885C4101          mov [ecx+eax*2+0x1],bl
000008AB  89F9              mov ecx,edi
000008AD  E8B5FFFFFF        call 0x867
000008B2  4D                dec ebp
000008B3  EBE3              jmp short 0x898
000008B5  5E                pop esi
000008B6  5F                pop edi
000008B7  5B                pop ebx
000008B8  5D                pop ebp
000008B9  C3                ret
000008BA  53                push ebx
000008BB  8B4104            mov eax,[ecx+0x4]
000008BE  BA30F8FFFF        mov edx,0xfffff830
000008C3  85D2              test edx,edx
000008C5  741F              jz 0x8e6
000008C7  8A9C5040100000    mov bl,[eax+edx*2+0x1040]
000008CE  8ABC5041100000    mov bh,[eax+edx*2+0x1041]
000008D5  889C50A00F0000    mov [eax+edx*2+0xfa0],bl
000008DC  88BC50A10F0000    mov [eax+edx*2+0xfa1],bh
000008E3  42                inc edx
000008E4  EBDD              jmp short 0x8c3
000008E6  8301B0            add dword [ecx],byte -0x50
000008E9  5B                pop ebx
000008EA  C3                ret
000008EB  53                push ebx
000008EC  89D3              mov ebx,edx
000008EE  0FB7C3            movzx eax,bx
000008F1  8901              mov [ecx],eax
000008F3  663DD007          cmp ax,0x7d0
000008F7  7205              jc 0x8fe
000008F9  E8BCFFFFFF        call 0x8ba
000008FE  B00E              mov al,0xe
00000900  66BAD403          mov dx,0x3d4
00000904  EE                out dx,al
00000905  88F8              mov al,bh
00000907  66BAD503          mov dx,0x3d5
0000090B  EE                out dx,al
0000090C  B00F              mov al,0xf
0000090E  66BAD403          mov dx,0x3d4
00000912  EE                out dx,al
00000913  89D8              mov eax,ebx
00000915  66BAD503          mov dx,0x3d5
00000919  EE                out dx,al
0000091A  5B                pop ebx
0000091B  C3                ret
0000091C  55                push ebp
0000091D  53                push ebx
0000091E  57                push edi
0000091F  56                push esi
00000920  50                push eax
00000921  817C2420D0070000  cmp dword [esp+0x20],0x7d0
00000929  7613              jna 0x93e
0000092B  817C2420D1070000  cmp dword [esp+0x20],0x7d1
00000933  0F93C0            setnc al
00000936  83C404            add esp,byte +0x4
00000939  5E                pop esi
0000093A  5F                pop edi
0000093B  5B                pop ebx
0000093C  5D                pop ebp
0000093D  C3                ret
0000093E  8B6C241C          mov ebp,[esp+0x1c]
00000942  8B742418          mov esi,[esp+0x18]
00000946  8B5C2420          mov ebx,[esp+0x20]
0000094A  6A50              push byte +0x50
0000094C  5F                pop edi
0000094D  85DB              test ebx,ebx
0000094F  74DA              jz 0x92b
00000951  8A4500            mov al,[ebp+0x0]
00000954  89C1              mov ecx,eax
00000956  80C1F7            add cl,0xf7
00000959  80F902            cmp cl,0x2
0000095C  89C1              mov ecx,eax
0000095E  7202              jc 0x962
00000960  B1FE              mov cl,0xfe
00000962  89C2              mov edx,eax
00000964  80C2E0            add dl,0xe0
00000967  80FA5F            cmp dl,0x5f
0000096A  7202              jc 0x96e
0000096C  89C8              mov eax,ecx
0000096E  3C09              cmp al,0x9
00000970  741F              jz 0x991
00000972  0FB6C8            movzx ecx,al
00000975  83F90A            cmp ecx,byte +0xa
00000978  7525              jnz 0x99f
0000097A  8B0E              mov ecx,[esi]
0000097C  89C8              mov eax,ecx
0000097E  31D2              xor edx,edx
00000980  F7F7              div edi
00000982  F7DA              neg edx
00000984  8D541150          lea edx,[ecx+edx+0x50]
00000988  89F1              mov ecx,esi
0000098A  E85CFFFFFF        call 0x8eb
0000098F  EB24              jmp short 0x9b5
00000991  89F1              mov ecx,esi
00000993  BA41DD0000        mov edx,0xdd41
00000998  FF7608            push dword [esi+0x8]
0000099B  6A04              push byte +0x4
0000099D  EB0F              jmp short 0x9ae
0000099F  88442403          mov [esp+0x3],al
000009A3  89F1              mov ecx,esi
000009A5  8D542403          lea edx,[esp+0x3]
000009A9  FF7608            push dword [esi+0x8]
000009AC  6A01              push byte +0x1
000009AE  E8C6FEFFFF        call 0x879
000009B3  58                pop eax
000009B4  59                pop ecx
000009B5  45                inc ebp
000009B6  4B                dec ebx
000009B7  EB94              jmp short 0x94d
000009B9  55                push ebp
000009BA  89E5              mov ebp,esp
000009BC  56                push esi
000009BD  52                push edx
000009BE  51                push ecx
000009BF  50                push eax
000009C0  83E4F0            and esp,byte -0x10
000009C3  83EC40            sub esp,byte +0x40
000009C6  FC                cld
000009C7  8D4D04            lea ecx,[ebp+0x4]
000009CA  89E0              mov eax,esp
000009CC  8908              mov [eax],ecx
000009CE  C7400482B20000    mov dword [eax+0x4],0xb282
000009D5  6A02              push byte +0x2
000009D7  59                pop ecx
000009D8  8D542420          lea edx,[esp+0x20]
000009DC  890A              mov [edx],ecx
000009DE  894A08            mov [edx+0x8],ecx
000009E1  C7421020000000    mov dword [edx+0x10],0x20
000009E8  83621400          and dword [edx+0x14],byte +0x0
000009EC  C7421814000000    mov dword [edx+0x18],0x14
000009F3  C6421C03          mov byte [edx+0x1c],0x3
000009F7  8D4C2408          lea ecx,[esp+0x8]
000009FB  C701E8DF0000      mov dword [ecx],0xdfe8
00000A01  31F6              xor esi,esi
00000A03  46                inc esi
00000A04  897104            mov [ecx+0x4],esi
00000A07  895110            mov [ecx+0x10],edx
00000A0A  897114            mov [ecx+0x14],esi
00000A0D  894108            mov [ecx+0x8],eax
00000A10  89710C            mov [ecx+0xc],esi
00000A13  BA0CE00000        mov edx,0xe00c
00000A18  E8E21A0000        call 0x24ff
00000A1D  55                push ebp
00000A1E  89E5              mov ebp,esp
00000A20  57                push edi
00000A21  56                push esi
00000A22  52                push edx
00000A23  51                push ecx
00000A24  53                push ebx
00000A25  50                push eax
00000A26  83E4F0            and esp,byte -0x10
00000A29  83EC70            sub esp,byte +0x70
00000A2C  FC                cld
00000A2D  FA                cli
00000A2E  E857FDFFFF        call 0x78a
00000A33  A14CFA0000        mov eax,[0xfa4c]
00000A38  89442404          mov [esp+0x4],eax
00000A3C  C60540FA000000    mov byte [dword 0xfa40],0x0
00000A43  FB                sti
00000A44  6A04              push byte +0x4
00000A46  59                pop ecx
00000A47  E8BEFDFFFF        call 0x80a
00000A4C  8D4D04            lea ecx,[ebp+0x4]
00000A4F  8D442408          lea eax,[esp+0x8]
00000A53  8908              mov [eax],ecx
00000A55  C7400438BE0000    mov dword [eax+0x4],0xbe38
00000A5C  894808            mov [eax+0x8],ecx
00000A5F  C7400C82B20000    mov dword [eax+0xc],0xb282
00000A66  6A02              push byte +0x2
00000A68  5A                pop edx
00000A69  8D7C2430          lea edi,[esp+0x30]
00000A6D  8917              mov [edi],edx
00000A6F  895708            mov [edi+0x8],edx
00000A72  6A20              push byte +0x20
00000A74  59                pop ecx
00000A75  894F10            mov [edi+0x10],ecx
00000A78  83671400          and dword [edi+0x14],byte +0x0
00000A7C  C7471804000000    mov dword [edi+0x18],0x4
00000A83  B303              mov bl,0x3
00000A85  885F1C            mov [edi+0x1c],bl
00000A88  895720            mov [edi+0x20],edx
00000A8B  895728            mov [edi+0x28],edx
00000A8E  894F30            mov [edi+0x30],ecx
00000A91  31F6              xor esi,esi
00000A93  46                inc esi
00000A94  897734            mov [edi+0x34],esi
00000A97  C7473814000000    mov dword [edi+0x38],0x14
00000A9E  885F3C            mov [edi+0x3c],bl
00000AA1  8D4C2418          lea ecx,[esp+0x18]
00000AA5  C70138E00000      mov dword [ecx],0xe038
00000AAB  C7410403000000    mov dword [ecx+0x4],0x3
00000AB2  897910            mov [ecx+0x10],edi
00000AB5  895114            mov [ecx+0x14],edx
00000AB8  894108            mov [ecx+0x8],eax
00000ABB  89510C            mov [ecx+0xc],edx
00000ABE  E860FDFFFF        call 0x823
00000AC3  8B4C2404          mov ecx,[esp+0x4]
00000AC7  E83EFDFFFF        call 0x80a
00000ACC  6687DB            xchg bx,bx
00000ACF  C70760E00000      mov dword [edi],0xe060
00000AD5  897704            mov [edi+0x4],esi
00000AD8  83671000          and dword [edi+0x10],byte +0x0
00000ADC  89E0              mov eax,esp
00000ADE  894708            mov [edi+0x8],eax
00000AE1  83670C00          and dword [edi+0xc],byte +0x0
00000AE5  8D4C2430          lea ecx,[esp+0x30]
00000AE9  E835FDFFFF        call 0x823
00000AEE  8D65E8            lea esp,[ebp-0x18]
00000AF1  58                pop eax
00000AF2  5B                pop ebx
00000AF3  59                pop ecx
00000AF4  5A                pop edx
00000AF5  5E                pop esi
00000AF6  5F                pop edi
00000AF7  5D                pop ebp
00000AF8  CF                iret
00000AF9  55                push ebp
00000AFA  89E5              mov ebp,esp
00000AFC  57                push edi
00000AFD  56                push esi
00000AFE  52                push edx
00000AFF  51                push ecx
00000B00  53                push ebx
00000B01  50                push eax
00000B02  83E4F0            and esp,byte -0x10
00000B05  81EC90000000      sub esp,0x90
00000B0B  FC                cld
00000B0C  6687DB            xchg bx,bx
00000B0F  8D4D08            lea ecx,[ebp+0x8]
00000B12  8D442418          lea eax,[esp+0x18]
00000B16  8908              mov [eax],ecx
00000B18  BAFD930000        mov edx,0x93fd
00000B1D  895004            mov [eax+0x4],edx
00000B20  894808            mov [eax+0x8],ecx
00000B23  C7400C82B20000    mov dword [eax+0xc],0xb282
00000B2A  8D4D04            lea ecx,[ebp+0x4]
00000B2D  894810            mov [eax+0x10],ecx
00000B30  895014            mov [eax+0x14],edx
00000B33  6A02              push byte +0x2
00000B35  59                pop ecx
00000B36  8D542430          lea edx,[esp+0x30]
00000B3A  890A              mov [edx],ecx
00000B3C  894A08            mov [edx+0x8],ecx
00000B3F  6A20              push byte +0x20
00000B41  5E                pop esi
00000B42  897210            mov [edx+0x10],esi
00000B45  83621400          and dword [edx+0x14],byte +0x0
00000B49  6A14              push byte +0x14
00000B4B  5F                pop edi
00000B4C  897A18            mov [edx+0x18],edi
00000B4F  B303              mov bl,0x3
00000B51  885A1C            mov [edx+0x1c],bl
00000B54  894A20            mov [edx+0x20],ecx
00000B57  894A28            mov [edx+0x28],ecx
00000B5A  897230            mov [edx+0x30],esi
00000B5D  C7423401000000    mov dword [edx+0x34],0x1
00000B64  897A38            mov [edx+0x38],edi
00000B67  885A3C            mov [edx+0x3c],bl
00000B6A  894A40            mov [edx+0x40],ecx
00000B6D  894A48            mov [edx+0x48],ecx
00000B70  897250            mov [edx+0x50],esi
00000B73  894A54            mov [edx+0x54],ecx
00000B76  897A58            mov [edx+0x58],edi
00000B79  885A5C            mov [edx+0x5c],bl
00000B7C  89E1              mov ecx,esp
00000B7E  C70180E00000      mov dword [ecx],0xe080
00000B84  6A03              push byte +0x3
00000B86  5E                pop esi
00000B87  897104            mov [ecx+0x4],esi
00000B8A  895110            mov [ecx+0x10],edx
00000B8D  897114            mov [ecx+0x14],esi
00000B90  894108            mov [ecx+0x8],eax
00000B93  89710C            mov [ecx+0xc],esi
00000B96  BA98E00000        mov edx,0xe098
00000B9B  E85F190000        call 0x24ff
00000BA0  55                push ebp
00000BA1  89E5              mov ebp,esp
00000BA3  52                push edx
00000BA4  50                push eax
00000BA5  83E4F0            and esp,byte -0x10
00000BA8  FC                cld
00000BA9  B020              mov al,0x20
00000BAB  66BA2000          mov dx,0x20
00000BAF  EE                out dx,al
00000BB0  8D65F8            lea esp,[ebp-0x8]
00000BB3  58                pop eax
00000BB4  5A                pop edx
00000BB5  5D                pop ebp
00000BB6  CF                iret
00000BB7  55                push ebp
00000BB8  89E5              mov ebp,esp
00000BBA  56                push esi
00000BBB  52                push edx
00000BBC  51                push ecx
00000BBD  53                push ebx
00000BBE  50                push eax
00000BBF  83E4F0            and esp,byte -0x10
00000BC2  83EC30            sub esp,byte +0x30
00000BC5  FC                cld
00000BC6  A110108101        mov eax,[0x1811010]
00000BCB  85C0              test eax,eax
00000BCD  7542              jnz 0xc11
00000BCF  31C9              xor ecx,ecx
00000BD1  41                inc ecx
00000BD2  31C0              xor eax,eax
00000BD4  F00FB10D10108101  lock cmpxchg [dword 0x1811010],ecx
00000BDC  7533              jnz 0xc11
00000BDE  66C7050010810101  mov word [dword 0x1811000],0x1
         -00
00000BE7  C6050210810100    mov byte [dword 0x1811002],0x0
00000BEE  83250410810100    and dword [dword 0x1811004],byte +0x0
00000BF5  83250810810100    and dword [dword 0x1811008],byte +0x0
00000BFC  C7050C1081010100  mov dword [dword 0x181100c],0x1000001
         -0001
00000C06  6A02              push byte +0x2
00000C08  58                pop eax
00000C09  870510108101      xchg eax,[dword 0x1811010]
00000C0F  EB15              jmp short 0xc26
00000C11  FF24855CD70000    jmp [eax*4+0xd75c]
00000C18  F390              pause
00000C1A  A110108101        mov eax,[0x1811010]
00000C1F  FF24855CD70000    jmp [eax*4+0xd75c]
00000C26  6A02              push byte +0x2
00000C28  5B                pop ebx
00000C29  B101              mov cl,0x1
00000C2B  31C0              xor eax,eax
00000C2D  F00FB00D02108101  lock cmpxchg [dword 0x1811002],cl
00000C35  740D              jz 0xc44
00000C37  A002108101        mov al,[0x1811002]
00000C3C  84C0              test al,al
00000C3E  74EB              jz 0xc2b
00000C40  F390              pause
00000C42  EBF3              jmp short 0xc37
00000C44  66BA6000          mov dx,0x60
00000C48  EC                in al,dx
00000C49  0FB61507108101    movzx edx,byte [dword 0x1811007]
00000C50  85D2              test edx,edx
00000C52  0FB6C8            movzx ecx,al
00000C55  741B              jz 0xc72
00000C57  83FA01            cmp edx,byte +0x1
00000C5A  0F85E70C0000      jnz near 0x1947
00000C60  C6050710810100    mov byte [dword 0x1811007],0x0
00000C67  84C0              test al,al
00000C69  7825              js 0xc90
00000C6B  E8F3370000        call 0x4463
00000C70  EB16              jmp short 0xc88
00000C72  3CE0              cmp al,0xe0
00000C74  7509              jnz 0xc7f
00000C76  C6050710810101    mov byte [dword 0x1811007],0x1
00000C7D  EB2B              jmp short 0xcaa
00000C7F  84C0              test al,al
00000C81  7819              js 0xc9c
00000C83  E8BD350000        call 0x4245
00000C88  A801              test al,0x1
00000C8A  751E              jnz 0xcaa
00000C8C  31C0              xor eax,eax
00000C8E  EB34              jmp short 0xcc4
00000C90  0480              add al,0x80
00000C92  0FB6C8            movzx ecx,al
00000C95  E8C9370000        call 0x4463
00000C9A  EB0A              jmp short 0xca6
00000C9C  0480              add al,0x80
00000C9E  0FB6C8            movzx ecx,al
00000CA1  E89F350000        call 0x4245
00000CA6  A801              test al,0x1
00000CA8  7418              jz 0xcc2
00000CAA  C6050210810100    mov byte [dword 0x1811002],0x0
00000CB1  B020              mov al,0x20
00000CB3  66BA2000          mov dx,0x20
00000CB7  EE                out dx,al
00000CB8  8D65EC            lea esp,[ebp-0x14]
00000CBB  58                pop eax
00000CBC  5B                pop ebx
00000CBD  59                pop ecx
00000CBE  5A                pop edx
00000CBF  5E                pop esi
00000CC0  5D                pop ebp
00000CC1  CF                iret
00000CC2  B001              mov al,0x1
00000CC4  80FA01            cmp dl,0x1
00000CC7  7432              jz 0xcfb
00000CC9  0FB6CA            movzx ecx,dl
00000CCC  83F90B            cmp ecx,byte +0xb
00000CCF  743B              jz 0xd0c
00000CD1  83F90D            cmp ecx,byte +0xd
00000CD4  7443              jz 0xd19
00000CD6  83F90E            cmp ecx,byte +0xe
00000CD9  744B              jz 0xd26
00000CDB  83F93A            cmp ecx,byte +0x3a
00000CDE  7456              jz 0xd36
00000CE0  83F946            cmp ecx,byte +0x46
00000CE3  7465              jz 0xd4a
00000CE5  83F947            cmp ecx,byte +0x47
00000CE8  7570              jnz 0xd5a
00000CEA  84C0              test al,al
00000CEC  0F8492000000      jz near 0xd84
00000CF2  C6050910810100    mov byte [dword 0x1811009],0x0
00000CF9  EBAF              jmp short 0xcaa
00000CFB  84C0              test al,al
00000CFD  0F848D000000      jz near 0xd90
00000D03  C6050E10810100    mov byte [dword 0x181100e],0x0
00000D0A  EB9E              jmp short 0xcaa
00000D0C  84C0              test al,al
00000D0E  759A              jnz 0xcaa
00000D10  80350D10810101    xor byte [dword 0x181100d],0x1
00000D17  EB91              jmp short 0xcaa
00000D19  84C0              test al,al
00000D1B  747F              jz 0xd9c
00000D1D  C6050A10810100    mov byte [dword 0x181100a],0x0
00000D24  EB84              jmp short 0xcaa
00000D26  84C0              test al,al
00000D28  747E              jz 0xda8
00000D2A  C6050B10810100    mov byte [dword 0x181100b],0x0
00000D31  E974FFFFFF        jmp 0xcaa
00000D36  84C0              test al,al
00000D38  0F856CFFFFFF      jnz near 0xcaa
00000D3E  80350C10810101    xor byte [dword 0x181100c],0x1
00000D45  E960FFFFFF        jmp 0xcaa
00000D4A  84C0              test al,al
00000D4C  7466              jz 0xdb4
00000D4E  C6050810810100    mov byte [dword 0x1811008],0x0
00000D55  E950FFFFFF        jmp 0xcaa
00000D5A  84C0              test al,al
00000D5C  0F8548FFFFFF      jnz near 0xcaa
00000D62  83C1FA            add ecx,byte -0x6
00000D65  83F961            cmp ecx,byte +0x61
00000D68  0F87BC000000      ja near 0xe2a
00000D6E  A00F108101        mov al,[0x181100f]
00000D73  6A08              push byte +0x8
00000D75  5E                pop esi
00000D76  FF248D6CD70000    jmp [ecx*4+0xd76c]
00000D7D  6A0A              push byte +0xa
00000D7F  E9D2090000        jmp 0x1756
00000D84  C6050910810101    mov byte [dword 0x1811009],0x1
00000D8B  E91AFFFFFF        jmp 0xcaa
00000D90  C6050E10810101    mov byte [dword 0x181100e],0x1
00000D97  E90EFFFFFF        jmp 0xcaa
00000D9C  C6050A10810101    mov byte [dword 0x181100a],0x1
00000DA3  E902FFFFFF        jmp 0xcaa
00000DA8  C6050B10810101    mov byte [dword 0x181100b],0x1
00000DAF  E9F6FEFFFF        jmp 0xcaa
00000DB4  C6050810810101    mov byte [dword 0x1811008],0x1
00000DBB  E9EAFEFFFF        jmp 0xcaa
00000DC0  A009108101        mov al,[0x1811009]
00000DC5  0A0508108101      or al,[dword 0x1811008]
00000DCB  0FB6D8            movzx ebx,al
00000DCE  C1E305            shl ebx,byte 0x5
00000DD1  83CB5C            or ebx,byte +0x5c
00000DD4  E97E090000        jmp 0x1757
00000DD9  89F3              mov ebx,esi
00000DDB  E977090000        jmp 0x1757
00000DE0  A009108101        mov al,[0x1811009]
00000DE5  0A0508108101      or al,[dword 0x1811008]
00000DEB  0F8436080000      jz near 0x1627
00000DF1  6A7E              push byte +0x7e
00000DF3  E95E090000        jmp 0x1756
00000DF8  A009108101        mov al,[0x1811009]
00000DFD  0A0508108101      or al,[dword 0x1811008]
00000E03  0FB6D8            movzx ebx,al
00000E06  C1E305            shl ebx,byte 0x5
00000E09  83CB5B            or ebx,byte +0x5b
00000E0C  E946090000        jmp 0x1757
00000E11  A009108101        mov al,[0x1811009]
00000E16  0A0508108101      or al,[dword 0x1811008]
00000E1C  0FB6D8            movzx ebx,al
00000E1F  C1E305            shl ebx,byte 0x5
00000E22  83CB5D            or ebx,byte +0x5d
00000E25  E92D090000        jmp 0x1757
00000E2A  C6050210810100    mov byte [dword 0x1811002],0x0
00000E31  E94B080000        jmp 0x1681
00000E36  A009108101        mov al,[0x1811009]
00000E3B  0A0508108101      or al,[dword 0x1811008]
00000E41  0FB6D8            movzx ebx,al
00000E44  C1E304            shl ebx,byte 0x4
00000E47  83CB2C            or ebx,byte +0x2c
00000E4A  E908090000        jmp 0x1757
00000E4F  6A1B              push byte +0x1b
00000E51  E900090000        jmp 0x1756
00000E56  A009108101        mov al,[0x1811009]
00000E5B  0A0508108101      or al,[dword 0x1811008]
00000E61  0F84C7070000      jz near 0x162e
00000E67  6A2B              push byte +0x2b
00000E69  E9E8080000        jmp 0x1756
00000E6E  A009108101        mov al,[0x1811009]
00000E73  0A0508108101      or al,[dword 0x1811008]
00000E79  0FB6D8            movzx ebx,al
00000E7C  C1E304            shl ebx,byte 0x4
00000E7F  83CB2E            or ebx,byte +0x2e
00000E82  E9D0080000        jmp 0x1757
00000E87  A009108101        mov al,[0x1811009]
00000E8C  31DB              xor ebx,ebx
00000E8E  0A0508108101      or al,[dword 0x1811008]
00000E94  0F94C3            setz bl
00000E97  C1E304            shl ebx,byte 0x4
00000E9A  83CB21            or ebx,byte +0x21
00000E9D  E9B5080000        jmp 0x1757
00000EA2  A009108101        mov al,[0x1811009]
00000EA7  0A0508108101      or al,[dword 0x1811008]
00000EAD  0F8482070000      jz near 0x1635
00000EB3  6A40              push byte +0x40
00000EB5  E99C080000        jmp 0x1756
00000EBA  A009108101        mov al,[0x1811009]
00000EBF  31DB              xor ebx,ebx
00000EC1  0A0508108101      or al,[dword 0x1811008]
00000EC7  0F94C3            setz bl
00000ECA  C1E304            shl ebx,byte 0x4
00000ECD  83CB23            or ebx,byte +0x23
00000ED0  E982080000        jmp 0x1757
00000ED5  A009108101        mov al,[0x1811009]
00000EDA  31DB              xor ebx,ebx
00000EDC  0A0508108101      or al,[dword 0x1811008]
00000EE2  0F94C3            setz bl
00000EE5  C1E304            shl ebx,byte 0x4
00000EE8  83CB24            or ebx,byte +0x24
00000EEB  E967080000        jmp 0x1757
00000EF0  A009108101        mov al,[0x1811009]
00000EF5  31DB              xor ebx,ebx
00000EF7  0A0508108101      or al,[dword 0x1811008]
00000EFD  0F94C3            setz bl
00000F00  C1E304            shl ebx,byte 0x4
00000F03  83CB25            or ebx,byte +0x25
00000F06  E94C080000        jmp 0x1757
00000F0B  A009108101        mov al,[0x1811009]
00000F10  0A0508108101      or al,[dword 0x1811008]
00000F16  0F8420070000      jz near 0x163c
00000F1C  6A5E              push byte +0x5e
00000F1E  E933080000        jmp 0x1756
00000F23  A009108101        mov al,[0x1811009]
00000F28  0A0508108101      or al,[dword 0x1811008]
00000F2E  0F840F070000      jz near 0x1643
00000F34  6A26              push byte +0x26
00000F36  E91B080000        jmp 0x1756
00000F3B  A009108101        mov al,[0x1811009]
00000F40  0A0508108101      or al,[dword 0x1811008]
00000F46  0F84FE060000      jz near 0x164a
00000F4C  6A2A              push byte +0x2a
00000F4E  E903080000        jmp 0x1756
00000F53  A009108101        mov al,[0x1811009]
00000F58  0A0508108101      or al,[dword 0x1811008]
00000F5E  0F84ED060000      jz near 0x1651
00000F64  6A28              push byte +0x28
00000F66  E9EB070000        jmp 0x1756
00000F6B  A009108101        mov al,[0x1811009]
00000F70  0A0508108101      or al,[dword 0x1811008]
00000F76  0F84DC060000      jz near 0x1658
00000F7C  6A29              push byte +0x29
00000F7E  E9D3070000        jmp 0x1756
00000F83  A009108101        mov al,[0x1811009]
00000F88  0A0508108101      or al,[dword 0x1811008]
00000F8E  7407              jz 0xf97
00000F90  6A5F              push byte +0x5f
00000F92  E9BF070000        jmp 0x1756
00000F97  6A2D              push byte +0x2d
00000F99  E9B8070000        jmp 0x1756
00000F9E  803D0C10810100    cmp byte [dword 0x181100c],0x0
00000FA5  C6050210810100    mov byte [dword 0x1811002],0x0
00000FAC  0F84AD060000      jz near 0x165f
00000FB2  6A30              push byte +0x30
00000FB4  E9CB000000        jmp 0x1084
00000FB9  803D0C10810100    cmp byte [dword 0x181100c],0x0
00000FC0  C6050210810100    mov byte [dword 0x1811002],0x0
00000FC7  0F8496060000      jz near 0x1663
00000FCD  6A31              push byte +0x31
00000FCF  E9B0000000        jmp 0x1084
00000FD4  803D0C10810100    cmp byte [dword 0x181100c],0x0
00000FDB  C6050210810100    mov byte [dword 0x1811002],0x0
00000FE2  0F847F060000      jz near 0x1667
00000FE8  6A32              push byte +0x32
00000FEA  E995000000        jmp 0x1084
00000FEF  803D0C10810100    cmp byte [dword 0x181100c],0x0
00000FF6  C6050210810100    mov byte [dword 0x1811002],0x0
00000FFD  0F8468060000      jz near 0x166b
00001003  6A33              push byte +0x33
00001005  EB7D              jmp short 0x1084
00001007  803D0C10810100    cmp byte [dword 0x181100c],0x0
0000100E  C6050210810100    mov byte [dword 0x1811002],0x0
00001015  0F8454060000      jz near 0x166f
0000101B  6A34              push byte +0x34
0000101D  EB65              jmp short 0x1084
0000101F  6A35              push byte +0x35
00001021  E930070000        jmp 0x1756
00001026  803D0C10810100    cmp byte [dword 0x181100c],0x0
0000102D  C6050210810100    mov byte [dword 0x1811002],0x0
00001034  0F8439060000      jz near 0x1673
0000103A  6A36              push byte +0x36
0000103C  EB46              jmp short 0x1084
0000103E  803D0C10810100    cmp byte [dword 0x181100c],0x0
00001045  C6050210810100    mov byte [dword 0x1811002],0x0
0000104C  0F8425060000      jz near 0x1677
00001052  6A37              push byte +0x37
00001054  EB2E              jmp short 0x1084
00001056  803D0C10810100    cmp byte [dword 0x181100c],0x0
0000105D  C6050210810100    mov byte [dword 0x1811002],0x0
00001064  0F8411060000      jz near 0x167b
0000106A  6A38              push byte +0x38
0000106C  EB16              jmp short 0x1084
0000106E  803D0C10810100    cmp byte [dword 0x181100c],0x0
00001075  C6050210810100    mov byte [dword 0x1811002],0x0
0000107C  0F84FD050000      jz near 0x167f
00001082  6A39              push byte +0x39
00001084  5B                pop ebx
00001085  E9D4060000        jmp 0x175e
0000108A  6A2F              push byte +0x2f
0000108C  E9C5060000        jmp 0x1756
00001091  803D0C10810100    cmp byte [dword 0x181100c],0x0
00001098  7407              jz 0x10a1
0000109A  6A2E              push byte +0x2e
0000109C  E9B5060000        jmp 0x1756
000010A1  6A7F              push byte +0x7f
000010A3  E9AE060000        jmp 0x1756
000010A8  A009108101        mov al,[0x1811009]
000010AD  31DB              xor ebx,ebx
000010AF  0A0508108101      or al,[dword 0x1811008]
000010B5  0F94C3            setz bl
000010B8  83CB3A            or ebx,byte +0x3a
000010BB  E997060000        jmp 0x1757
000010C0  A009108101        mov al,[0x1811009]
000010C5  0A0508108101      or al,[dword 0x1811008]
000010CB  0FB6D8            movzx ebx,al
000010CE  C1E304            shl ebx,byte 0x4
000010D1  83CB2F            or ebx,byte +0x2f
000010D4  E97E060000        jmp 0x1757
000010D9  6A20              push byte +0x20
000010DB  E976060000        jmp 0x1756
000010E0  A009108101        mov al,[0x1811009]
000010E5  31C9              xor ecx,ecx
000010E7  0A0508108101      or al,[dword 0x1811008]
000010ED  0F94C1            setz cl
000010F0  8D5C8922          lea ebx,[ecx+ecx*4+0x22]
000010F4  E95E060000        jmp 0x1757
000010F9  84C0              test al,al
000010FB  0F8496050000      jz near 0x1697
00001101  A009108101        mov al,[0x1811009]
00001106  0A0508108101      or al,[dword 0x1811008]
0000110C  0F95C0            setnz al
0000110F  803D0D10810100    cmp byte [dword 0x181100d],0x0
00001116  0F95C1            setnz cl
00001119  30C1              xor cl,al
0000111B  80F101            xor cl,0x1
0000111E  0FB6D9            movzx ebx,cl
00001121  C1E305            shl ebx,byte 0x5
00001124  83CB41            or ebx,byte +0x41
00001127  E92B060000        jmp 0x1757
0000112C  84C0              test al,al
0000112E  0F847C050000      jz near 0x16b0
00001134  A009108101        mov al,[0x1811009]
00001139  0A0508108101      or al,[dword 0x1811008]
0000113F  0F95C0            setnz al
00001142  803D0D10810100    cmp byte [dword 0x181100d],0x0
00001149  0F95C1            setnz cl
0000114C  30C1              xor cl,al
0000114E  80F101            xor cl,0x1
00001151  0FB6D9            movzx ebx,cl
00001154  C1E305            shl ebx,byte 0x5
00001157  83CB42            or ebx,byte +0x42
0000115A  E9F8050000        jmp 0x1757
0000115F  84C0              test al,al
00001161  0F845F050000      jz near 0x16c6
00001167  A009108101        mov al,[0x1811009]
0000116C  0A0508108101      or al,[dword 0x1811008]
00001172  0F95C0            setnz al
00001175  803D0D10810100    cmp byte [dword 0x181100d],0x0
0000117C  0F95C1            setnz cl
0000117F  30C1              xor cl,al
00001181  80F101            xor cl,0x1
00001184  0FB6D9            movzx ebx,cl
00001187  C1E305            shl ebx,byte 0x5
0000118A  83CB43            or ebx,byte +0x43
0000118D  E9C5050000        jmp 0x1757
00001192  84C0              test al,al
00001194  0F8441050000      jz near 0x16db
0000119A  A009108101        mov al,[0x1811009]
0000119F  0A0508108101      or al,[dword 0x1811008]
000011A5  0F95C0            setnz al
000011A8  803D0D10810100    cmp byte [dword 0x181100d],0x0
000011AF  0F95C1            setnz cl
000011B2  30C1              xor cl,al
000011B4  80F101            xor cl,0x1
000011B7  0FB6D9            movzx ebx,cl
000011BA  C1E305            shl ebx,byte 0x5
000011BD  83CB44            or ebx,byte +0x44
000011C0  E992050000        jmp 0x1757
000011C5  84C0              test al,al
000011C7  0F8423050000      jz near 0x16f0
000011CD  A009108101        mov al,[0x1811009]
000011D2  0A0508108101      or al,[dword 0x1811008]
000011D8  0F95C0            setnz al
000011DB  803D0D10810100    cmp byte [dword 0x181100d],0x0
000011E2  0F95C1            setnz cl
000011E5  30C1              xor cl,al
000011E7  80F101            xor cl,0x1
000011EA  0FB6D9            movzx ebx,cl
000011ED  C1E305            shl ebx,byte 0x5
000011F0  83CB45            or ebx,byte +0x45
000011F3  E95F050000        jmp 0x1757
000011F8  84C0              test al,al
000011FA  0F8405050000      jz near 0x1705
00001200  A009108101        mov al,[0x1811009]
00001205  0A0508108101      or al,[dword 0x1811008]
0000120B  0F95C0            setnz al
0000120E  803D0D10810100    cmp byte [dword 0x181100d],0x0
00001215  0F95C1            setnz cl
00001218  30C1              xor cl,al
0000121A  80F101            xor cl,0x1
0000121D  0FB6D9            movzx ebx,cl
00001220  C1E305            shl ebx,byte 0x5
00001223  83CB46            or ebx,byte +0x46
00001226  E92C050000        jmp 0x1757
0000122B  84C0              test al,al
0000122D  0F84E7040000      jz near 0x171a
00001233  A009108101        mov al,[0x1811009]
00001238  0A0508108101      or al,[dword 0x1811008]
0000123E  0F95C0            setnz al
00001241  803D0D10810100    cmp byte [dword 0x181100d],0x0
00001248  0F95C1            setnz cl
0000124B  30C1              xor cl,al
0000124D  80F101            xor cl,0x1
00001250  0FB6D9            movzx ebx,cl
00001253  C1E305            shl ebx,byte 0x5
00001256  83CB47            or ebx,byte +0x47
00001259  E9F9040000        jmp 0x1757
0000125E  84C0              test al,al
00001260  0F84C9040000      jz near 0x172f
00001266  A009108101        mov al,[0x1811009]
0000126B  0A0508108101      or al,[dword 0x1811008]
00001271  0F95C0            setnz al
00001274  803D0D10810100    cmp byte [dword 0x181100d],0x0
0000127B  0F95C1            setnz cl
0000127E  30C1              xor cl,al
00001280  80F101            xor cl,0x1
00001283  0FB6D9            movzx ebx,cl
00001286  C1E305            shl ebx,byte 0x5
00001289  83CB48            or ebx,byte +0x48
0000128C  E9C6040000        jmp 0x1757
00001291  84C0              test al,al
00001293  0F84AA040000      jz near 0x1743
00001299  A009108101        mov al,[0x1811009]
0000129E  0A0508108101      or al,[dword 0x1811008]
000012A4  0F95C0            setnz al
000012A7  803D0D10810100    cmp byte [dword 0x181100d],0x0
000012AE  0F95C1            setnz cl
000012B1  30C1              xor cl,al
000012B3  80F101            xor cl,0x1
000012B6  0FB6D9            movzx ebx,cl
000012B9  C1E305            shl ebx,byte 0x5
000012BC  83CB49            or ebx,byte +0x49
000012BF  E993040000        jmp 0x1757
000012C4  84C0              test al,al
000012C6  0F84C7040000      jz near 0x1793
000012CC  A009108101        mov al,[0x1811009]
000012D1  0A0508108101      or al,[dword 0x1811008]
000012D7  0F95C0            setnz al
000012DA  803D0D10810100    cmp byte [dword 0x181100d],0x0
000012E1  0F95C1            setnz cl
000012E4  30C1              xor cl,al
000012E6  80F101            xor cl,0x1
000012E9  0FB6D9            movzx ebx,cl
000012EC  C1E305            shl ebx,byte 0x5
000012EF  83CB4A            or ebx,byte +0x4a
000012F2  E960040000        jmp 0x1757
000012F7  84C0              test al,al
000012F9  0F84AA040000      jz near 0x17a9
000012FF  A009108101        mov al,[0x1811009]
00001304  0A0508108101      or al,[dword 0x1811008]
0000130A  0F95C0            setnz al
0000130D  803D0D10810100    cmp byte [dword 0x181100d],0x0
00001314  0F95C1            setnz cl
00001317  30C1              xor cl,al
00001319  80F101            xor cl,0x1
0000131C  0FB6D9            movzx ebx,cl
0000131F  C1E305            shl ebx,byte 0x5
00001322  83CB4B            or ebx,byte +0x4b
00001325  E92D040000        jmp 0x1757
0000132A  84C0              test al,al
0000132C  0F848C040000      jz near 0x17be
00001332  A009108101        mov al,[0x1811009]
00001337  0A0508108101      or al,[dword 0x1811008]
0000133D  0F95C0            setnz al
00001340  803D0D10810100    cmp byte [dword 0x181100d],0x0
00001347  0F95C1            setnz cl
0000134A  30C1              xor cl,al
0000134C  80F101            xor cl,0x1
0000134F  0FB6D9            movzx ebx,cl
00001352  C1E305            shl ebx,byte 0x5
00001355  83CB4C            or ebx,byte +0x4c
00001358  E9FA030000        jmp 0x1757
0000135D  84C0              test al,al
0000135F  0F846E040000      jz near 0x17d3
00001365  A009108101        mov al,[0x1811009]
0000136A  0A0508108101      or al,[dword 0x1811008]
00001370  0F95C0            setnz al
00001373  803D0D10810100    cmp byte [dword 0x181100d],0x0
0000137A  0F95C1            setnz cl
0000137D  30C1              xor cl,al
0000137F  80F101            xor cl,0x1
00001382  0FB6D9            movzx ebx,cl
00001385  C1E305            shl ebx,byte 0x5
00001388  83CB4D            or ebx,byte +0x4d
0000138B  E9C7030000        jmp 0x1757
00001390  84C0              test al,al
00001392  0F8453040000      jz near 0x17eb
00001398  A009108101        mov al,[0x1811009]
0000139D  0A0508108101      or al,[dword 0x1811008]
000013A3  0F95C0            setnz al
000013A6  803D0D10810100    cmp byte [dword 0x181100d],0x0
000013AD  0F95C1            setnz cl
000013B0  30C1              xor cl,al
000013B2  80F101            xor cl,0x1
000013B5  0FB6D9            movzx ebx,cl
000013B8  C1E305            shl ebx,byte 0x5
000013BB  83CB4E            or ebx,byte +0x4e
000013BE  E994030000        jmp 0x1757
000013C3  84C0              test al,al
000013C5  0F8438040000      jz near 0x1803
000013CB  A009108101        mov al,[0x1811009]
000013D0  0A0508108101      or al,[dword 0x1811008]
000013D6  0F95C0            setnz al
000013D9  803D0D10810100    cmp byte [dword 0x181100d],0x0
000013E0  0F95C1            setnz cl
000013E3  30C1              xor cl,al
000013E5  80F101            xor cl,0x1
000013E8  0FB6D9            movzx ebx,cl
000013EB  C1E305            shl ebx,byte 0x5
000013EE  83CB4F            or ebx,byte +0x4f
000013F1  E961030000        jmp 0x1757
000013F6  84C0              test al,al
000013F8  0F841D040000      jz near 0x181b
000013FE  A009108101        mov al,[0x1811009]
00001403  0A0508108101      or al,[dword 0x1811008]
00001409  0F95C0            setnz al
0000140C  803D0D10810100    cmp byte [dword 0x181100d],0x0
00001413  0F95C1            setnz cl
00001416  30C1              xor cl,al
00001418  80F101            xor cl,0x1
0000141B  0FB6D9            movzx ebx,cl
0000141E  C1E305            shl ebx,byte 0x5
00001421  83CB50            or ebx,byte +0x50
00001424  E92E030000        jmp 0x1757
00001429  84C0              test al,al
0000142B  0F8402040000      jz near 0x1833
00001431  A009108101        mov al,[0x1811009]
00001436  0A0508108101      or al,[dword 0x1811008]
0000143C  0F95C0            setnz al
0000143F  803D0D10810100    cmp byte [dword 0x181100d],0x0
00001446  0F95C1            setnz cl
00001449  30C1              xor cl,al
0000144B  80F101            xor cl,0x1
0000144E  0FB6D9            movzx ebx,cl
00001451  C1E305            shl ebx,byte 0x5
00001454  83CB51            or ebx,byte +0x51
00001457  E9FB020000        jmp 0x1757
0000145C  84C0              test al,al
0000145E  0F84E7030000      jz near 0x184b
00001464  A009108101        mov al,[0x1811009]
00001469  0A0508108101      or al,[dword 0x1811008]
0000146F  0F95C0            setnz al
00001472  803D0D10810100    cmp byte [dword 0x181100d],0x0
00001479  0F95C1            setnz cl
0000147C  30C1              xor cl,al
0000147E  80F101            xor cl,0x1
00001481  0FB6D9            movzx ebx,cl
00001484  C1E305            shl ebx,byte 0x5
00001487  83CB52            or ebx,byte +0x52
0000148A  E9C8020000        jmp 0x1757
0000148F  84C0              test al,al
00001491  0F84CC030000      jz near 0x1863
00001497  A009108101        mov al,[0x1811009]
0000149C  0A0508108101      or al,[dword 0x1811008]
000014A2  0F95C0            setnz al
000014A5  803D0D10810100    cmp byte [dword 0x181100d],0x0
000014AC  0F95C1            setnz cl
000014AF  30C1              xor cl,al
000014B1  80F101            xor cl,0x1
000014B4  0FB6D9            movzx ebx,cl
000014B7  C1E305            shl ebx,byte 0x5
000014BA  83CB53            or ebx,byte +0x53
000014BD  E995020000        jmp 0x1757
000014C2  84C0              test al,al
000014C4  0F84B1030000      jz near 0x187b
000014CA  A009108101        mov al,[0x1811009]
000014CF  0A0508108101      or al,[dword 0x1811008]
000014D5  0F95C0            setnz al
000014D8  803D0D10810100    cmp byte [dword 0x181100d],0x0
000014DF  0F95C1            setnz cl
000014E2  30C1              xor cl,al
000014E4  80F101            xor cl,0x1
000014E7  0FB6D9            movzx ebx,cl
000014EA  C1E305            shl ebx,byte 0x5
000014ED  83CB54            or ebx,byte +0x54
000014F0  E962020000        jmp 0x1757
000014F5  84C0              test al,al
000014F7  0F8496030000      jz near 0x1893
000014FD  A009108101        mov al,[0x1811009]
00001502  0A0508108101      or al,[dword 0x1811008]
00001508  0F95C0            setnz al
0000150B  803D0D10810100    cmp byte [dword 0x181100d],0x0
00001512  0F95C1            setnz cl
00001515  30C1              xor cl,al
00001517  80F101            xor cl,0x1
0000151A  0FB6D9            movzx ebx,cl
0000151D  C1E305            shl ebx,byte 0x5
00001520  83CB55            or ebx,byte +0x55
00001523  E92F020000        jmp 0x1757
00001528  84C0              test al,al
0000152A  0F847B030000      jz near 0x18ab
00001530  A009108101        mov al,[0x1811009]
00001535  0A0508108101      or al,[dword 0x1811008]
0000153B  0F95C0            setnz al
0000153E  803D0D10810100    cmp byte [dword 0x181100d],0x0
00001545  0F95C1            setnz cl
00001548  30C1              xor cl,al
0000154A  80F101            xor cl,0x1
0000154D  0FB6D9            movzx ebx,cl
00001550  C1E305            shl ebx,byte 0x5
00001553  83CB56            or ebx,byte +0x56
00001556  E9FC010000        jmp 0x1757
0000155B  84C0              test al,al
0000155D  0F8460030000      jz near 0x18c3
00001563  A009108101        mov al,[0x1811009]
00001568  0A0508108101      or al,[dword 0x1811008]
0000156E  0F95C0            setnz al
00001571  803D0D10810100    cmp byte [dword 0x181100d],0x0
00001578  0F95C1            setnz cl
0000157B  30C1              xor cl,al
0000157D  80F101            xor cl,0x1
00001580  0FB6D9            movzx ebx,cl
00001583  C1E305            shl ebx,byte 0x5
00001586  83CB57            or ebx,byte +0x57
00001589  E9C9010000        jmp 0x1757
0000158E  84C0              test al,al
00001590  0F8445030000      jz near 0x18db
00001596  A009108101        mov al,[0x1811009]
0000159B  0A0508108101      or al,[dword 0x1811008]
000015A1  0F95C0            setnz al
000015A4  803D0D10810100    cmp byte [dword 0x181100d],0x0
000015AB  0F95C1            setnz cl
000015AE  30C1              xor cl,al
000015B0  80F101            xor cl,0x1
000015B3  0FB6D9            movzx ebx,cl
000015B6  C1E305            shl ebx,byte 0x5
000015B9  83CB58            or ebx,byte +0x58
000015BC  E996010000        jmp 0x1757
000015C1  84C0              test al,al
000015C3  0F842A030000      jz near 0x18f3
000015C9  A009108101        mov al,[0x1811009]
000015CE  0A0508108101      or al,[dword 0x1811008]
000015D4  0F95C0            setnz al
000015D7  803D0D10810100    cmp byte [dword 0x181100d],0x0
000015DE  0F95C1            setnz cl
000015E1  30C1              xor cl,al
000015E3  80F101            xor cl,0x1
000015E6  0FB6D9            movzx ebx,cl
000015E9  C1E305            shl ebx,byte 0x5
000015EC  83CB59            or ebx,byte +0x59
000015EF  E963010000        jmp 0x1757
000015F4  84C0              test al,al
000015F6  0F840F030000      jz near 0x190b
000015FC  A009108101        mov al,[0x1811009]
00001601  0A0508108101      or al,[dword 0x1811008]
00001607  0F95C0            setnz al
0000160A  803D0D10810100    cmp byte [dword 0x181100d],0x0
00001611  0F95C1            setnz cl
00001614  30C1              xor cl,al
00001616  80F101            xor cl,0x1
00001619  0FB6D9            movzx ebx,cl
0000161C  C1E305            shl ebx,byte 0x5
0000161F  83CB5A            or ebx,byte +0x5a
00001622  E930010000        jmp 0x1757
00001627  6A60              push byte +0x60
00001629  E928010000        jmp 0x1756
0000162E  6A3D              push byte +0x3d
00001630  E921010000        jmp 0x1756
00001635  6A32              push byte +0x32
00001637  E91A010000        jmp 0x1756
0000163C  6A36              push byte +0x36
0000163E  E913010000        jmp 0x1756
00001643  6A37              push byte +0x37
00001645  E90C010000        jmp 0x1756
0000164A  6A38              push byte +0x38
0000164C  E905010000        jmp 0x1756
00001651  6A39              push byte +0x39
00001653  E9FE000000        jmp 0x1756
00001658  6A30              push byte +0x30
0000165A  E9F7000000        jmp 0x1756
0000165F  B222              mov dl,0x22
00001661  EB1E              jmp short 0x1681
00001663  B210              mov dl,0x10
00001665  EB1A              jmp short 0x1681
00001667  B202              mov dl,0x2
00001669  EB16              jmp short 0x1681
0000166B  B240              mov dl,0x40
0000166D  EB12              jmp short 0x1681
0000166F  B203              mov dl,0x3
00001671  EB0E              jmp short 0x1681
00001673  B204              mov dl,0x4
00001675  EB0A              jmp short 0x1681
00001677  B221              mov dl,0x21
00001679  EB06              jmp short 0x1681
0000167B  B205              mov dl,0x5
0000167D  EB02              jmp short 0x1681
0000167F  B241              mov dl,0x41
00001681  89E0              mov eax,esp
00001683  8810              mov [eax],dl
00001685  8D542404          lea edx,[esp+0x4]
00001689  8902              mov [edx],eax
0000168B  C7420428950000    mov dword [edx+0x4],0x9528
00001692  E9D8000000        jmp 0x176f
00001697  A00B108101        mov al,[0x181100b]
0000169C  0A050A108101      or al,[dword 0x181100a]
000016A2  0F8459FAFFFF      jz near 0x1101
000016A8  31DB              xor ebx,ebx
000016AA  43                inc ebx
000016AB  E9A7000000        jmp 0x1757
000016B0  A00B108101        mov al,[0x181100b]
000016B5  0A050A108101      or al,[dword 0x181100a]
000016BB  0F8596000000      jnz near 0x1757
000016C1  E96EFAFFFF        jmp 0x1134
000016C6  A00B108101        mov al,[0x181100b]
000016CB  0A050A108101      or al,[dword 0x181100a]
000016D1  0F8490FAFFFF      jz near 0x1167
000016D7  6A03              push byte +0x3
000016D9  EB7B              jmp short 0x1756
000016DB  A00B108101        mov al,[0x181100b]
000016E0  0A050A108101      or al,[dword 0x181100a]
000016E6  0F84AEFAFFFF      jz near 0x119a
000016EC  6A04              push byte +0x4
000016EE  EB66              jmp short 0x1756
000016F0  A00B108101        mov al,[0x181100b]
000016F5  0A050A108101      or al,[dword 0x181100a]
000016FB  0F84CCFAFFFF      jz near 0x11cd
00001701  6A05              push byte +0x5
00001703  EB51              jmp short 0x1756
00001705  A00B108101        mov al,[0x181100b]
0000170A  0A050A108101      or al,[dword 0x181100a]
00001710  0F84EAFAFFFF      jz near 0x1200
00001716  6A06              push byte +0x6
00001718  EB3C              jmp short 0x1756
0000171A  A00B108101        mov al,[0x181100b]
0000171F  0A050A108101      or al,[dword 0x181100a]
00001725  0F8408FBFFFF      jz near 0x1233
0000172B  6A07              push byte +0x7
0000172D  EB27              jmp short 0x1756
0000172F  A00B108101        mov al,[0x181100b]
00001734  0A050A108101      or al,[dword 0x181100a]
0000173A  89F3              mov ebx,esi
0000173C  7519              jnz 0x1757
0000173E  E923FBFFFF        jmp 0x1266
00001743  A00B108101        mov al,[0x181100b]
00001748  0A050A108101      or al,[dword 0x181100a]
0000174E  0F8445FBFFFF      jz near 0x1299
00001754  6A09              push byte +0x9
00001756  5B                pop ebx
00001757  C6050210810100    mov byte [dword 0x1811002],0x0
0000175E  89E0              mov eax,esp
00001760  8918              mov [eax],ebx
00001762  8D542404          lea edx,[esp+0x4]
00001766  8902              mov [edx],eax
00001768  C742042CCF0000    mov dword [edx+0x4],0xcf2c
0000176F  8D4C240C          lea ecx,[esp+0xc]
00001773  C701A8E00000      mov dword [ecx],0xe0a8
00001779  31C0              xor eax,eax
0000177B  40                inc eax
0000177C  894104            mov [ecx+0x4],eax
0000177F  83611000          and dword [ecx+0x10],byte +0x0
00001783  895108            mov [ecx+0x8],edx
00001786  89410C            mov [ecx+0xc],eax
00001789  E895F0FFFF        call 0x823
0000178E  E91EF5FFFF        jmp 0xcb1
00001793  A00B108101        mov al,[0x181100b]
00001798  0A050A108101      or al,[dword 0x181100a]
0000179E  0F85D9F5FFFF      jnz near 0xd7d
000017A4  E923FBFFFF        jmp 0x12cc
000017A9  A00B108101        mov al,[0x181100b]
000017AE  0A050A108101      or al,[dword 0x181100a]
000017B4  0F8445FBFFFF      jz near 0x12ff
000017BA  6A0B              push byte +0xb
000017BC  EB98              jmp short 0x1756
000017BE  A00B108101        mov al,[0x181100b]
000017C3  0A050A108101      or al,[dword 0x181100a]
000017C9  0F8463FBFFFF      jz near 0x1332
000017CF  6A0C              push byte +0xc
000017D1  EB83              jmp short 0x1756
000017D3  A00B108101        mov al,[0x181100b]
000017D8  0A050A108101      or al,[dword 0x181100a]
000017DE  0F8481FBFFFF      jz near 0x1365
000017E4  6A0D              push byte +0xd
000017E6  E96BFFFFFF        jmp 0x1756
000017EB  A00B108101        mov al,[0x181100b]
000017F0  0A050A108101      or al,[dword 0x181100a]
000017F6  0F849CFBFFFF      jz near 0x1398
000017FC  6A0E              push byte +0xe
000017FE  E953FFFFFF        jmp 0x1756
00001803  A00B108101        mov al,[0x181100b]
00001808  0A050A108101      or al,[dword 0x181100a]
0000180E  0F84B7FBFFFF      jz near 0x13cb
00001814  6A0F              push byte +0xf
00001816  E93BFFFFFF        jmp 0x1756
0000181B  A00B108101        mov al,[0x181100b]
00001820  0A050A108101      or al,[dword 0x181100a]
00001826  0F84D2FBFFFF      jz near 0x13fe
0000182C  6A10              push byte +0x10
0000182E  E923FFFFFF        jmp 0x1756
00001833  A00B108101        mov al,[0x181100b]
00001838  0A050A108101      or al,[dword 0x181100a]
0000183E  0F84EDFBFFFF      jz near 0x1431
00001844  6A11              push byte +0x11
00001846  E90BFFFFFF        jmp 0x1756
0000184B  A00B108101        mov al,[0x181100b]
00001850  0A050A108101      or al,[dword 0x181100a]
00001856  0F8408FCFFFF      jz near 0x1464
0000185C  6A12              push byte +0x12
0000185E  E9F3FEFFFF        jmp 0x1756
00001863  A00B108101        mov al,[0x181100b]
00001868  0A050A108101      or al,[dword 0x181100a]
0000186E  0F8423FCFFFF      jz near 0x1497
00001874  6A13              push byte +0x13
00001876  E9DBFEFFFF        jmp 0x1756
0000187B  A00B108101        mov al,[0x181100b]
00001880  0A050A108101      or al,[dword 0x181100a]
00001886  0F843EFCFFFF      jz near 0x14ca
0000188C  6A14              push byte +0x14
0000188E  E9C3FEFFFF        jmp 0x1756
00001893  A00B108101        mov al,[0x181100b]
00001898  0A050A108101      or al,[dword 0x181100a]
0000189E  0F8459FCFFFF      jz near 0x14fd
000018A4  6A15              push byte +0x15
000018A6  E9ABFEFFFF        jmp 0x1756
000018AB  A00B108101        mov al,[0x181100b]
000018B0  0A050A108101      or al,[dword 0x181100a]
000018B6  0F8474FCFFFF      jz near 0x1530
000018BC  6A16              push byte +0x16
000018BE  E993FEFFFF        jmp 0x1756
000018C3  A00B108101        mov al,[0x181100b]
000018C8  0A050A108101      or al,[dword 0x181100a]
000018CE  0F848FFCFFFF      jz near 0x1563
000018D4  6A17              push byte +0x17
000018D6  E97BFEFFFF        jmp 0x1756
000018DB  A00B108101        mov al,[0x181100b]
000018E0  0A050A108101      or al,[dword 0x181100a]
000018E6  0F84AAFCFFFF      jz near 0x1596
000018EC  6A18              push byte +0x18
000018EE  E963FEFFFF        jmp 0x1756
000018F3  A00B108101        mov al,[0x181100b]
000018F8  0A050A108101      or al,[dword 0x181100a]
000018FE  0F84C5FCFFFF      jz near 0x15c9
00001904  6A19              push byte +0x19
00001906  E94BFEFFFF        jmp 0x1756
0000190B  A00B108101        mov al,[0x181100b]
00001910  0A050A108101      or al,[dword 0x181100a]
00001916  0F84E0FCFFFF      jz near 0x15fc
0000191C  6A1A              push byte +0x1a
0000191E  E933FEFFFF        jmp 0x1756
00001923  6A28              push byte +0x28
00001925  5A                pop edx
00001926  B940DB0000        mov ecx,0xdb40
0000192B  68C0DB0000        push dword 0xdbc0
00001930  E860110000        call 0x2a95
00001935  6A11              push byte +0x11
00001937  5A                pop edx
00001938  B9D0DB0000        mov ecx,0xdbd0
0000193D  68E4DB0000        push dword 0xdbe4
00001942  E84E110000        call 0x2a95
00001947  6A0F              push byte +0xf
00001949  5A                pop edx
0000194A  B9EEF90000        mov ecx,0xf9ee
0000194F  6800FA0000        push dword 0xfa00
00001954  E83C110000        call 0x2a95
00001959  55                push ebp
0000195A  89E5              mov ebp,esp
0000195C  57                push edi
0000195D  56                push esi
0000195E  52                push edx
0000195F  51                push ecx
00001960  53                push ebx
00001961  50                push eax
00001962  83E4F0            and esp,byte -0x10
00001965  81EC90000000      sub esp,0x90
0000196B  FC                cld
0000196C  6687DB            xchg bx,bx
0000196F  8D4D08            lea ecx,[ebp+0x8]
00001972  8D442418          lea eax,[esp+0x18]
00001976  8908              mov [eax],ecx
00001978  BAFD930000        mov edx,0x93fd
0000197D  895004            mov [eax+0x4],edx
00001980  894808            mov [eax+0x8],ecx
00001983  C7400C82B20000    mov dword [eax+0xc],0xb282
0000198A  8D4D04            lea ecx,[ebp+0x4]
0000198D  894810            mov [eax+0x10],ecx
00001990  895014            mov [eax+0x14],edx
00001993  6A02              push byte +0x2
00001995  59                pop ecx
00001996  8D542430          lea edx,[esp+0x30]
0000199A  890A              mov [edx],ecx
0000199C  894A08            mov [edx+0x8],ecx
0000199F  6A20              push byte +0x20
000019A1  5E                pop esi
000019A2  897210            mov [edx+0x10],esi
000019A5  83621400          and dword [edx+0x14],byte +0x0
000019A9  6A14              push byte +0x14
000019AB  5F                pop edi
000019AC  897A18            mov [edx+0x18],edi
000019AF  B303              mov bl,0x3
000019B1  885A1C            mov [edx+0x1c],bl
000019B4  894A20            mov [edx+0x20],ecx
000019B7  894A28            mov [edx+0x28],ecx
000019BA  897230            mov [edx+0x30],esi
000019BD  C7423401000000    mov dword [edx+0x34],0x1
000019C4  897A38            mov [edx+0x38],edi
000019C7  885A3C            mov [edx+0x3c],bl
000019CA  894A40            mov [edx+0x40],ecx
000019CD  894A48            mov [edx+0x48],ecx
000019D0  897250            mov [edx+0x50],esi
000019D3  894A54            mov [edx+0x54],ecx
000019D6  897A58            mov [edx+0x58],edi
000019D9  885A5C            mov [edx+0x5c],bl
000019DC  89E1              mov ecx,esp
000019DE  C701CCE00000      mov dword [ecx],0xe0cc
000019E4  6A03              push byte +0x3
000019E6  5E                pop esi
000019E7  897104            mov [ecx+0x4],esi
000019EA  895110            mov [ecx+0x10],edx
000019ED  897114            mov [ecx+0x14],esi
000019F0  894108            mov [ecx+0x8],eax
000019F3  89710C            mov [ecx+0xc],esi
000019F6  BAE4E00000        mov edx,0xe0e4
000019FB  E8FF0A0000        call 0x24ff
00001A00  55                push ebp
00001A01  89E5              mov ebp,esp
00001A03  57                push edi
00001A04  56                push esi
00001A05  52                push edx
00001A06  51                push ecx
00001A07  53                push ebx
00001A08  50                push eax
00001A09  83E4F0            and esp,byte -0x10
00001A0C  81EC90000000      sub esp,0x90
00001A12  FC                cld
00001A13  6687DB            xchg bx,bx
00001A16  8D4D08            lea ecx,[ebp+0x8]
00001A19  8D442418          lea eax,[esp+0x18]
00001A1D  8908              mov [eax],ecx
00001A1F  BAFD930000        mov edx,0x93fd
00001A24  895004            mov [eax+0x4],edx
00001A27  894808            mov [eax+0x8],ecx
00001A2A  C7400C82B20000    mov dword [eax+0xc],0xb282
00001A31  8D4D04            lea ecx,[ebp+0x4]
00001A34  894810            mov [eax+0x10],ecx
00001A37  895014            mov [eax+0x14],edx
00001A3A  6A02              push byte +0x2
00001A3C  59                pop ecx
00001A3D  8D542430          lea edx,[esp+0x30]
00001A41  890A              mov [edx],ecx
00001A43  894A08            mov [edx+0x8],ecx
00001A46  6A20              push byte +0x20
00001A48  5E                pop esi
00001A49  897210            mov [edx+0x10],esi
00001A4C  83621400          and dword [edx+0x14],byte +0x0
00001A50  6A14              push byte +0x14
00001A52  5F                pop edi
00001A53  897A18            mov [edx+0x18],edi
00001A56  B303              mov bl,0x3
00001A58  885A1C            mov [edx+0x1c],bl
00001A5B  894A20            mov [edx+0x20],ecx
00001A5E  894A28            mov [edx+0x28],ecx
00001A61  897230            mov [edx+0x30],esi
00001A64  C7423401000000    mov dword [edx+0x34],0x1
00001A6B  897A38            mov [edx+0x38],edi
00001A6E  885A3C            mov [edx+0x3c],bl
00001A71  894A40            mov [edx+0x40],ecx
00001A74  894A48            mov [edx+0x48],ecx
00001A77  897250            mov [edx+0x50],esi
00001A7A  894A54            mov [edx+0x54],ecx
00001A7D  897A58            mov [edx+0x58],edi
00001A80  885A5C            mov [edx+0x5c],bl
00001A83  89E1              mov ecx,esp
00001A85  C70104E10000      mov dword [ecx],0xe104
00001A8B  6A03              push byte +0x3
00001A8D  5E                pop esi
00001A8E  897104            mov [ecx+0x4],esi
00001A91  895110            mov [ecx+0x10],edx
00001A94  897114            mov [ecx+0x14],esi
00001A97  894108            mov [ecx+0x8],eax
00001A9A  89710C            mov [ecx+0xc],esi
00001A9D  BA1CE10000        mov edx,0xe11c
00001AA2  E8580A0000        call 0x24ff
00001AA7  55                push ebp
00001AA8  89E5              mov ebp,esp
00001AAA  57                push edi
00001AAB  56                push esi
00001AAC  52                push edx
00001AAD  51                push ecx
00001AAE  53                push ebx
00001AAF  50                push eax
00001AB0  83E4F0            and esp,byte -0x10
00001AB3  83EC70            sub esp,byte +0x70
00001AB6  FC                cld
00001AB7  8D4D04            lea ecx,[ebp+0x4]
00001ABA  89E0              mov eax,esp
00001ABC  8908              mov [eax],ecx
00001ABE  C74004FD930000    mov dword [eax+0x4],0x93fd
00001AC5  894808            mov [eax+0x8],ecx
00001AC8  6A02              push byte +0x2
00001ACA  5A                pop edx
00001ACB  8D742428          lea esi,[esp+0x28]
00001ACF  8916              mov [esi],edx
00001AD1  895608            mov [esi+0x8],edx
00001AD4  6A20              push byte +0x20
00001AD6  59                pop ecx
00001AD7  894E10            mov [esi+0x10],ecx
00001ADA  83661400          and dword [esi+0x14],byte +0x0
00001ADE  6A14              push byte +0x14
00001AE0  5F                pop edi
00001AE1  897E18            mov [esi+0x18],edi
00001AE4  B303              mov bl,0x3
00001AE6  885E1C            mov [esi+0x1c],bl
00001AE9  895620            mov [esi+0x20],edx
00001AEC  895628            mov [esi+0x28],edx
00001AEF  894E30            mov [esi+0x30],ecx
00001AF2  C7463401000000    mov dword [esi+0x34],0x1
00001AF9  897E38            mov [esi+0x38],edi
00001AFC  885E3C            mov [esi+0x3c],bl
00001AFF  8D4C2410          lea ecx,[esp+0x10]
00001B03  C70140E10000      mov dword [ecx],0xe140
00001B09  C7410403000000    mov dword [ecx+0x4],0x3
00001B10  897110            mov [ecx+0x10],esi
00001B13  C7400C82B20000    mov dword [eax+0xc],0xb282
00001B1A  895114            mov [ecx+0x14],edx
00001B1D  894108            mov [ecx+0x8],eax
00001B20  89510C            mov [ecx+0xc],edx
00001B23  BA58E10000        mov edx,0xe158
00001B28  E8D2090000        call 0x24ff
00001B2D  55                push ebp
00001B2E  89E5              mov ebp,esp
00001B30  53                push ebx
00001B31  57                push edi
00001B32  56                push esi
00001B33  83E4F8            and esp,byte -0x8
00001B36  81ECF8020000      sub esp,0x2f8
00001B3C  A114108101        mov eax,[0x1811014]
00001B41  85C0              test eax,eax
00001B43  6A02              push byte +0x2
00001B45  5F                pop edi
00001B46  7534              jnz 0x1b7c
00001B48  31C9              xor ecx,ecx
00001B4A  41                inc ecx
00001B4B  31C0              xor eax,eax
00001B4D  F00FB10D14108101  lock cmpxchg [dword 0x1811014],ecx
00001B55  7525              jnz 0x1b7c
00001B57  B880FEFFFF        mov eax,0xfffffe80
00001B5C  85C0              test eax,eax
00001B5E  0F8444010000      jz near 0x1ca8
00001B64  C78404F802000000  mov dword [esp+eax+0x2f8],0xf00
         -0F0000
00001B6F  83A404F402000000  and dword [esp+eax+0x2f4],byte +0x0
00001B77  83C008            add eax,byte +0x8
00001B7A  EBE0              jmp short 0x1b5c
00001B7C  FF2485F4D80000    jmp [eax*4+0xd8f4]
00001B83  F390              pause
00001B85  A114108101        mov eax,[0x1811014]
00001B8A  FF2485F4D80000    jmp [eax*4+0xd8f4]
00001B91  8DB42474010000    lea esi,[esp+0x174]
00001B98  66C7067F01        mov word [esi],0x17f
00001B9D  C7460219108101    mov dword [esi+0x2],0x1811019
00001BA4  0F011E            lidt [esi]
00001BA7  B0FC              mov al,0xfc
00001BA9  66BA2100          mov dx,0x21
00001BAD  EE                out dx,al
00001BAE  B08F              mov al,0x8f
00001BB0  66BAA100          mov dx,0xa1
00001BB4  EE                out dx,al
00001BB5  66BA2100          mov dx,0x21
00001BB9  EC                in al,dx
00001BBA  89C3              mov ebx,eax
00001BBC  66BAA100          mov dx,0xa1
00001BC0  EC                in al,dx
00001BC1  88C7              mov bh,al
00001BC3  0FB6C3            movzx eax,bl
00001BC6  C1E008            shl eax,byte 0x8
00001BC9  0FB6CF            movzx ecx,bh
00001BCC  09C1              or ecx,eax
00001BCE  8D542458          lea edx,[esp+0x58]
00001BD2  66890A            mov [edx],cx
00001BD5  8D442478          lea eax,[esp+0x78]
00001BD9  8910              mov [eax],edx
00001BDB  C74004E9CF0000    mov dword [eax+0x4],0xcfe9
00001BE2  893E              mov [esi],edi
00001BE4  897E08            mov [esi+0x8],edi
00001BE7  C7461020000000    mov dword [esi+0x10],0x20
00001BEE  83661400          and dword [esi+0x14],byte +0x0
00001BF2  C7461804000000    mov dword [esi+0x18],0x4
00001BF9  C6461C03          mov byte [esi+0x1c],0x3
00001BFD  8D8C24E8000000    lea ecx,[esp+0xe8]
00001C04  C70178E10000      mov dword [ecx],0xe178
00001C0A  897904            mov [ecx+0x4],edi
00001C0D  897110            mov [ecx+0x10],esi
00001C10  31D2              xor edx,edx
00001C12  42                inc edx
00001C13  895114            mov [ecx+0x14],edx
00001C16  894108            mov [ecx+0x8],eax
00001C19  89510C            mov [ecx+0xc],edx
00001C1C  E802ECFFFF        call 0x823
00001C21  B011              mov al,0x11
00001C23  66BA2000          mov dx,0x20
00001C27  EE                out dx,al
00001C28  31C0              xor eax,eax
00001C2A  66BA8000          mov dx,0x80
00001C2E  EE                out dx,al
00001C2F  B011              mov al,0x11
00001C31  66BAA000          mov dx,0xa0
00001C35  EE                out dx,al
00001C36  31C0              xor eax,eax
00001C38  66BA8000          mov dx,0x80
00001C3C  EE                out dx,al
00001C3D  B020              mov al,0x20
00001C3F  66BA2100          mov dx,0x21
00001C43  EE                out dx,al
00001C44  31C0              xor eax,eax
00001C46  66BA8000          mov dx,0x80
00001C4A  EE                out dx,al
00001C4B  B028              mov al,0x28
00001C4D  66BAA100          mov dx,0xa1
00001C51  EE                out dx,al
00001C52  31C0              xor eax,eax
00001C54  66BA8000          mov dx,0x80
00001C58  EE                out dx,al
00001C59  B004              mov al,0x4
00001C5B  66BA2100          mov dx,0x21
00001C5F  EE                out dx,al
00001C60  31C0              xor eax,eax
00001C62  66BA8000          mov dx,0x80
00001C66  EE                out dx,al
00001C67  B002              mov al,0x2
00001C69  66BAA100          mov dx,0xa1
00001C6D  EE                out dx,al
00001C6E  31C0              xor eax,eax
00001C70  66BA8000          mov dx,0x80
00001C74  EE                out dx,al
00001C75  B001              mov al,0x1
00001C77  66BA2100          mov dx,0x21
00001C7B  EE                out dx,al
00001C7C  31C0              xor eax,eax
00001C7E  66BA8000          mov dx,0x80
00001C82  EE                out dx,al
00001C83  B001              mov al,0x1
00001C85  66BAA100          mov dx,0xa1
00001C89  EE                out dx,al
00001C8A  31C0              xor eax,eax
00001C8C  66BA8000          mov dx,0x80
00001C90  EE                out dx,al
00001C91  89D8              mov eax,ebx
00001C93  66BA2100          mov dx,0x21
00001C97  EE                out dx,al
00001C98  88F8              mov al,bh
00001C9A  66BAA100          mov dx,0xa1
00001C9E  EE                out dx,al
00001C9F  FB                sti
00001CA0  8D65F4            lea esp,[ebp-0xc]
00001CA3  5E                pop esi
00001CA4  5F                pop edi
00001CA5  5B                pop ebx
00001CA6  5D                pop ebp
00001CA7  C3                ret
00001CA8  8D8424BC010000    lea eax,[esp+0x1bc]
00001CAF  8B48CC            mov ecx,[eax-0x34]
00001CB2  894C2424          mov [esp+0x24],ecx
00001CB6  8B48C8            mov ecx,[eax-0x38]
00001CB9  894C2420          mov [esp+0x20],ecx
00001CBD  8B48C0            mov ecx,[eax-0x40]
00001CC0  8B50C4            mov edx,[eax-0x3c]
00001CC3  8954241C          mov [esp+0x1c],edx
00001CC7  894C2418          mov [esp+0x18],ecx
00001CCB  8B48D8            mov ecx,[eax-0x28]
00001CCE  894C2408          mov [esp+0x8],ecx
00001CD2  8B48DC            mov ecx,[eax-0x24]
00001CD5  894C240C          mov [esp+0xc],ecx
00001CD9  8B48E0            mov ecx,[eax-0x20]
00001CDC  894C2410          mov [esp+0x10],ecx
00001CE0  8B48E4            mov ecx,[eax-0x1c]
00001CE3  894C2414          mov [esp+0x14],ecx
00001CE7  8B48F0            mov ecx,[eax-0x10]
00001CEA  8B50F4            mov edx,[eax-0xc]
00001CED  89542404          mov [esp+0x4],edx
00001CF1  890C24            mov [esp],ecx
00001CF4  6A20              push byte +0x20
00001CF6  59                pop ecx
00001CF7  8D542458          lea edx,[esp+0x58]
00001CFB  51                push ecx
00001CFC  50                push eax
00001CFD  52                push edx
00001CFE  E8B52B0000        call 0x48b8
00001D03  83C40C            add esp,byte +0xc
00001D06  8D8424EC010000    lea eax,[esp+0x1ec]
00001D0D  B988000000        mov ecx,0x88
00001D12  8D9424E8000000    lea edx,[esp+0xe8]
00001D19  51                push ecx
00001D1A  50                push eax
00001D1B  52                push edx
00001D1C  E8972B0000        call 0x48b8
00001D21  83C40C            add esp,byte +0xc
00001D24  8D842484020000    lea eax,[esp+0x284]
00001D2B  6A70              push byte +0x70
00001D2D  59                pop ecx
00001D2E  8D542478          lea edx,[esp+0x78]
00001D32  51                push ecx
00001D33  50                push eax
00001D34  52                push edx
00001D35  E87E2B0000        call 0x48b8
00001D3A  83C40C            add esp,byte +0xc
00001D3D  668CCF            mov di,cs
00001D40  668CC8            mov ax,cs
00001D43  C1E010            shl eax,byte 0x10
00001D46  B9FFFF0000        mov ecx,0xffff
00001D4B  BA1D980000        mov edx,0x981d
00001D50  21CA              and edx,ecx
00001D52  09C2              or edx,eax
00001D54  89542454          mov [esp+0x54],edx
00001D58  668CC8            mov ax,cs
00001D5B  C1E010            shl eax,byte 0x10
00001D5E  BAA7A80000        mov edx,0xa8a7
00001D63  21CA              and edx,ecx
00001D65  09C2              or edx,eax
00001D67  89542450          mov [esp+0x50],edx
00001D6B  668CCE            mov si,cs
00001D6E  668CC8            mov ax,cs
00001D71  C1E010            shl eax,byte 0x10
00001D74  BA59A70000        mov edx,0xa759
00001D79  21CA              and edx,ecx
00001D7B  09C2              or edx,eax
00001D7D  8954244C          mov [esp+0x4c],edx
00001D81  668CC8            mov ax,cs
00001D84  C1E010            shl eax,byte 0x10
00001D87  BA00A80000        mov edx,0xa800
00001D8C  21CA              and edx,ecx
00001D8E  09C2              or edx,eax
00001D90  89542448          mov [esp+0x48],edx
00001D94  B91D980000        mov ecx,0x981d
00001D99  BA0000FFFF        mov edx,0xffff0000
00001D9E  21D1              and ecx,edx
00001DA0  B8008F0000        mov eax,0x8f00
00001DA5  09C1              or ecx,eax
00001DA7  894C2438          mov [esp+0x38],ecx
00001DAB  B9A7A80000        mov ecx,0xa8a7
00001DB0  21D1              and ecx,edx
00001DB2  09C1              or ecx,eax
00001DB4  894C243C          mov [esp+0x3c],ecx
00001DB8  B959A70000        mov ecx,0xa759
00001DBD  21D1              and ecx,edx
00001DBF  09C1              or ecx,eax
00001DC1  894C2444          mov [esp+0x44],ecx
00001DC5  B900A80000        mov ecx,0xa800
00001DCA  21D1              and ecx,edx
00001DCC  09C1              or ecx,eax
00001DCE  894C2440          mov [esp+0x40],ecx
00001DD2  C1E710            shl edi,byte 0x10
00001DD5  BBB9970000        mov ebx,0x97b9
00001DDA  B8FFFF0000        mov eax,0xffff
00001DDF  21C3              and ebx,eax
00001DE1  09FB              or ebx,edi
00001DE3  C1E610            shl esi,byte 0x10
00001DE6  BAF9980000        mov edx,0x98f9
00001DEB  21C2              and edx,eax
00001DED  B9FFFF0000        mov ecx,0xffff
00001DF2  09F2              or edx,esi
00001DF4  89542430          mov [esp+0x30],edx
00001DF8  668CC8            mov ax,cs
00001DFB  C1E010            shl eax,byte 0x10
00001DFE  BAA0990000        mov edx,0x99a0
00001E03  21CA              and edx,ecx
00001E05  09C2              or edx,eax
00001E07  89542434          mov [esp+0x34],edx
00001E0B  668CC8            mov ax,cs
00001E0E  C1E010            shl eax,byte 0x10
00001E11  BEB7990000        mov esi,0x99b7
00001E16  21F1              and ecx,esi
00001E18  09C1              or ecx,eax
00001E1A  894C242C          mov [esp+0x2c],ecx
00001E1E  B8B9970000        mov eax,0x97b9
00001E23  BA0000FFFF        mov edx,0xffff0000
00001E28  21D0              and eax,edx
00001E2A  B9F9980000        mov ecx,0x98f9
00001E2F  21D1              and ecx,edx
00001E31  BFA0990000        mov edi,0x99a0
00001E36  21D7              and edi,edx
00001E38  21D6              and esi,edx
00001E3A  BA008E0000        mov edx,0x8e00
00001E3F  09D0              or eax,edx
00001E41  09D1              or ecx,edx
00001E43  09D7              or edi,edx
00001E45  09D6              or esi,edx
00001E47  C6051810810101    mov byte [dword 0x1811018],0x1
00001E4E  A31D108101        mov [0x181101d],eax
00001E53  891D19108101      mov [dword 0x1811019],ebx
00001E59  8B442418          mov eax,[esp+0x18]
00001E5D  A321108101        mov [0x1811021],eax
00001E62  8B44241C          mov eax,[esp+0x1c]
00001E66  A325108101        mov [0x1811025],eax
00001E6B  8B442420          mov eax,[esp+0x20]
00001E6F  A329108101        mov [0x1811029],eax
00001E74  8B442424          mov eax,[esp+0x24]
00001E78  A32D108101        mov [0x181102d],eax
00001E7D  8B442438          mov eax,[esp+0x38]
00001E81  A335108101        mov [0x1811035],eax
00001E86  8B442454          mov eax,[esp+0x54]
00001E8A  A331108101        mov [0x1811031],eax
00001E8F  8B442408          mov eax,[esp+0x8]
00001E93  A339108101        mov [0x1811039],eax
00001E98  8B44240C          mov eax,[esp+0xc]
00001E9C  A33D108101        mov [0x181103d],eax
00001EA1  8B442410          mov eax,[esp+0x10]
00001EA5  A341108101        mov [0x1811041],eax
00001EAA  8B442414          mov eax,[esp+0x14]
00001EAE  A345108101        mov [0x1811045],eax
00001EB3  8B44243C          mov eax,[esp+0x3c]
00001EB7  A34D108101        mov [0x181104d],eax
00001EBC  8B442450          mov eax,[esp+0x50]
00001EC0  A349108101        mov [0x1811049],eax
00001EC5  8B442404          mov eax,[esp+0x4]
00001EC9  A355108101        mov [0x1811055],eax
00001ECE  8B0424            mov eax,[esp]
00001ED1  A351108101        mov [0x1811051],eax
00001ED6  890D5D108101      mov [dword 0x181105d],ecx
00001EDC  8B442430          mov eax,[esp+0x30]
00001EE0  A359108101        mov [0x1811059],eax
00001EE5  6A20              push byte +0x20
00001EE7  58                pop eax
00001EE8  50                push eax
00001EE9  8D44245C          lea eax,[esp+0x5c]
00001EED  50                push eax
00001EEE  6861108101        push dword 0x1811061
00001EF3  E8C0290000        call 0x48b8
00001EF8  83C40C            add esp,byte +0xc
00001EFB  8B442444          mov eax,[esp+0x44]
00001EFF  A385108101        mov [0x1811085],eax
00001F04  8B44244C          mov eax,[esp+0x4c]
00001F08  A381108101        mov [0x1811081],eax
00001F0D  8B442440          mov eax,[esp+0x40]
00001F11  A38D108101        mov [0x181108d],eax
00001F16  8B442448          mov eax,[esp+0x48]
00001F1A  A389108101        mov [0x1811089],eax
00001F1F  B888000000        mov eax,0x88
00001F24  50                push eax
00001F25  8D8424EC000000    lea eax,[esp+0xec]
00001F2C  50                push eax
00001F2D  6891108101        push dword 0x1811091
00001F32  E881290000        call 0x48b8
00001F37  83C40C            add esp,byte +0xc
00001F3A  893D1D118101      mov [dword 0x181111d],edi
00001F40  6A02              push byte +0x2
00001F42  5F                pop edi
00001F43  8B442434          mov eax,[esp+0x34]
00001F47  A319118101        mov [0x1811119],eax
00001F4C  893525118101      mov [dword 0x1811125],esi
00001F52  8B44242C          mov eax,[esp+0x2c]
00001F56  A321118101        mov [0x1811121],eax
00001F5B  6A70              push byte +0x70
00001F5D  58                pop eax
00001F5E  50                push eax
00001F5F  8D44247C          lea eax,[esp+0x7c]
00001F63  50                push eax
00001F64  6829118101        push dword 0x1811129
00001F69  E84A290000        call 0x48b8
00001F6E  83C40C            add esp,byte +0xc
00001F71  89F8              mov eax,edi
00001F73  870514108101      xchg eax,[dword 0x1811014]
00001F79  E913FCFFFF        jmp 0x1b91
00001F7E  6A28              push byte +0x28
00001F80  5A                pop edx
00001F81  B940DB0000        mov ecx,0xdb40
00001F86  68C0DB0000        push dword 0xdbc0
00001F8B  E8050B0000        call 0x2a95
00001F90  6A11              push byte +0x11
00001F92  5A                pop edx
00001F93  B9D0DB0000        mov ecx,0xdbd0
00001F98  68E4DB0000        push dword 0xdbe4
00001F9D  E8F30A0000        call 0x2a95
00001FA2  F4                hlt
00001FA3  EBFD              jmp short 0x1fa2
00001FA5  55                push ebp
00001FA6  53                push ebx
00001FA7  57                push edi
00001FA8  56                push esi
00001FA9  83EC50            sub esp,byte +0x50
00001FAC  83242400          and dword [esp],byte +0x0
00001FB0  31C9              xor ecx,ecx
00001FB2  BA00F03F00        mov edx,0x3ff000
00001FB7  E881010000        call 0x213d
00001FBC  8D742410          lea esi,[esp+0x10]
00001FC0  C706A8E10000      mov dword [esi],0xe1a8
00001FC6  31C0              xor eax,eax
00001FC8  40                inc eax
00001FC9  894604            mov [esi+0x4],eax
00001FCC  89C7              mov edi,eax
00001FCE  83661000          and dword [esi+0x10],byte +0x0
00001FD2  8D5C2438          lea ebx,[esp+0x38]
00001FD6  895E08            mov [esi+0x8],ebx
00001FD9  83660C00          and dword [esi+0xc],byte +0x0
00001FDD  89F1              mov ecx,esi
00001FDF  E83FE8FFFF        call 0x823
00001FE4  C7042400001000    mov dword [esp],0x100000
00001FEB  B9000010C0        mov ecx,0xc0100000
00001FF0  BA00F0CFC0        mov edx,0xc0cff000
00001FF5  E843010000        call 0x213d
00001FFA  C706C4E10000      mov dword [esi],0xe1c4
00002000  897E04            mov [esi+0x4],edi
00002003  83661000          and dword [esi+0x10],byte +0x0
00002007  895E08            mov [esi+0x8],ebx
0000200A  83660C00          and dword [esi+0xc],byte +0x0
0000200E  8D742410          lea esi,[esp+0x10]
00002012  89F1              mov ecx,esi
00002014  E80AE8FFFF        call 0x823
00002019  8D442404          lea eax,[esp+0x4]
0000201D  C70000000100      mov dword [eax],0x10000
00002023  8903              mov [ebx],eax
00002025  B838BE0000        mov eax,0xbe38
0000202A  894304            mov [ebx+0x4],eax
0000202D  B8CCE10000        mov eax,0xe1cc
00002032  8906              mov [esi],eax
00002034  6A02              push byte +0x2
00002036  58                pop eax
00002037  894604            mov [esi+0x4],eax
0000203A  83661000          and dword [esi+0x10],byte +0x0
0000203E  895E08            mov [esi+0x8],ebx
00002041  897E0C            mov [esi+0xc],edi
00002044  8D742410          lea esi,[esp+0x10]
00002048  89F1              mov ecx,esi
0000204A  E8D4E7FFFF        call 0x823
0000204F  8D6C240A          lea ebp,[esp+0xa]
00002053  6683650000        and word [ebp+0x0],byte +0x0
00002058  83650200          and dword [ebp+0x2],byte +0x0
0000205C  0F014D00          sidt [ebp+0x0]
00002060  8D7C2430          lea edi,[esp+0x30]
00002064  893B              mov [ebx],edi
00002066  B838BE0000        mov eax,0xbe38
0000206B  894304            mov [ebx+0x4],eax
0000206E  B8CCE10000        mov eax,0xe1cc
00002073  8906              mov [esi],eax
00002075  6A02              push byte +0x2
00002077  58                pop eax
00002078  894604            mov [esi+0x4],eax
0000207B  83661000          and dword [esi+0x10],byte +0x0
0000207F  895E08            mov [esi+0x8],ebx
00002082  31C0              xor eax,eax
00002084  40                inc eax
00002085  89460C            mov [esi+0xc],eax
00002088  892F              mov [edi],ebp
0000208A  8D742410          lea esi,[esp+0x10]
0000208E  89F1              mov ecx,esi
00002090  E88EE7FFFF        call 0x823
00002095  8B4502            mov eax,[ebp+0x2]
00002098  8907              mov [edi],eax
0000209A  C74704C2B10000    mov dword [edi+0x4],0xb1c2
000020A1  6A02              push byte +0x2
000020A3  58                pop eax
000020A4  8906              mov [esi],eax
000020A6  894608            mov [esi+0x8],eax
000020A9  C7461020000000    mov dword [esi+0x10],0x20
000020B0  83661400          and dword [esi+0x14],byte +0x0
000020B4  C7461810000000    mov dword [esi+0x18],0x10
000020BB  C6461C03          mov byte [esi+0x1c],0x3
000020BF  C703DCE10000      mov dword [ebx],0xe1dc
000020C5  894304            mov [ebx+0x4],eax
000020C8  897310            mov [ebx+0x10],esi
000020CB  31C0              xor eax,eax
000020CD  40                inc eax
000020CE  894314            mov [ebx+0x14],eax
000020D1  897B08            mov [ebx+0x8],edi
000020D4  89430C            mov [ebx+0xc],eax
000020D7  89C7              mov edi,eax
000020D9  8D4C2438          lea ecx,[esp+0x38]
000020DD  E841E7FFFF        call 0x823
000020E2  FA                cli
000020E3  CC                int3
000020E4  8D442404          lea eax,[esp+0x4]
000020E8  8B10              mov edx,[eax]
000020EA  6687DB            xchg bx,bx
000020ED  0F20D8            mov eax,cr3
000020F0  25FF0F0000        and eax,0xfff
000020F5  09D0              or eax,edx
000020F7  83C808            or eax,byte +0x8
000020FA  0F22D8            mov cr3,eax
000020FD  0F20E0            mov eax,cr4
00002100  0D80000000        or eax,0x80
00002105  83E0CF            and eax,byte -0x31
00002108  0F22E0            mov cr4,eax
0000210B  0F20C0            mov eax,cr0
0000210E  0D01000080        or eax,0x80000001
00002113  0F22C0            mov cr0,eax
00002116  C70604E20000      mov dword [esi],0xe204
0000211C  897E04            mov [esi+0x4],edi
0000211F  83661000          and dword [esi+0x10],byte +0x0
00002123  895E08            mov [esi+0x8],ebx
00002126  83660C00          and dword [esi+0xc],byte +0x0
0000212A  8D4C2410          lea ecx,[esp+0x10]
0000212E  E8F0E6FFFF        call 0x823
00002133  FB                sti
00002134  CC                int3
00002135  83C450            add esp,byte +0x50
00002138  5E                pop esi
00002139  5F                pop edi
0000213A  5B                pop ebx
0000213B  5D                pop ebp
0000213C  C3                ret
0000213D  55                push ebp
0000213E  53                push ebx
0000213F  57                push edi
00002140  56                push esi
00002141  83EC50            sub esp,byte +0x50
00002144  8B742464          mov esi,[esp+0x64]
00002148  A100004100        mov eax,[0x410000]
0000214D  89CF              mov edi,ecx
0000214F  C1EF16            shr edi,byte 0x16
00002152  893C24            mov [esp],edi
00002155  C1E60C            shl esi,byte 0xc
00002158  81CE0F010000      or esi,0x10f
0000215E  89CB              mov ebx,ecx
00002160  89CD              mov ebp,ecx
00002162  89C1              mov ecx,eax
00002164  39D5              cmp ebp,edx
00002166  7731              ja 0x2199
00002168  83F905            cmp ecx,byte +0x5
0000216B  0F8355010000      jnc near 0x22c6
00002171  C1E116            shl ecx,byte 0x16
00002174  89EF              mov edi,ebp
00002176  81E700F03F00      and edi,0x3ff000
0000217C  89B43900104100    mov [ecx+edi+0x411000],esi
00002183  81C500100000      add ebp,0x1000
00002189  89E9              mov ecx,ebp
0000218B  C1E916            shr ecx,byte 0x16
0000218E  2B0C24            sub ecx,[esp]
00002191  81C600000001      add esi,0x1000000
00002197  EBCB              jmp short 0x2164
00002199  89D9              mov ecx,ebx
0000219B  C1E90C            shr ecx,byte 0xc
0000219E  81E1FF030000      and ecx,0x3ff
000021A4  894C2408          mov [esp+0x8],ecx
000021A8  81E3FF0F0000      and ebx,0xfff
000021AE  895C240C          mov [esp+0xc],ebx
000021B2  81C500F0FFFF      add ebp,0xfffff000
000021B8  C1ED16            shr ebp,byte 0x16
000021BB  89E9              mov ecx,ebp
000021BD  F7D1              not ecx
000021BF  030C24            add ecx,[esp]
000021C2  894C2410          mov [esp+0x10],ecx
000021C6  31F6              xor esi,esi
000021C8  BF9ABE0000        mov edi,0xbe9a
000021CD  B900104100        mov ecx,0x411000
000021D2  C1E10C            shl ecx,byte 0xc
000021D5  83C90F            or ecx,byte +0xf
000021D8  894C2404          mov [esp+0x4],ecx
000021DC  8B4C2410          mov ecx,[esp+0x10]
000021E0  01F1              add ecx,esi
000021E2  0F8492000000      jz near 0x227a
000021E8  8B0424            mov eax,[esp]
000021EB  8D1C30            lea ebx,[eax+esi]
000021EE  81E3FF030000      and ebx,0x3ff
000021F4  895C2414          mov [esp+0x14],ebx
000021F8  8B442408          mov eax,[esp+0x8]
000021FC  89442418          mov [esp+0x18],eax
00002200  8B44240C          mov eax,[esp+0xc]
00002204  8944241C          mov [esp+0x1c],eax
00002208  8D442414          lea eax,[esp+0x14]
0000220C  89442438          mov [esp+0x38],eax
00002210  897C243C          mov [esp+0x3c],edi
00002214  8D442418          lea eax,[esp+0x18]
00002218  89442440          mov [esp+0x40],eax
0000221C  897C2444          mov [esp+0x44],edi
00002220  8D44241C          lea eax,[esp+0x1c]
00002224  89442448          mov [esp+0x48],eax
00002228  897C244C          mov [esp+0x4c],edi
0000222C  C744242070E20000  mov dword [esp+0x20],0xe270
00002234  C744242404000000  mov dword [esp+0x24],0x4
0000223C  8364243000        and dword [esp+0x30],byte +0x0
00002241  8D442438          lea eax,[esp+0x38]
00002245  89442428          mov [esp+0x28],eax
00002249  C744242C03000000  mov dword [esp+0x2c],0x3
00002251  8D4C2420          lea ecx,[esp+0x20]
00002255  E8C9E5FFFF        call 0x823
0000225A  A100004100        mov eax,[0x410000]
0000225F  8D0C06            lea ecx,[esi+eax]
00002262  83F904            cmp ecx,byte +0x4
00002265  776C              ja 0x22d3
00002267  46                inc esi
00002268  C1E30C            shl ebx,byte 0xc
0000226B  8B4C2404          mov ecx,[esp+0x4]
0000226F  898B00000100      mov [ebx+0x10000],ecx
00002275  E962FFFFFF        jmp 0x21dc
0000227A  2B2C24            sub ebp,[esp]
0000227D  8D440501          lea eax,[ebp+eax+0x1]
00002281  A300004100        mov [0x410000],eax
00002286  C744242000004100  mov dword [esp+0x20],0x410000
0000228E  C74424249ABE0000  mov dword [esp+0x24],0xbe9a
00002296  8D4C2438          lea ecx,[esp+0x38]
0000229A  C7012CE20000      mov dword [ecx],0xe22c
000022A0  C7410402000000    mov dword [ecx+0x4],0x2
000022A7  83611000          and dword [ecx+0x10],byte +0x0
000022AB  8D442420          lea eax,[esp+0x20]
000022AF  894108            mov [ecx+0x8],eax
000022B2  C7410C01000000    mov dword [ecx+0xc],0x1
000022B9  E865E5FFFF        call 0x823
000022BE  83C450            add esp,byte +0x50
000022C1  5E                pop esi
000022C2  5F                pop edi
000022C3  5B                pop ebx
000022C4  5D                pop ebp
000022C5  C3                ret
000022C6  6A05              push byte +0x5
000022C8  5A                pop edx
000022C9  68B4E20000        push dword 0xe2b4
000022CE  E873020000        call 0x2546
000022D3  6A05              push byte +0x5
000022D5  5A                pop edx
000022D6  68A4E20000        push dword 0xe2a4
000022DB  E866020000        call 0x2546
000022E0  55                push ebp
000022E1  53                push ebx
000022E2  57                push edi
000022E3  56                push esi
000022E4  83EC2C            sub esp,byte +0x2c
000022E7  89CE              mov esi,ecx
000022E9  890C24            mov [esp],ecx
000022EC  6A4F              push byte +0x4f
000022EE  59                pop ecx
000022EF  E816E5FFFF        call 0x80a
000022F4  8B4608            mov eax,[esi+0x8]
000022F7  85C0              test eax,eax
000022F9  7533              jnz 0x232e
000022FB  89E0              mov eax,esp
000022FD  8D54240C          lea edx,[esp+0xc]
00002301  8902              mov [edx],eax
00002303  C74204EE900000    mov dword [edx+0x4],0x90ee
0000230A  8D4C2414          lea ecx,[esp+0x14]
0000230E  C70134E30000      mov dword [ecx],0xe334
00002314  C7410402000000    mov dword [ecx+0x4],0x2
0000231B  83611000          and dword [ecx+0x10],byte +0x0
0000231F  895108            mov [ecx+0x8],edx
00002322  C7410C01000000    mov dword [ecx+0xc],0x1
00002329  E98A000000        jmp 0x23b8
0000232E  8D4C2404          lea ecx,[esp+0x4]
00002332  8901              mov [ecx],eax
00002334  8D7C2414          lea edi,[esp+0x14]
00002338  C70750E30000      mov dword [edi],0xe350
0000233E  31DB              xor ebx,ebx
00002340  43                inc ebx
00002341  895F04            mov [edi+0x4],ebx
00002344  83671000          and dword [edi+0x10],byte +0x0
00002348  C74708F4E70000    mov dword [edi+0x8],0xe7f4
0000234F  83670C00          and dword [edi+0xc],byte +0x0
00002353  89F9              mov ecx,edi
00002355  E8C9E4FFFF        call 0x823
0000235A  8B460C            mov eax,[esi+0xc]
0000235D  8D4C2408          lea ecx,[esp+0x8]
00002361  8901              mov [ecx],eax
00002363  8D6C240C          lea ebp,[esp+0xc]
00002367  894D00            mov [ebp+0x0],ecx
0000236A  C7450447920000    mov dword [ebp+0x4],0x9247
00002371  C707A8E00000      mov dword [edi],0xe0a8
00002377  895F04            mov [edi+0x4],ebx
0000237A  83671000          and dword [edi+0x10],byte +0x0
0000237E  896F08            mov [edi+0x8],ebp
00002381  895F0C            mov [edi+0xc],ebx
00002384  8D742414          lea esi,[esp+0x14]
00002388  89F1              mov ecx,esi
0000238A  E894E4FFFF        call 0x823
0000238F  8D442404          lea eax,[esp+0x4]
00002393  894500            mov [ebp+0x0],eax
00002396  C74504A2920000    mov dword [ebp+0x4],0x92a2
0000239D  C7065CE30000      mov dword [esi],0xe35c
000023A3  C7460402000000    mov dword [esi+0x4],0x2
000023AA  83661000          and dword [esi+0x10],byte +0x0
000023AE  896E08            mov [esi+0x8],ebp
000023B1  895E0C            mov [esi+0xc],ebx
000023B4  8D4C2414          lea ecx,[esp+0x14]
000023B8  E866E4FFFF        call 0x823
000023BD  E8E0FBFFFF        call 0x1fa2
000023C2  55                push ebp
000023C3  53                push ebx
000023C4  57                push edi
000023C5  56                push esi
000023C6  83EC0C            sub esp,byte +0xc
000023C9  8B4C2424          mov ecx,[esp+0x24]
000023CD  8B542420          mov edx,[esp+0x20]
000023D1  0FB732            movzx esi,word [edx]
000023D4  8D6C2402          lea ebp,[esp+0x2]
000023D8  66897500          mov [ebp+0x0],si
000023DC  0FB77A02          movzx edi,word [edx+0x2]
000023E0  8D742404          lea esi,[esp+0x4]
000023E4  66893E            mov [esi],di
000023E7  8A5A04            mov bl,[edx+0x4]
000023EA  89E7              mov edi,esp
000023EC  881F              mov [edi],bl
000023EE  8A4205            mov al,[edx+0x5]
000023F1  8D5C2401          lea ebx,[esp+0x1]
000023F5  8803              mov [ebx],al
000023F7  0FB74206          movzx eax,word [edx+0x6]
000023FB  8D542406          lea edx,[esp+0x6]
000023FF  668902            mov [edx],ax
00002402  8D442408          lea eax,[esp+0x8]
00002406  8910              mov [eax],edx
00002408  BA6CE30000        mov edx,0xe36c
0000240D  68F0E30000        push dword 0xe3f0
00002412  50                push eax
00002413  6A0B              push byte +0xb
00002415  68E4E30000        push dword 0xe3e4
0000241A  68D4E30000        push dword 0xe3d4
0000241F  53                push ebx
00002420  6A09              push byte +0x9
00002422  68C8E30000        push dword 0xe3c8
00002427  68B8E30000        push dword 0xe3b8
0000242C  57                push edi
0000242D  6A0D              push byte +0xd
0000242F  68A8E30000        push dword 0xe3a8
00002434  6898E30000        push dword 0xe398
00002439  56                push esi
0000243A  6A0C              push byte +0xc
0000243C  688CE30000        push dword 0xe38c
00002441  687CE30000        push dword 0xe37c
00002446  55                push ebp
00002447  6A0A              push byte +0xa
00002449  686FE30000        push dword 0xe36f
0000244E  6A03              push byte +0x3
00002450  E8A5180000        call 0x3cfa
00002455  83C460            add esp,byte +0x60
00002458  5E                pop esi
00002459  5F                pop edi
0000245A  5B                pop ebx
0000245B  5D                pop ebp
0000245C  C3                ret
0000245D  56                push esi
0000245E  50                push eax
0000245F  8B4C2410          mov ecx,[esp+0x10]
00002463  8B44240C          mov eax,[esp+0xc]
00002467  89E6              mov esi,esp
00002469  8906              mov [esi],eax
0000246B  BA00E40000        mov edx,0xe400
00002470  68CA900000        push dword 0x90ca
00002475  56                push esi
00002476  6A0E              push byte +0xe
00002478  E836190000        call 0x3db3
0000247D  83C410            add esp,byte +0x10
00002480  5E                pop esi
00002481  C3                ret
00002482  55                push ebp
00002483  53                push ebx
00002484  57                push edi
00002485  56                push esi
00002486  83EC08            sub esp,byte +0x8
00002489  8B4C2420          mov ecx,[esp+0x20]
0000248D  8B44241C          mov eax,[esp+0x1c]
00002491  8D5004            lea edx,[eax+0x4]
00002494  891424            mov [esp],edx
00002497  8D5808            lea ebx,[eax+0x8]
0000249A  8D680C            lea ebp,[eax+0xc]
0000249D  8D5010            lea edx,[eax+0x10]
000024A0  8D7C2404          lea edi,[esp+0x4]
000024A4  8917              mov [edi],edx
000024A6  BEC0DE0000        mov esi,0xdec0
000024AB  BA0EE40000        mov edx,0xe40e
000024B0  68D4DE0000        push dword 0xded4
000024B5  57                push edi
000024B6  6A0D              push byte +0xd
000024B8  684EE40000        push dword 0xe44e
000024BD  56                push esi
000024BE  55                push ebp
000024BF  6A09              push byte +0x9
000024C1  5F                pop edi
000024C2  57                push edi
000024C3  6845E40000        push dword 0xe445
000024C8  56                push esi
000024C9  53                push ebx
000024CA  6A09              push byte +0x9
000024CC  5F                pop edi
000024CD  57                push edi
000024CE  683CE40000        push dword 0xe43c
000024D3  56                push esi
000024D4  FF742434          push dword [esp+0x34]
000024D8  6A0C              push byte +0xc
000024DA  6830E40000        push dword 0xe430
000024DF  56                push esi
000024E0  50                push eax
000024E1  6A0F              push byte +0xf
000024E3  6821E40000        push dword 0xe421
000024E8  6A13              push byte +0x13
000024EA  E80B180000        call 0x3cfa
000024EF  83C45C            add esp,byte +0x5c
000024F2  5E                pop esi
000024F3  5F                pop edi
000024F4  5B                pop ebx
000024F5  5D                pop ebp
000024F6  C3                ret
000024F7  8B442404          mov eax,[esp+0x4]
000024FB  8B00              mov eax,[eax]
000024FD  EBFE              jmp short 0x24fd
000024FF  83EC14            sub esp,byte +0x14
00002502  89E0              mov eax,esp
00002504  C700F4E70000      mov dword [eax],0xe7f4
0000250A  C7400478E80000    mov dword [eax+0x4],0xe878
00002511  894808            mov [eax+0x8],ecx
00002514  89500C            mov [eax+0xc],edx
00002517  66C740100100      mov word [eax+0x10],0x1
0000251D  89C1              mov ecx,eax
0000251F  E8BCFDFFFF        call 0x22e0
00002524  8B442404          mov eax,[esp+0x4]
00002528  C7400C97596797    mov dword [eax+0xc],0x97675997
0000252F  C7400866F090FA    mov dword [eax+0x8],0xfa90f066
00002536  C740049A72E73D    mov dword [eax+0x4],0x3de7729a
0000253D  C700AC9AFFDA      mov dword [eax],0xdaff9aac
00002543  C20400            ret 0x4
00002546  56                push esi
00002547  83EC30            sub esp,byte +0x30
0000254A  89D0              mov eax,edx
0000254C  8B542438          mov edx,[esp+0x38]
00002550  89E6              mov esi,esp
00002552  890E              mov [esi],ecx
00002554  8D4C2404          lea ecx,[esp+0x4]
00002558  8901              mov [ecx],eax
0000255A  8D442408          lea eax,[esp+0x8]
0000255E  8908              mov [eax],ecx
00002560  B99ABE0000        mov ecx,0xbe9a
00002565  894804            mov [eax+0x4],ecx
00002568  897008            mov [eax+0x8],esi
0000256B  89480C            mov [eax+0xc],ecx
0000256E  8D4C2418          lea ecx,[esp+0x18]
00002572  C701BCE80000      mov dword [ecx],0xe8bc
00002578  6A02              push byte +0x2
0000257A  5E                pop esi
0000257B  897104            mov [ecx+0x4],esi
0000257E  83611000          and dword [ecx+0x10],byte +0x0
00002582  894108            mov [ecx+0x8],eax
00002585  89710C            mov [ecx+0xc],esi
00002588  E872FFFFFF        call 0x24ff
0000258D  55                push ebp
0000258E  53                push ebx
0000258F  57                push edi
00002590  56                push esi
00002591  83EC28            sub esp,byte +0x28
00002594  89D6              mov esi,edx
00002596  6A27              push byte +0x27
00002598  5F                pop edi
00002599  BB10270000        mov ebx,0x2710
0000259E  66BD6400          mov bp,0x64
000025A2  81F90F270000      cmp ecx,0x270f
000025A8  7634              jna 0x25de
000025AA  89C8              mov eax,ecx
000025AC  31D2              xor edx,edx
000025AE  F7F3              div ebx
000025B0  89C1              mov ecx,eax
000025B2  89D0              mov eax,edx
000025B4  31D2              xor edx,edx
000025B6  66F7F5            div bp
000025B9  0FB7C0            movzx eax,ax
000025BC  0FB7D2            movzx edx,dx
000025BF  0FB7840092E90000  movzx eax,word [eax+eax+0xe992]
000025C7  6689443CFD        mov [esp+edi-0x3],ax
000025CC  0FB7841292E90000  movzx eax,word [edx+edx+0xe992]
000025D4  6689443CFF        mov [esp+edi-0x1],ax
000025D9  83C7FC            add edi,byte -0x4
000025DC  EBC4              jmp short 0x25a2
000025DE  83F963            cmp ecx,byte +0x63
000025E1  7621              jna 0x2604
000025E3  66BB6400          mov bx,0x64
000025E7  89C8              mov eax,ecx
000025E9  31D2              xor edx,edx
000025EB  66F7F3            div bx
000025EE  0FB7D2            movzx edx,dx
000025F1  0FB7C8            movzx ecx,ax
000025F4  0FB7841292E90000  movzx eax,word [edx+edx+0xe992]
000025FC  6689443CFF        mov [esp+edi-0x1],ax
00002601  83C7FE            add edi,byte -0x2
00002604  83F90A            cmp ecx,byte +0xa
00002607  7309              jnc 0x2612
00002609  80C130            add cl,0x30
0000260C  880C3C            mov [esp+edi],cl
0000260F  4F                dec edi
00002610  EB10              jmp short 0x2622
00002612  0FB7840992E90000  movzx eax,word [ecx+ecx+0xe992]
0000261A  6689443CFF        mov [esp+edi-0x1],ax
0000261F  83C7FE            add edi,byte -0x2
00002622  8D443C01          lea eax,[esp+edi+0x1]
00002626  6A27              push byte +0x27
00002628  5B                pop ebx
00002629  29FB              sub ebx,edi
0000262B  89F1              mov ecx,esi
0000262D  BAF4E70000        mov edx,0xe7f4
00002632  53                push ebx
00002633  50                push eax
00002634  6A00              push byte +0x0
00002636  E808000000        call 0x2643
0000263B  83C434            add esp,byte +0x34
0000263E  5E                pop esi
0000263F  5F                pop edi
00002640  5B                pop ebx
00002641  5D                pop ebp
00002642  C3                ret
00002643  55                push ebp
00002644  53                push ebx
00002645  57                push edi
00002646  56                push esi
00002647  83EC14            sub esp,byte +0x14
0000264A  89D7              mov edi,edx
0000264C  89CE              mov esi,ecx
0000264E  8B511C            mov edx,[ecx+0x1c]
00002651  89D3              mov ebx,edx
00002653  83E301            and ebx,byte +0x1
00002656  B800001100        mov eax,0x110000
0000265B  7403              jz 0x2660
0000265D  6A2B              push byte +0x2b
0000265F  58                pop eax
00002660  8B4C2428          mov ecx,[esp+0x28]
00002664  035C2430          add ebx,[esp+0x30]
00002668  F6C204            test dl,0x4
0000266B  89442404          mov [esp+0x4],eax
0000266F  7504              jnz 0x2675
00002671  31FF              xor edi,edi
00002673  EB10              jmp short 0x2685
00002675  89D5              mov ebp,edx
00002677  8D140F            lea edx,[edi+ecx]
0000267A  89F9              mov ecx,edi
0000267C  E86D010000        call 0x27ee
00002681  89EA              mov edx,ebp
00002683  01C3              add ebx,eax
00002685  8B44242C          mov eax,[esp+0x2c]
00002689  833E00            cmp dword [esi],byte +0x0
0000268C  0F8480000000      jz near 0x2712
00002692  8B6E04            mov ebp,[esi+0x4]
00002695  29DD              sub ebp,ebx
00002697  7679              jna 0x2712
00002699  F6C208            test dl,0x8
0000269C  0F85A5000000      jnz near 0x2747
000026A2  89F1              mov ecx,esi
000026A4  89EA              mov edx,ebp
000026A6  6A01              push byte +0x1
000026A8  E8FD020000        call 0x29aa
000026AD  59                pop ecx
000026AE  B101              mov cl,0x1
000026B0  3D00001100        cmp eax,0x110000
000026B5  0F8402010000      jz near 0x27bd
000026BB  89C5              mov ebp,eax
000026BD  89542408          mov [esp+0x8],edx
000026C1  8B4E14            mov ecx,[esi+0x14]
000026C4  8B7618            mov esi,[esi+0x18]
000026C7  89CB              mov ebx,ecx
000026C9  89F2              mov edx,esi
000026CB  FF742428          push dword [esp+0x28]
000026CF  57                push edi
000026D0  FF74240C          push dword [esp+0xc]
000026D4  E895020000        call 0x296e
000026D9  83C40C            add esp,byte +0xc
000026DC  84C0              test al,al
000026DE  0F85D7000000      jnz near 0x27bb
000026E4  FF742430          push dword [esp+0x30]
000026E8  FF742430          push dword [esp+0x30]
000026EC  53                push ebx
000026ED  FF560C            call [esi+0xc]
000026F0  83C40C            add esp,byte +0xc
000026F3  84C0              test al,al
000026F5  B101              mov cl,0x1
000026F7  0F85C0000000      jnz near 0x27bd
000026FD  89E9              mov ecx,ebp
000026FF  8B542408          mov edx,[esp+0x8]
00002703  56                push esi
00002704  53                push ebx
00002705  E8FE020000        call 0x2a08
0000270A  83C41C            add esp,byte +0x1c
0000270D  E9B0000000        jmp 0x27c2
00002712  89C3              mov ebx,eax
00002714  8B6E14            mov ebp,[esi+0x14]
00002717  8B7618            mov esi,[esi+0x18]
0000271A  89E9              mov ecx,ebp
0000271C  89F2              mov edx,esi
0000271E  FF742428          push dword [esp+0x28]
00002722  57                push edi
00002723  FF74240C          push dword [esp+0xc]
00002727  E842020000        call 0x296e
0000272C  83C40C            add esp,byte +0xc
0000272F  B101              mov cl,0x1
00002731  84C0              test al,al
00002733  0F8584000000      jnz near 0x27bd
00002739  FF742430          push dword [esp+0x30]
0000273D  53                push ebx
0000273E  55                push ebp
0000273F  FF560C            call [esi+0xc]
00002742  83C420            add esp,byte +0x20
00002745  EB7B              jmp short 0x27c2
00002747  8B4610            mov eax,[esi+0x10]
0000274A  89442410          mov [esp+0x10],eax
0000274E  8B4E14            mov ecx,[esi+0x14]
00002751  C7461030000000    mov dword [esi+0x10],0x30
00002758  8A4620            mov al,[esi+0x20]
0000275B  88442403          mov [esp+0x3],al
0000275F  C6462001          mov byte [esi+0x20],0x1
00002763  8B5E18            mov ebx,[esi+0x18]
00002766  894C2408          mov [esp+0x8],ecx
0000276A  89DA              mov edx,ebx
0000276C  FF742428          push dword [esp+0x28]
00002770  57                push edi
00002771  FF74240C          push dword [esp+0xc]
00002775  E8F4010000        call 0x296e
0000277A  83C40C            add esp,byte +0xc
0000277D  B101              mov cl,0x1
0000277F  84C0              test al,al
00002781  753A              jnz 0x27bd
00002783  895C2404          mov [esp+0x4],ebx
00002787  8B5C2408          mov ebx,[esp+0x8]
0000278B  89F1              mov ecx,esi
0000278D  89EA              mov edx,ebp
0000278F  6A01              push byte +0x1
00002791  E814020000        call 0x29aa
00002796  59                pop ecx
00002797  3D00001100        cmp eax,0x110000
0000279C  741D              jz 0x27bb
0000279E  89C7              mov edi,eax
000027A0  8954240C          mov [esp+0xc],edx
000027A4  FF742430          push dword [esp+0x30]
000027A8  FF742430          push dword [esp+0x30]
000027AC  53                push ebx
000027AD  8B6C2410          mov ebp,[esp+0x10]
000027B1  FF550C            call [ebp+0xc]
000027B4  83C40C            add esp,byte +0xc
000027B7  84C0              test al,al
000027B9  740C              jz 0x27c7
000027BB  B101              mov cl,0x1
000027BD  89C8              mov eax,ecx
000027BF  83C414            add esp,byte +0x14
000027C2  5E                pop esi
000027C3  5F                pop edi
000027C4  5B                pop ebx
000027C5  5D                pop ebp
000027C6  C3                ret
000027C7  89F9              mov ecx,edi
000027C9  8B54240C          mov edx,[esp+0xc]
000027CD  55                push ebp
000027CE  53                push ebx
000027CF  E834020000        call 0x2a08
000027D4  59                pop ecx
000027D5  5A                pop edx
000027D6  84C0              test al,al
000027D8  B101              mov cl,0x1
000027DA  75E1              jnz 0x27bd
000027DC  8B442410          mov eax,[esp+0x10]
000027E0  894610            mov [esi+0x10],eax
000027E3  8A442403          mov al,[esp+0x3]
000027E7  884620            mov [esi+0x20],al
000027EA  31C9              xor ecx,ecx
000027EC  EBCF              jmp short 0x27bd
000027EE  55                push ebp
000027EF  53                push ebx
000027F0  57                push edi
000027F1  56                push esi
000027F2  83EC24            sub esp,byte +0x24
000027F5  29CA              sub edx,ecx
000027F7  83FA10            cmp edx,byte +0x10
000027FA  7211              jc 0x280d
000027FC  8D7103            lea esi,[ecx+0x3]
000027FF  83E6FC            and esi,byte -0x4
00002802  29CE              sub esi,ecx
00002804  89D5              mov ebp,edx
00002806  29F5              sub ebp,esi
00002808  83FD04            cmp ebp,byte +0x4
0000280B  730E              jnc 0x281b
0000280D  01CA              add edx,ecx
0000280F  83C424            add esp,byte +0x24
00002812  5E                pop esi
00002813  5F                pop edi
00002814  5B                pop ebx
00002815  5D                pop ebp
00002816  E92E020000        jmp 0x2a49
0000281B  89EF              mov edi,ebp
0000281D  C1EF02            shr edi,byte 0x2
00002820  89EB              mov ebx,ebp
00002822  83E303            and ebx,byte +0x3
00002825  01CE              add esi,ecx
00002827  83E5FC            and ebp,byte -0x4
0000282A  01F5              add ebp,esi
0000282C  89F2              mov edx,esi
0000282E  E816020000        call 0x2a49
00002833  890424            mov [esp],eax
00002836  01EB              add ebx,ebp
00002838  89E9              mov ecx,ebp
0000283A  89DA              mov edx,ebx
0000283C  E808020000        call 0x2a49
00002841  030424            add eax,[esp]
00002844  6AFC              push byte -0x4
00002846  5D                pop ebp
00002847  85FF              test edi,edi
00002849  0F8417010000      jz near 0x2966
0000284F  890424            mov [esp],eax
00002852  B8C0000000        mov eax,0xc0
00002857  39C7              cmp edi,eax
00002859  89F8              mov eax,edi
0000285B  7205              jc 0x2862
0000285D  B8C0000000        mov eax,0xc0
00002862  8D5C2404          lea ebx,[esp+0x4]
00002866  89D9              mov ecx,ebx
00002868  89F2              mov edx,esi
0000286A  68ECEB0000        push dword 0xebec
0000286F  50                push eax
00002870  57                push edi
00002871  E8EF010000        call 0x2a65
00002876  83C40C            add esp,byte +0xc
00002879  8B542404          mov edx,[esp+0x4]
0000287D  8B442408          mov eax,[esp+0x8]
00002881  8B4C240C          mov ecx,[esp+0xc]
00002885  894C2420          mov [esp+0x20],ecx
00002889  8B4C2410          mov ecx,[esp+0x10]
0000288D  894C241C          mov [esp+0x1c],ecx
00002891  89C7              mov edi,eax
00002893  83E7FC            and edi,byte -0x4
00002896  89D9              mov ecx,ebx
00002898  68ECEC0000        push dword 0xecec
0000289D  57                push edi
0000289E  50                push eax
0000289F  E8C1010000        call 0x2a65
000028A4  83C40C            add esp,byte +0xc
000028A7  8B7C2404          mov edi,[esp+0x4]
000028AB  8B442408          mov eax,[esp+0x8]
000028AF  8B4C240C          mov ecx,[esp+0xc]
000028B3  894C2414          mov [esp+0x14],ecx
000028B7  8B4C2410          mov ecx,[esp+0x10]
000028BB  894C2418          mov [esp+0x18],ecx
000028BF  8D0487            lea eax,[edi+eax*4]
000028C2  31D2              xor edx,edx
000028C4  39C7              cmp edi,eax
000028C6  7426              jz 0x28ee
000028C8  89EB              mov ebx,ebp
000028CA  85DB              test ebx,ebx
000028CC  741B              jz 0x28e9
000028CE  8B749F10          mov esi,[edi+ebx*4+0x10]
000028D2  89F1              mov ecx,esi
000028D4  F7D1              not ecx
000028D6  C1E907            shr ecx,byte 0x7
000028D9  C1EE06            shr esi,byte 0x6
000028DC  09CE              or esi,ecx
000028DE  81E601010101      and esi,0x1010101
000028E4  01F2              add edx,esi
000028E6  43                inc ebx
000028E7  EBE1              jmp short 0x28ca
000028E9  83C710            add edi,byte +0x10
000028EC  EBD6              jmp short 0x28c4
000028EE  89D0              mov eax,edx
000028F0  B9FF00FF00        mov ecx,0xff00ff
000028F5  21C8              and eax,ecx
000028F7  C1EA08            shr edx,byte 0x8
000028FA  21CA              and edx,ecx
000028FC  01C2              add edx,eax
000028FE  69CA01000100      imul ecx,edx,dword 0x10001
00002904  C1E910            shr ecx,byte 0x10
00002907  8B0424            mov eax,[esp]
0000290A  01C8              add eax,ecx
0000290C  8B5C2418          mov ebx,[esp+0x18]
00002910  85DB              test ebx,ebx
00002912  8B742420          mov esi,[esp+0x20]
00002916  8B7C241C          mov edi,[esp+0x1c]
0000291A  0F8427FFFFFF      jz near 0x2847
00002920  C1E302            shl ebx,byte 0x2
00002923  31FF              xor edi,edi
00002925  8B4C2414          mov ecx,[esp+0x14]
00002929  85DB              test ebx,ebx
0000292B  741E              jz 0x294b
0000292D  8B11              mov edx,[ecx]
0000292F  83C104            add ecx,byte +0x4
00002932  89D6              mov esi,edx
00002934  F7D6              not esi
00002936  C1EE07            shr esi,byte 0x7
00002939  C1EA06            shr edx,byte 0x6
0000293C  09F2              or edx,esi
0000293E  81E201010101      and edx,0x1010101
00002944  01D7              add edi,edx
00002946  83C3FC            add ebx,byte -0x4
00002949  EBDE              jmp short 0x2929
0000294B  B9FF00FF00        mov ecx,0xff00ff
00002950  89FA              mov edx,edi
00002952  21CA              and edx,ecx
00002954  C1EF08            shr edi,byte 0x8
00002957  21CF              and edi,ecx
00002959  01D7              add edi,edx
0000295B  69CF01000100      imul ecx,edi,dword 0x10001
00002961  C1E910            shr ecx,byte 0x10
00002964  01C8              add eax,ecx
00002966  83C424            add esp,byte +0x24
00002969  5E                pop esi
0000296A  5F                pop edi
0000296B  5B                pop ebx
0000296C  5D                pop ebp
0000296D  C3                ret
0000296E  57                push edi
0000296F  56                push esi
00002970  89D6              mov esi,edx
00002972  89CF              mov edi,ecx
00002974  8B44240C          mov eax,[esp+0xc]
00002978  3D00001100        cmp eax,0x110000
0000297D  7410              jz 0x298f
0000297F  50                push eax
00002980  57                push edi
00002981  FF5610            call [esi+0x10]
00002984  83C408            add esp,byte +0x8
00002987  89C1              mov ecx,eax
00002989  B001              mov al,0x1
0000298B  84C9              test cl,cl
0000298D  7518              jnz 0x29a7
0000298F  8B442410          mov eax,[esp+0x10]
00002993  85C0              test eax,eax
00002995  740E              jz 0x29a5
00002997  FF742414          push dword [esp+0x14]
0000299B  50                push eax
0000299C  57                push edi
0000299D  FF560C            call [esi+0xc]
000029A0  83C40C            add esp,byte +0xc
000029A3  EB02              jmp short 0x29a7
000029A5  31C0              xor eax,eax
000029A7  5E                pop esi
000029A8  5F                pop edi
000029A9  C3                ret
000029AA  55                push ebp
000029AB  53                push ebx
000029AC  57                push edi
000029AD  56                push esi
000029AE  50                push eax
000029AF  0FB65920          movzx ebx,byte [ecx+0x20]
000029B3  FF249D04D90000    jmp [ebx*4+0xd904]
000029BA  89D3              mov ebx,edx
000029BC  D1EB              shr ebx,1
000029BE  42                inc edx
000029BF  D1EA              shr edx,1
000029C1  891424            mov [esp],edx
000029C4  EB17              jmp short 0x29dd
000029C6  807C241800        cmp byte [esp+0x18],0x0
000029CB  740B              jz 0x29d8
000029CD  89D3              mov ebx,edx
000029CF  C7042400000000    mov dword [esp],0x0
000029D6  EB05              jmp short 0x29dd
000029D8  891424            mov [esp],edx
000029DB  31DB              xor ebx,ebx
000029DD  8B7910            mov edi,[ecx+0x10]
000029E0  8B6914            mov ebp,[ecx+0x14]
000029E3  8B7118            mov esi,[ecx+0x18]
000029E6  43                inc ebx
000029E7  4B                dec ebx
000029E8  7411              jz 0x29fb
000029EA  57                push edi
000029EB  55                push ebp
000029EC  FF5610            call [esi+0x10]
000029EF  83C408            add esp,byte +0x8
000029F2  84C0              test al,al
000029F4  74F1              jz 0x29e7
000029F6  BF00001100        mov edi,0x110000
000029FB  8B1424            mov edx,[esp]
000029FE  89F8              mov eax,edi
00002A00  83C404            add esp,byte +0x4
00002A03  5E                pop esi
00002A04  5F                pop edi
00002A05  5B                pop ebx
00002A06  5D                pop ebp
00002A07  C3                ret
00002A08  55                push ebp
00002A09  53                push ebx
00002A0A  57                push edi
00002A0B  56                push esi
00002A0C  50                push eax
00002A0D  89D3              mov ebx,edx
00002A0F  89CF              mov edi,ecx
00002A11  8B742418          mov esi,[esp+0x18]
00002A15  891424            mov [esp],edx
00002A18  F7DB              neg ebx
00002A1A  31ED              xor ebp,ebp
00002A1C  4D                dec ebp
00002A1D  8D042B            lea eax,[ebx+ebp]
00002A20  83F8FF            cmp eax,byte -0x1
00002A23  7413              jz 0x2a38
00002A25  57                push edi
00002A26  56                push esi
00002A27  8B442424          mov eax,[esp+0x24]
00002A2B  FF5010            call [eax+0x10]
00002A2E  83C408            add esp,byte +0x8
00002A31  45                inc ebp
00002A32  84C0              test al,al
00002A34  74E7              jz 0x2a1d
00002A36  EB03              jmp short 0x2a3b
00002A38  8B2C24            mov ebp,[esp]
00002A3B  3B2C24            cmp ebp,[esp]
00002A3E  0F92C0            setc al
00002A41  83C404            add esp,byte +0x4
00002A44  5E                pop esi
00002A45  5F                pop edi
00002A46  5B                pop ebx
00002A47  5D                pop ebp
00002A48  C3                ret
00002A49  39D1              cmp ecx,edx
00002A4B  7415              jz 0x2a62
00002A4D  53                push ebx
00002A4E  29CA              sub edx,ecx
00002A50  31C0              xor eax,eax
00002A52  31DB              xor ebx,ebx
00002A54  8039C0            cmp byte [ecx],0xc0
00002A57  0F9DC3            setnl bl
00002A5A  01D8              add eax,ebx
00002A5C  41                inc ecx
00002A5D  4A                dec edx
00002A5E  75F2              jnz 0x2a52
00002A60  5B                pop ebx
00002A61  C3                ret
00002A62  31C0              xor eax,eax
00002A64  C3                ret
00002A65  57                push edi
00002A66  56                push esi
00002A67  8B742410          mov esi,[esp+0x10]
00002A6B  8B44240C          mov eax,[esp+0xc]
00002A6F  29F0              sub eax,esi
00002A71  7211              jc 0x2a84
00002A73  8D3CB2            lea edi,[edx+esi*4]
00002A76  8911              mov [ecx],edx
00002A78  897104            mov [ecx+0x4],esi
00002A7B  897908            mov [ecx+0x8],edi
00002A7E  89410C            mov [ecx+0xc],eax
00002A81  5E                pop esi
00002A82  5F                pop edi
00002A83  C3                ret
00002A84  6A23              push byte +0x23
00002A86  5A                pop edx
00002A87  B9FCEB0000        mov ecx,0xebfc
00002A8C  FF742414          push dword [esp+0x14]
00002A90  E800000000        call 0x2a95
00002A95  56                push esi
00002A96  83EC20            sub esp,byte +0x20
00002A99  8B442428          mov eax,[esp+0x28]
00002A9D  89E6              mov esi,esp
00002A9F  890E              mov [esi],ecx
00002AA1  895604            mov [esi+0x4],edx
00002AA4  8D4C2408          lea ecx,[esp+0x8]
00002AA8  8931              mov [ecx],esi
00002AAA  C7410401000000    mov dword [ecx+0x4],0x1
00002AB1  83611000          and dword [ecx+0x10],byte +0x0
00002AB5  C74108F4E70000    mov dword [ecx+0x8],0xe7f4
00002ABC  83610C00          and dword [ecx+0xc],byte +0x0
00002AC0  89C2              mov edx,eax
00002AC2  E838FAFFFF        call 0x24ff
00002AC7  FF742404          push dword [esp+0x4]
00002ACB  E800000000        call 0x2ad0
00002AD0  56                push esi
00002AD1  83EC30            sub esp,byte +0x30
00002AD4  89D0              mov eax,edx
00002AD6  8B542438          mov edx,[esp+0x38]
00002ADA  89E6              mov esi,esp
00002ADC  890E              mov [esi],ecx
00002ADE  8D4C2404          lea ecx,[esp+0x4]
00002AE2  8901              mov [ecx],eax
00002AE4  8D442408          lea eax,[esp+0x8]
00002AE8  8930              mov [eax],esi
00002AEA  BE9ABE0000        mov esi,0xbe9a
00002AEF  897004            mov [eax+0x4],esi
00002AF2  894808            mov [eax+0x8],ecx
00002AF5  89700C            mov [eax+0xc],esi
00002AF8  8D4C2418          lea ecx,[esp+0x18]
00002AFC  C70124EB0000      mov dword [ecx],0xeb24
00002B02  6A02              push byte +0x2
00002B04  5E                pop esi
00002B05  897104            mov [ecx+0x4],esi
00002B08  83611000          and dword [ecx+0x10],byte +0x0
00002B0C  894108            mov [ecx+0x8],eax
00002B0F  89710C            mov [ecx+0xc],esi
00002B12  E8E8F9FFFF        call 0x24ff
00002B17  FF742404          push dword [esp+0x4]
00002B1B  E800000000        call 0x2b20
00002B20  56                push esi
00002B21  83EC30            sub esp,byte +0x30
00002B24  89D0              mov eax,edx
00002B26  8B542438          mov edx,[esp+0x38]
00002B2A  89E6              mov esi,esp
00002B2C  890E              mov [esi],ecx
00002B2E  8D4C2404          lea ecx,[esp+0x4]
00002B32  8901              mov [ecx],eax
00002B34  8D442408          lea eax,[esp+0x8]
00002B38  8930              mov [eax],esi
00002B3A  BE9ABE0000        mov esi,0xbe9a
00002B3F  897004            mov [eax+0x4],esi
00002B42  894808            mov [eax+0x8],ecx
00002B45  89700C            mov [eax+0xc],esi
00002B48  8D4C2418          lea ecx,[esp+0x18]
00002B4C  C70134EB0000      mov dword [ecx],0xeb34
00002B52  6A02              push byte +0x2
00002B54  5E                pop esi
00002B55  897104            mov [ecx+0x4],esi
00002B58  83611000          and dword [ecx+0x10],byte +0x0
00002B5C  894108            mov [ecx+0x8],eax
00002B5F  89710C            mov [ecx+0xc],esi
00002B62  E898F9FFFF        call 0x24ff
00002B67  56                push esi
00002B68  83EC30            sub esp,byte +0x30
00002B6B  89D0              mov eax,edx
00002B6D  8B542438          mov edx,[esp+0x38]
00002B71  89E6              mov esi,esp
00002B73  890E              mov [esi],ecx
00002B75  8D4C2404          lea ecx,[esp+0x4]
00002B79  8901              mov [ecx],eax
00002B7B  8D442408          lea eax,[esp+0x8]
00002B7F  8908              mov [eax],ecx
00002B81  B99ABE0000        mov ecx,0xbe9a
00002B86  894804            mov [eax+0x4],ecx
00002B89  897008            mov [eax+0x8],esi
00002B8C  89480C            mov [eax+0xc],ecx
00002B8F  8D4C2418          lea ecx,[esp+0x18]
00002B93  C70160EC0000      mov dword [ecx],0xec60
00002B99  C7410403000000    mov dword [ecx+0x4],0x3
00002BA0  83611000          and dword [ecx+0x10],byte +0x0
00002BA4  894108            mov [ecx+0x8],eax
00002BA7  C7410C02000000    mov dword [ecx+0xc],0x2
00002BAE  E84CF9FFFF        call 0x24ff
00002BB3  57                push edi
00002BB4  56                push esi
00002BB5  8B7C2414          mov edi,[esp+0x14]
00002BB9  89D6              mov esi,edx
00002BBB  29CE              sub esi,ecx
00002BBD  7213              jc 0x2bd2
00002BBF  8B442410          mov eax,[esp+0x10]
00002BC3  39C2              cmp edx,eax
00002BC5  7711              ja 0x2bd8
00002BC7  034C240C          add ecx,[esp+0xc]
00002BCB  89C8              mov eax,ecx
00002BCD  89F2              mov edx,esi
00002BCF  5E                pop esi
00002BD0  5F                pop edi
00002BD1  C3                ret
00002BD2  57                push edi
00002BD3  E80A000000        call 0x2be2
00002BD8  89D1              mov ecx,edx
00002BDA  89C2              mov edx,eax
00002BDC  57                push edi
00002BDD  E835FFFFFF        call 0x2b17
00002BE2  FF742404          push dword [esp+0x4]
00002BE6  E800000000        call 0x2beb
00002BEB  56                push esi
00002BEC  83EC30            sub esp,byte +0x30
00002BEF  89D0              mov eax,edx
00002BF1  8B542438          mov edx,[esp+0x38]
00002BF5  89E6              mov esi,esp
00002BF7  890E              mov [esi],ecx
00002BF9  8D4C2404          lea ecx,[esp+0x4]
00002BFD  8901              mov [ecx],eax
00002BFF  8D442408          lea eax,[esp+0x8]
00002C03  8930              mov [eax],esi
00002C05  BE9ABE0000        mov esi,0xbe9a
00002C0A  897004            mov [eax+0x4],esi
00002C0D  894808            mov [eax+0x8],ecx
00002C10  89700C            mov [eax+0xc],esi
00002C13  8D4C2418          lea ecx,[esp+0x18]
00002C17  C70168EB0000      mov dword [ecx],0xeb68
00002C1D  6A02              push byte +0x2
00002C1F  5E                pop esi
00002C20  897104            mov [ecx+0x4],esi
00002C23  83611000          and dword [ecx+0x10],byte +0x0
00002C27  894108            mov [ecx+0x8],eax
00002C2A  89710C            mov [ecx+0xc],esi
00002C2D  E8CDF8FFFF        call 0x24ff
00002C32  55                push ebp
00002C33  53                push ebx
00002C34  57                push edi
00002C35  56                push esi
00002C36  83EC10            sub esp,byte +0x10
00002C39  89D7              mov edi,edx
00002C3B  89CE              mov esi,ecx
00002C3D  8B5C2424          mov ebx,[esp+0x24]
00002C41  8B29              mov ebp,[ecx]
00002C43  8B4108            mov eax,[ecx+0x8]
00002C46  89E9              mov ecx,ebp
00002C48  09C1              or ecx,eax
00002C4A  0F8493000000      jz near 0x2ce3
00002C50  85C0              test eax,eax
00002C52  7445              jz 0x2c99
00002C54  89F9              mov ecx,edi
00002C56  8B7E0C            mov edi,[esi+0xc]
00002C59  8D0419            lea eax,[ecx+ebx]
00002C5C  8D5C2404          lea ebx,[esp+0x4]
00002C60  83630800          and dword [ebx+0x8],byte +0x0
00002C64  890C24            mov [esp],ecx
00002C67  890B              mov [ebx],ecx
00002C69  894304            mov [ebx+0x4],eax
00002C6C  47                inc edi
00002C6D  4F                dec edi
00002C6E  7411              jz 0x2c81
00002C70  89D9              mov ecx,ebx
00002C72  E8B1000000        call 0x2d28
00002C77  81FA00001100      cmp edx,0x110000
00002C7D  75EE              jnz 0x2c6d
00002C7F  EB11              jmp short 0x2c92
00002C81  8D4C2404          lea ecx,[esp+0x4]
00002C85  E89E000000        call 0x2d28
00002C8A  81FA00001100      cmp edx,0x110000
00002C90  756A              jnz 0x2cfc
00002C92  8B3C24            mov edi,[esp]
00002C95  8B5C2424          mov ebx,[esp+0x24]
00002C99  85ED              test ebp,ebp
00002C9B  7446              jz 0x2ce3
00002C9D  89DD              mov ebp,ebx
00002C9F  8B5E04            mov ebx,[esi+0x4]
00002CA2  8D142F            lea edx,[edi+ebp]
00002CA5  89F9              mov ecx,edi
00002CA7  E842FBFFFF        call 0x27ee
00002CAC  29C3              sub ebx,eax
00002CAE  7646              jna 0x2cf6
00002CB0  89F1              mov ecx,esi
00002CB2  89DA              mov edx,ebx
00002CB4  6A00              push byte +0x0
00002CB6  E8EFFCFFFF        call 0x29aa
00002CBB  59                pop ecx
00002CBC  3D00001100        cmp eax,0x110000
00002CC1  7419              jz 0x2cdc
00002CC3  89C3              mov ebx,eax
00002CC5  89F8              mov eax,edi
00002CC7  8B7E14            mov edi,[esi+0x14]
00002CCA  8B7618            mov esi,[esi+0x18]
00002CCD  55                push ebp
00002CCE  50                push eax
00002CCF  57                push edi
00002CD0  89D5              mov ebp,edx
00002CD2  FF560C            call [esi+0xc]
00002CD5  83C40C            add esp,byte +0xc
00002CD8  84C0              test al,al
00002CDA  743C              jz 0x2d18
00002CDC  B001              mov al,0x1
00002CDE  83C410            add esp,byte +0x10
00002CE1  EB0E              jmp short 0x2cf1
00002CE3  8B4618            mov eax,[esi+0x18]
00002CE6  53                push ebx
00002CE7  57                push edi
00002CE8  FF7614            push dword [esi+0x14]
00002CEB  FF500C            call [eax+0xc]
00002CEE  83C41C            add esp,byte +0x1c
00002CF1  5E                pop esi
00002CF2  5F                pop edi
00002CF3  5B                pop ebx
00002CF4  5D                pop ebp
00002CF5  C3                ret
00002CF6  8B4618            mov eax,[esi+0x18]
00002CF9  55                push ebp
00002CFA  EBEB              jmp short 0x2ce7
00002CFC  89C1              mov ecx,eax
00002CFE  8B3C24            mov edi,[esp]
00002D01  89FA              mov edx,edi
00002D03  8B5C2424          mov ebx,[esp+0x24]
00002D07  53                push ebx
00002D08  E846000000        call 0x2d53
00002D0D  59                pop ecx
00002D0E  85C0              test eax,eax
00002D10  7487              jz 0x2c99
00002D12  89C7              mov edi,eax
00002D14  89D3              mov ebx,edx
00002D16  EB81              jmp short 0x2c99
00002D18  89EA              mov edx,ebp
00002D1A  89D9              mov ecx,ebx
00002D1C  56                push esi
00002D1D  57                push edi
00002D1E  E8E5FCFFFF        call 0x2a08
00002D23  83C418            add esp,byte +0x18
00002D26  EBC9              jmp short 0x2cf1
00002D28  53                push ebx
00002D29  57                push edi
00002D2A  56                push esi
00002D2B  89CE              mov esi,ecx
00002D2D  8B19              mov ebx,[ecx]
00002D2F  8B7904            mov edi,[ecx+0x4]
00002D32  E83D000000        call 0x2d74
00002D37  89C2              mov edx,eax
00002D39  3D00001100        cmp eax,0x110000
00002D3E  740F              jz 0x2d4f
00002D40  8B4608            mov eax,[esi+0x8]
00002D43  01C7              add edi,eax
00002D45  035E04            add ebx,[esi+0x4]
00002D48  29DF              sub edi,ebx
00002D4A  033E              add edi,[esi]
00002D4C  897E08            mov [esi+0x8],edi
00002D4F  5E                pop esi
00002D50  5F                pop edi
00002D51  5B                pop ebx
00002D52  C3                ret
00002D53  56                push esi
00002D54  85C9              test ecx,ecx
00002D56  7416              jz 0x2d6e
00002D58  8B742408          mov esi,[esp+0x8]
00002D5C  31C0              xor eax,eax
00002D5E  39F1              cmp ecx,esi
00002D60  7308              jnc 0x2d6a
00002D62  803C0AC0          cmp byte [edx+ecx],0xc0
00002D66  7D06              jnl 0x2d6e
00002D68  EB06              jmp short 0x2d70
00002D6A  39CE              cmp esi,ecx
00002D6C  7502              jnz 0x2d70
00002D6E  89D0              mov eax,edx
00002D70  89CA              mov edx,ecx
00002D72  5E                pop esi
00002D73  C3                ret
00002D74  53                push ebx
00002D75  57                push edi
00002D76  56                push esi
00002D77  8B31              mov esi,[ecx]
00002D79  3B7104            cmp esi,[ecx+0x4]
00002D7C  7451              jz 0x2dcf
00002D7E  8D4601            lea eax,[esi+0x1]
00002D81  8901              mov [ecx],eax
00002D83  0FB606            movzx eax,byte [esi]
00002D86  84C0              test al,al
00002D88  795C              jns 0x2de6
00002D8A  89C2              mov edx,eax
00002D8C  83E21F            and edx,byte +0x1f
00002D8F  8D7E02            lea edi,[esi+0x2]
00002D92  8939              mov [ecx],edi
00002D94  0FB65E01          movzx ebx,byte [esi+0x1]
00002D98  83E33F            and ebx,byte +0x3f
00002D9B  3CDF              cmp al,0xdf
00002D9D  7637              jna 0x2dd6
00002D9F  8D7E03            lea edi,[esi+0x3]
00002DA2  8939              mov [ecx],edi
00002DA4  0FB67E02          movzx edi,byte [esi+0x2]
00002DA8  C1E306            shl ebx,byte 0x6
00002DAB  83E73F            and edi,byte +0x3f
00002DAE  09DF              or edi,ebx
00002DB0  3CF0              cmp al,0xf0
00002DB2  722B              jc 0x2ddf
00002DB4  8D4604            lea eax,[esi+0x4]
00002DB7  8901              mov [ecx],eax
00002DB9  0FB64603          movzx eax,byte [esi+0x3]
00002DBD  83E207            and edx,byte +0x7
00002DC0  C1E212            shl edx,byte 0x12
00002DC3  C1E706            shl edi,byte 0x6
00002DC6  83E03F            and eax,byte +0x3f
00002DC9  09F8              or eax,edi
00002DCB  09D0              or eax,edx
00002DCD  EB17              jmp short 0x2de6
00002DCF  B800001100        mov eax,0x110000
00002DD4  EB10              jmp short 0x2de6
00002DD6  C1E206            shl edx,byte 0x6
00002DD9  09DA              or edx,ebx
00002DDB  89D0              mov eax,edx
00002DDD  EB07              jmp short 0x2de6
00002DDF  C1E20C            shl edx,byte 0xc
00002DE2  09D7              or edi,edx
00002DE4  89F8              mov eax,edi
00002DE6  5E                pop esi
00002DE7  5F                pop edi
00002DE8  5B                pop ebx
00002DE9  C3                ret
00002DEA  8B4C2408          mov ecx,[esp+0x8]
00002DEE  8B442404          mov eax,[esp+0x4]
00002DF2  8B10              mov edx,[eax]
00002DF4  FF7004            push dword [eax+0x4]
00002DF7  E836FEFFFF        call 0x2c32
00002DFC  59                pop ecx
00002DFD  C3                ret
00002DFE  8B442404          mov eax,[esp+0x4]
00002E02  8B4804            mov ecx,[eax+0x4]
00002E05  FF742408          push dword [esp+0x8]
00002E09  FF30              push dword [eax]
00002E0B  FF510C            call [ecx+0xc]
00002E0E  83C408            add esp,byte +0x8
00002E11  C3                ret
00002E12  56                push esi
00002E13  89D6              mov esi,edx
00002E15  89C8              mov eax,ecx
00002E17  8B542408          mov edx,[esp+0x8]
00002E1B  89F1              mov ecx,esi
00002E1D  50                push eax
00002E1E  E803000000        call 0x2e26
00002E23  59                pop ecx
00002E24  5E                pop esi
00002E25  C3                ret
00002E26  55                push ebp
00002E27  53                push ebx
00002E28  57                push edi
00002E29  56                push esi
00002E2A  83EC40            sub esp,byte +0x40
00002E2D  8B442454          mov eax,[esp+0x54]
00002E31  8364242800        and dword [esp+0x28],byte +0x0
00002E36  C744241C20000000  mov dword [esp+0x1c],0x20
00002E3E  C644242C03        mov byte [esp+0x2c],0x3
00002E43  8364240C00        and dword [esp+0xc],byte +0x0
00002E48  8364241400        and dword [esp+0x14],byte +0x0
00002E4D  894C2420          mov [esp+0x20],ecx
00002E51  89542424          mov [esp+0x24],edx
00002E55  8B7810            mov edi,[eax+0x10]
00002E58  85FF              test edi,edi
00002E5A  0F84DB000000      jz near 0x2f3b
00002E60  8B7014            mov esi,[eax+0x14]
00002E63  8B08              mov ecx,[eax]
00002E65  890C24            mov [esp],ecx
00002E68  8B4804            mov ecx,[eax+0x4]
00002E6B  894C2408          mov [esp+0x8],ecx
00002E6F  8B4808            mov ecx,[eax+0x8]
00002E72  894C2430          mov [esp+0x30],ecx
00002E76  8B400C            mov eax,[eax+0xc]
00002E79  89442434          mov [esp+0x34],eax
00002E7D  89F0              mov eax,esi
00002E7F  25FFFFFF07        and eax,0x7ffffff
00002E84  89442404          mov [esp+0x4],eax
00002E88  C1E605            shl esi,byte 0x5
00002E8B  31DB              xor ebx,ebx
00002E8D  8B6C2430          mov ebp,[esp+0x30]
00002E91  85F6              test esi,esi
00002E93  0F8409010000      jz near 0x2fa2
00002E99  8B0424            mov eax,[esp]
00002E9C  8B44D804          mov eax,[eax+ebx*8+0x4]
00002EA0  85C0              test eax,eax
00002EA2  741E              jz 0x2ec2
00002EA4  8B4C2424          mov ecx,[esp+0x24]
00002EA8  50                push eax
00002EA9  8B442404          mov eax,[esp+0x4]
00002EAD  FF34D8            push dword [eax+ebx*8]
00002EB0  FF742428          push dword [esp+0x28]
00002EB4  FF510C            call [ecx+0xc]
00002EB7  83C40C            add esp,byte +0xc
00002EBA  84C0              test al,al
00002EBC  0F850A010000      jnz near 0x2fcc
00002EC2  8D4720            lea eax,[edi+0x20]
00002EC5  89442438          mov [esp+0x38],eax
00002EC9  8B4710            mov eax,[edi+0x10]
00002ECC  8944241C          mov [esp+0x1c],eax
00002ED0  8A471C            mov al,[edi+0x1c]
00002ED3  8844242C          mov [esp+0x2c],al
00002ED7  8B4718            mov eax,[edi+0x18]
00002EDA  89442428          mov [esp+0x28],eax
00002EDE  8D4708            lea eax,[edi+0x8]
00002EE1  89E9              mov ecx,ebp
00002EE3  8974243C          mov [esp+0x3c],esi
00002EE7  8B742434          mov esi,[esp+0x34]
00002EEB  89F2              mov edx,esi
00002EED  50                push eax
00002EEE  E8E7000000        call 0x2fda
00002EF3  59                pop ecx
00002EF4  8944240C          mov [esp+0xc],eax
00002EF8  89542410          mov [esp+0x10],edx
00002EFC  89E9              mov ecx,ebp
00002EFE  89F2              mov edx,esi
00002F00  8B74243C          mov esi,[esp+0x3c]
00002F04  57                push edi
00002F05  E8D0000000        call 0x2fda
00002F0A  59                pop ecx
00002F0B  89442414          mov [esp+0x14],eax
00002F0F  89542418          mov [esp+0x18],edx
00002F13  8B4714            mov eax,[edi+0x14]
00002F16  8D4C240C          lea ecx,[esp+0xc]
00002F1A  51                push ecx
00002F1B  FF74C500          push dword [ebp+eax*8+0x0]
00002F1F  FF54C504          call [ebp+eax*8+0x4]
00002F23  83C408            add esp,byte +0x8
00002F26  83C6E0            add esi,byte -0x20
00002F29  43                inc ebx
00002F2A  84C0              test al,al
00002F2C  8B7C2438          mov edi,[esp+0x38]
00002F30  0F845BFFFFFF      jz near 0x2e91
00002F36  E991000000        jmp 0x2fcc
00002F3B  8B5808            mov ebx,[eax+0x8]
00002F3E  8B700C            mov esi,[eax+0xc]
00002F41  8B08              mov ecx,[eax]
00002F43  890C24            mov [esp],ecx
00002F46  8B4004            mov eax,[eax+0x4]
00002F49  89442408          mov [esp+0x8],eax
00002F4D  89F0              mov eax,esi
00002F4F  25FFFFFF1F        and eax,0x1fffffff
00002F54  89442404          mov [esp+0x4],eax
00002F58  C1E603            shl esi,byte 0x3
00002F5B  31FF              xor edi,edi
00002F5D  85F6              test esi,esi
00002F5F  7441              jz 0x2fa2
00002F61  8B0424            mov eax,[esp]
00002F64  8B44F804          mov eax,[eax+edi*8+0x4]
00002F68  85C0              test eax,eax
00002F6A  741A              jz 0x2f86
00002F6C  8B4C2424          mov ecx,[esp+0x24]
00002F70  50                push eax
00002F71  8B442404          mov eax,[esp+0x4]
00002F75  FF34F8            push dword [eax+edi*8]
00002F78  FF742428          push dword [esp+0x28]
00002F7C  FF510C            call [ecx+0xc]
00002F7F  83C40C            add esp,byte +0xc
00002F82  84C0              test al,al
00002F84  7546              jnz 0x2fcc
00002F86  8D6B08            lea ebp,[ebx+0x8]
00002F89  8D44240C          lea eax,[esp+0xc]
00002F8D  50                push eax
00002F8E  FF33              push dword [ebx]
00002F90  FF5304            call [ebx+0x4]
00002F93  83C408            add esp,byte +0x8
00002F96  83C6F8            add esi,byte -0x8
00002F99  47                inc edi
00002F9A  84C0              test al,al
00002F9C  89EB              mov ebx,ebp
00002F9E  74BD              jz 0x2f5d
00002FA0  EB2A              jmp short 0x2fcc
00002FA2  8B442408          mov eax,[esp+0x8]
00002FA6  39442404          cmp [esp+0x4],eax
00002FAA  7324              jnc 0x2fd0
00002FAC  8B442424          mov eax,[esp+0x24]
00002FB0  8B0C24            mov ecx,[esp]
00002FB3  8B542404          mov edx,[esp+0x4]
00002FB7  FF74D104          push dword [ecx+edx*8+0x4]
00002FBB  FF34D1            push dword [ecx+edx*8]
00002FBE  FF742428          push dword [esp+0x28]
00002FC2  FF500C            call [eax+0xc]
00002FC5  83C40C            add esp,byte +0xc
00002FC8  84C0              test al,al
00002FCA  7404              jz 0x2fd0
00002FCC  B001              mov al,0x1
00002FCE  EB02              jmp short 0x2fd2
00002FD0  31C0              xor eax,eax
00002FD2  83C440            add esp,byte +0x40
00002FD5  5E                pop esi
00002FD6  5F                pop edi
00002FD7  5B                pop ebx
00002FD8  5D                pop ebp
00002FD9  C3                ret
00002FDA  56                push esi
00002FDB  8B542408          mov edx,[esp+0x8]
00002FDF  8B32              mov esi,[edx]
00002FE1  85F6              test esi,esi
00002FE3  7419              jz 0x2ffe
00002FE5  31C0              xor eax,eax
00002FE7  83FE01            cmp esi,byte +0x1
00002FEA  751C              jnz 0x3008
00002FEC  8B7204            mov esi,[edx+0x4]
00002FEF  817CF104F7B20000  cmp dword [ecx+esi*8+0x4],0xb2f7
00002FF7  750F              jnz 0x3008
00002FF9  8B14F1            mov edx,[ecx+esi*8]
00002FFC  EB03              jmp short 0x3001
00002FFE  83C204            add edx,byte +0x4
00003001  8B12              mov edx,[edx]
00003003  31C0              xor eax,eax
00003005  40                inc eax
00003006  EB00              jmp short 0x3008
00003008  5E                pop esi
00003009  C3                ret
0000300A  56                push esi
0000300B  81FA81000000      cmp edx,0x81
00003011  730F              jnc 0x3022
00003013  BE80000000        mov esi,0x80
00003018  29D6              sub esi,edx
0000301A  01D1              add ecx,edx
0000301C  89C8              mov eax,ecx
0000301E  89F2              mov edx,esi
00003020  5E                pop esi
00003021  C3                ret
00003022  89D1              mov ecx,edx
00003024  BA80000000        mov edx,0x80
00003029  6880E90000        push dword 0xe980
0000302E  E894FAFFFF        call 0x2ac7
00003033  E9EEFDFFFF        jmp 0x2e26
00003038  57                push edi
00003039  56                push esi
0000303A  81EC80000000      sub esp,0x80
00003040  8BB42490000000    mov esi,[esp+0x90]
00003047  8B84248C000000    mov eax,[esp+0x8c]
0000304E  8B00              mov eax,[eax]
00003050  BA80000000        mov edx,0x80
00003055  89C1              mov ecx,eax
00003057  80E10F            and cl,0xf
0000305A  80F90A            cmp cl,0xa
0000305D  7205              jc 0x3064
0000305F  80C157            add cl,0x57
00003062  EB03              jmp short 0x3067
00003064  80C930            or cl,0x30
00003067  89C7              mov edi,eax
00003069  C1EF04            shr edi,byte 0x4
0000306C  884C14FF          mov [esp+edx-0x1],cl
00003070  4A                dec edx
00003071  83F80F            cmp eax,byte +0xf
00003074  89F8              mov eax,edi
00003076  77DD              ja 0x3055
00003078  89E1              mov ecx,esp
0000307A  E88BFFFFFF        call 0x300a
0000307F  89D7              mov edi,edx
00003081  89F1              mov ecx,esi
00003083  BA13FA0000        mov edx,0xfa13
00003088  57                push edi
00003089  50                push eax
0000308A  6A02              push byte +0x2
0000308C  E8B2F5FFFF        call 0x2643
00003091  81C48C000000      add esp,0x8c
00003097  5E                pop esi
00003098  5F                pop edi
00003099  C3                ret
0000309A  8B542408          mov edx,[esp+0x8]
0000309E  8B442404          mov eax,[esp+0x4]
000030A2  8B08              mov ecx,[eax]
000030A4  E9E4F4FFFF        jmp 0x258d
000030A9  57                push edi
000030AA  56                push esi
000030AB  81EC80000000      sub esp,0x80
000030B1  89D6              mov esi,edx
000030B3  BA80000000        mov edx,0x80
000030B8  89C8              mov eax,ecx
000030BA  240F              and al,0xf
000030BC  3C0A              cmp al,0xa
000030BE  7204              jc 0x30c4
000030C0  0437              add al,0x37
000030C2  EB02              jmp short 0x30c6
000030C4  0C30              or al,0x30
000030C6  89CF              mov edi,ecx
000030C8  C1EF04            shr edi,byte 0x4
000030CB  884414FF          mov [esp+edx-0x1],al
000030CF  4A                dec edx
000030D0  83F90F            cmp ecx,byte +0xf
000030D3  89F9              mov ecx,edi
000030D5  77E1              ja 0x30b8
000030D7  89E1              mov ecx,esp
000030D9  E82CFFFFFF        call 0x300a
000030DE  89D7              mov edi,edx
000030E0  89F1              mov ecx,esi
000030E2  BA13FA0000        mov edx,0xfa13
000030E7  57                push edi
000030E8  50                push eax
000030E9  6A02              push byte +0x2
000030EB  E853F5FFFF        call 0x2643
000030F0  81C48C000000      add esp,0x8c
000030F6  5E                pop esi
000030F7  5F                pop edi
000030F8  C3                ret
000030F9  57                push edi
000030FA  56                push esi
000030FB  81EC80000000      sub esp,0x80
00003101  89D6              mov esi,edx
00003103  8B421C            mov eax,[edx+0x1c]
00003106  A810              test al,0x10
00003108  750D              jnz 0x3117
0000310A  A820              test al,0x20
0000310C  7518              jnz 0x3126
0000310E  56                push esi
0000310F  51                push ecx
00003110  E885FFFFFF        call 0x309a
00003115  EB07              jmp short 0x311e
00003117  56                push esi
00003118  51                push ecx
00003119  E81AFFFFFF        call 0x3038
0000311E  81C488000000      add esp,0x88
00003124  EB49              jmp short 0x316f
00003126  8B01              mov eax,[ecx]
00003128  BA80000000        mov edx,0x80
0000312D  89C1              mov ecx,eax
0000312F  80E10F            and cl,0xf
00003132  80F90A            cmp cl,0xa
00003135  7205              jc 0x313c
00003137  80C137            add cl,0x37
0000313A  EB03              jmp short 0x313f
0000313C  80C930            or cl,0x30
0000313F  89C7              mov edi,eax
00003141  C1EF04            shr edi,byte 0x4
00003144  884C14FF          mov [esp+edx-0x1],cl
00003148  4A                dec edx
00003149  83F80F            cmp eax,byte +0xf
0000314C  89F8              mov eax,edi
0000314E  77DD              ja 0x312d
00003150  89E1              mov ecx,esp
00003152  E8B3FEFFFF        call 0x300a
00003157  89D7              mov edi,edx
00003159  89F1              mov ecx,esi
0000315B  BA13FA0000        mov edx,0xfa13
00003160  57                push edi
00003161  50                push eax
00003162  6A02              push byte +0x2
00003164  E8DAF4FFFF        call 0x2643
00003169  81C48C000000      add esp,0x8c
0000316F  5E                pop esi
00003170  5F                pop edi
00003171  C3                ret
00003172  55                push ebp
00003173  53                push ebx
00003174  57                push edi
00003175  56                push esi
00003176  83EC64            sub esp,byte +0x64
00003179  8B442478          mov eax,[esp+0x78]
0000317D  8B8C2480000000    mov ecx,[esp+0x80]
00003184  8B54247C          mov edx,[esp+0x7c]
00003188  6A0A              push byte +0xa
0000318A  5E                pop esi
0000318B  8D7C2434          lea edi,[esp+0x34]
0000318F  8977E8            mov [edi-0x18],esi
00003192  8957EC            mov [edi-0x14],edx
00003195  894FF0            mov [edi-0x10],ecx
00003198  8367F400          and dword [edi-0xc],byte +0x0
0000319C  894FF8            mov [edi-0x8],ecx
0000319F  C747FC01000000    mov dword [edi-0x4],0x1
000031A6  8937              mov [edi],esi
000031A8  83670400          and dword [edi+0x4],byte +0x0
000031AC  894F08            mov [edi+0x8],ecx
000031AF  6683670C00        and word [edi+0xc],byte +0x0
000031B4  8B4808            mov ecx,[eax+0x8]
000031B7  894C2408          mov [esp+0x8],ecx
000031BB  8B08              mov ecx,[eax]
000031BD  894C2404          mov [esp+0x4],ecx
000031C1  8B4004            mov eax,[eax+0x4]
000031C4  890424            mov [esp],eax
000031C7  807C244100        cmp byte [esp+0x41],0x0
000031CC  0F8531020000      jnz near 0x3403
000031D2  8B7C2420          mov edi,[esp+0x20]
000031D6  897C2444          mov [esp+0x44],edi
000031DA  8B442424          mov eax,[esp+0x24]
000031DE  89442414          mov [esp+0x14],eax
000031E2  8B54242C          mov edx,[esp+0x2c]
000031E6  8B5C2430          mov ebx,[esp+0x30]
000031EA  8D4704            lea eax,[edi+0x4]
000031ED  89442448          mov [esp+0x48],eax
000031F1  897C244C          mov [esp+0x4c],edi
000031F5  895C2458          mov [esp+0x58],ebx
000031F9  8954240C          mov [esp+0xc],edx
000031FD  8B442428          mov eax,[esp+0x28]
00003201  89D5              mov ebp,edx
00003203  29C5              sub ebp,eax
00003205  0F8244010000      jc near 0x334f
0000320B  3B542414          cmp edx,[esp+0x14]
0000320F  0F873A010000      ja near 0x334f
00003215  89442418          mov [esp+0x18],eax
00003219  8D1407            lea edx,[edi+eax]
0000321C  0FB64C1C33        movzx ecx,byte [esp+ebx+0x33]
00003221  83FD08            cmp ebp,byte +0x8
00003224  730C              jnc 0x3232
00003226  55                push ebp
00003227  E802020000        call 0x342e
0000322C  59                pop ecx
0000322D  E9AE000000        jmp 0x32e0
00003232  8D7203            lea esi,[edx+0x3]
00003235  83E6FC            and esi,byte -0x4
00003238  31FF              xor edi,edi
0000323A  89542410          mov [esp+0x10],edx
0000323E  29D6              sub esi,edx
00003240  7423              jz 0x3265
00003242  39EE              cmp esi,ebp
00003244  7202              jc 0x3248
00003246  89EE              mov esi,ebp
00003248  89EF              mov edi,ebp
0000324A  8B542410          mov edx,[esp+0x10]
0000324E  56                push esi
0000324F  89CB              mov ebx,ecx
00003251  E8D8010000        call 0x342e
00003256  59                pop ecx
00003257  83F801            cmp eax,byte +0x1
0000325A  89D9              mov ecx,ebx
0000325C  89F7              mov edi,esi
0000325E  7505              jnz 0x3265
00003260  31C0              xor eax,eax
00003262  40                inc eax
00003263  EB77              jmp short 0x32dc
00003265  894C2450          mov [esp+0x50],ecx
00003269  69C101010101      imul eax,ecx,dword 0x1010101
0000326F  896C2454          mov [esp+0x54],ebp
00003273  8D4DF8            lea ecx,[ebp-0x8]
00003276  894C245C          mov [esp+0x5c],ecx
0000327A  8B4C2448          mov ecx,[esp+0x48]
0000327E  8B542418          mov edx,[esp+0x18]
00003282  01CA              add edx,ecx
00003284  3B7C245C          cmp edi,[esp+0x5c]
00003288  772F              ja 0x32b9
0000328A  8B743AFC          mov esi,[edx+edi-0x4]
0000328E  31C6              xor esi,eax
00003290  89F5              mov ebp,esi
00003292  F7D5              not ebp
00003294  BBFFFEFEFE        mov ebx,0xfefefeff
00003299  01DE              add esi,ebx
0000329B  21EE              and esi,ebp
0000329D  8B2C3A            mov ebp,[edx+edi]
000032A0  31C5              xor ebp,eax
000032A2  89E9              mov ecx,ebp
000032A4  F7D1              not ecx
000032A6  01DD              add ebp,ebx
000032A8  21CD              and ebp,ecx
000032AA  09F5              or ebp,esi
000032AC  F7C580808080      test ebp,0x80808080
000032B2  7505              jnz 0x32b9
000032B4  83C708            add edi,byte +0x8
000032B7  EBCB              jmp short 0x3284
000032B9  8B542410          mov edx,[esp+0x10]
000032BD  01FA              add edx,edi
000032BF  8B442454          mov eax,[esp+0x54]
000032C3  29F8              sub eax,edi
000032C5  8B4C2450          mov ecx,[esp+0x50]
000032C9  50                push eax
000032CA  E85F010000        call 0x342e
000032CF  59                pop ecx
000032D0  89C1              mov ecx,eax
000032D2  31C0              xor eax,eax
000032D4  83F901            cmp ecx,byte +0x1
000032D7  0F94C0            setz al
000032DA  01FA              add edx,edi
000032DC  8B7C244C          mov edi,[esp+0x4c]
000032E0  83F801            cmp eax,byte +0x1
000032E3  7562              jnz 0x3347
000032E5  8B442418          mov eax,[esp+0x18]
000032E9  8D4C1001          lea ecx,[eax+edx+0x1]
000032ED  894C2428          mov [esp+0x28],ecx
000032F1  89C8              mov eax,ecx
000032F3  8B5C2458          mov ebx,[esp+0x58]
000032F7  29D8              sub eax,ebx
000032F9  8B54240C          mov edx,[esp+0xc]
000032FD  0F82FAFEFFFF      jc near 0x31fd
00003303  3B4C2414          cmp ecx,[esp+0x14]
00003307  0F87F0FEFFFF      ja near 0x31fd
0000330D  01C7              add edi,eax
0000330F  31C9              xor ecx,ecx
00003311  89DA              mov edx,ebx
00003313  6870ED0000        push dword 0xed70
00003318  6A04              push byte +0x4
0000331A  8D44243C          lea eax,[esp+0x3c]
0000331E  50                push eax
0000331F  E88FF8FFFF        call 0x2bb3
00003324  83C40C            add esp,byte +0xc
00003327  89D6              mov esi,edx
00003329  89F9              mov ecx,edi
0000332B  89DA              mov edx,ebx
0000332D  56                push esi
0000332E  50                push eax
0000332F  E8DD000000        call 0x3411
00003334  59                pop ecx
00003335  5A                pop edx
00003336  84C0              test al,al
00003338  0F85B1000000      jnz near 0x33ef
0000333E  8B7C2420          mov edi,[esp+0x20]
00003342  E993FEFFFF        jmp 0x31da
00003347  8B44240C          mov eax,[esp+0xc]
0000334B  89442428          mov [esp+0x28],eax
0000334F  807C244100        cmp byte [esp+0x41],0x0
00003354  0F85A9000000      jnz near 0x3403
0000335A  C644244101        mov byte [esp+0x41],0x1
0000335F  807C244000        cmp byte [esp+0x40],0x0
00003364  740A              jz 0x3370
00003366  8B442438          mov eax,[esp+0x38]
0000336A  8B74243C          mov esi,[esp+0x3c]
0000336E  EB10              jmp short 0x3380
00003370  8B442438          mov eax,[esp+0x38]
00003374  8B74243C          mov esi,[esp+0x3c]
00003378  39C6              cmp esi,eax
0000337A  0F8483000000      jz near 0x3403
00003380  85FF              test edi,edi
00003382  747F              jz 0x3403
00003384  01C7              add edi,eax
00003386  29C6              sub esi,eax
00003388  8B442408          mov eax,[esp+0x8]
0000338C  803800            cmp byte [eax],0x0
0000338F  7419              jz 0x33aa
00003391  6A04              push byte +0x4
00003393  6841DD0000        push dword 0xdd41
00003398  FF74240C          push dword [esp+0xc]
0000339C  8B44240C          mov eax,[esp+0xc]
000033A0  FF500C            call [eax+0xc]
000033A3  83C40C            add esp,byte +0xc
000033A6  84C0              test al,al
000033A8  755D              jnz 0x3407
000033AA  C74424600A000000  mov dword [esp+0x60],0xa
000033B2  85F6              test esi,esi
000033B4  7417              jz 0x33cd
000033B6  8D443EFF          lea eax,[esi+edi-0x1]
000033BA  8D4C2460          lea ecx,[esp+0x60]
000033BE  31D2              xor edx,edx
000033C0  42                inc edx
000033C1  6A01              push byte +0x1
000033C3  50                push eax
000033C4  E848000000        call 0x3411
000033C9  59                pop ecx
000033CA  5A                pop edx
000033CB  EB02              jmp short 0x33cf
000033CD  31C0              xor eax,eax
000033CF  8B4C2408          mov ecx,[esp+0x8]
000033D3  8801              mov [ecx],al
000033D5  56                push esi
000033D6  57                push edi
000033D7  FF74240C          push dword [esp+0xc]
000033DB  8B44240C          mov eax,[esp+0xc]
000033DF  FF500C            call [eax+0xc]
000033E2  83C40C            add esp,byte +0xc
000033E5  84C0              test al,al
000033E7  0F84DAFDFFFF      jz near 0x31c7
000033ED  EB18              jmp short 0x3407
000033EF  8B742428          mov esi,[esp+0x28]
000033F3  8B442438          mov eax,[esp+0x38]
000033F7  8B7C2444          mov edi,[esp+0x44]
000033FB  01C7              add edi,eax
000033FD  89742438          mov [esp+0x38],esi
00003401  EB83              jmp short 0x3386
00003403  31C0              xor eax,eax
00003405  EB02              jmp short 0x3409
00003407  B001              mov al,0x1
00003409  83C464            add esp,byte +0x64
0000340C  5E                pop esi
0000340D  5F                pop edi
0000340E  5B                pop ebx
0000340F  5D                pop ebp
00003410  C3                ret
00003411  3B542408          cmp edx,[esp+0x8]
00003415  7514              jnz 0x342b
00003417  52                push edx
00003418  FF742408          push dword [esp+0x8]
0000341C  51                push ecx
0000341D  E808150000        call 0x492a
00003422  83C40C            add esp,byte +0xc
00003425  85C0              test eax,eax
00003427  0F94C0            setz al
0000342A  C3                ret
0000342B  31C0              xor eax,eax
0000342D  C3                ret
0000342E  53                push ebx
0000342F  57                push edi
00003430  56                push esi
00003431  89D6              mov esi,edx
00003433  31C0              xor eax,eax
00003435  8B542410          mov edx,[esp+0x10]
00003439  31FF              xor edi,edi
0000343B  47                inc edi
0000343C  31DB              xor ebx,ebx
0000343E  39DA              cmp edx,ebx
00003440  740C              jz 0x344e
00003442  380C1E            cmp [esi+ebx],cl
00003445  7403              jz 0x344a
00003447  43                inc ebx
00003448  EBF4              jmp short 0x343e
0000344A  89DA              mov edx,ebx
0000344C  89F8              mov eax,edi
0000344E  5E                pop esi
0000344F  5F                pop edi
00003450  5B                pop ebx
00003451  C3                ret
00003452  57                push edi
00003453  56                push esi
00003454  83EC18            sub esp,byte +0x18
00003457  8B742428          mov esi,[esp+0x28]
0000345B  8B7C2424          mov edi,[esp+0x24]
0000345F  89F9              mov ecx,edi
00003461  89F2              mov edx,esi
00003463  E891FCFFFF        call 0x30f9
00003468  84C0              test al,al
0000346A  752F              jnz 0x349b
0000346C  89E0              mov eax,esp
0000346E  C700F8E70000      mov dword [eax],0xe7f8
00003474  C7400401000000    mov dword [eax+0x4],0x1
0000347B  83601000          and dword [eax+0x10],byte +0x0
0000347F  C74008F4E70000    mov dword [eax+0x8],0xe7f4
00003486  83600C00          and dword [eax+0xc],byte +0x0
0000348A  8B4E14            mov ecx,[esi+0x14]
0000348D  8B5618            mov edx,[esi+0x18]
00003490  50                push eax
00003491  E89DFBFFFF        call 0x3033
00003496  59                pop ecx
00003497  84C0              test al,al
00003499  7408              jz 0x34a3
0000349B  B001              mov al,0x1
0000349D  83C418            add esp,byte +0x18
000034A0  5E                pop esi
000034A1  5F                pop edi
000034A2  C3                ret
000034A3  83C704            add edi,byte +0x4
000034A6  89F9              mov ecx,edi
000034A8  89F2              mov edx,esi
000034AA  83C418            add esp,byte +0x18
000034AD  5E                pop esi
000034AE  5F                pop edi
000034AF  E945FCFFFF        jmp 0x30f9
000034B4  80790500          cmp byte [ecx+0x5],0x0
000034B8  8A4104            mov al,[ecx+0x4]
000034BB  741D              jz 0x34da
000034BD  56                push esi
000034BE  89CE              mov esi,ecx
000034C0  84C0              test al,al
000034C2  B001              mov al,0x1
000034C4  752D              jnz 0x34f3
000034C6  8B06              mov eax,[esi]
000034C8  F6401C04          test byte [eax+0x1c],0x4
000034CC  7512              jnz 0x34e0
000034CE  8B4818            mov ecx,[eax+0x18]
000034D1  6A02              push byte +0x2
000034D3  680AE90000        push dword 0xe90a
000034D8  EB10              jmp short 0x34ea
000034DA  84C0              test al,al
000034DC  0F95C0            setnz al
000034DF  C3                ret
000034E0  8B4818            mov ecx,[eax+0x18]
000034E3  6A01              push byte +0x1
000034E5  6809E90000        push dword 0xe909
000034EA  FF7014            push dword [eax+0x14]
000034ED  FF510C            call [ecx+0xc]
000034F0  83C40C            add esp,byte +0xc
000034F3  884604            mov [esi+0x4],al
000034F6  5E                pop esi
000034F7  C3                ret
000034F8  57                push edi
000034F9  56                push esi
000034FA  81EC80000000      sub esp,0x80
00003500  89D6              mov esi,edx
00003502  BA80000000        mov edx,0x80
00003507  89C8              mov eax,ecx
00003509  240F              and al,0xf
0000350B  3C0A              cmp al,0xa
0000350D  7204              jc 0x3513
0000350F  0457              add al,0x57
00003511  EB02              jmp short 0x3515
00003513  0C30              or al,0x30
00003515  0FB7F9            movzx edi,cx
00003518  C1EF04            shr edi,byte 0x4
0000351B  884414FF          mov [esp+edx-0x1],al
0000351F  4A                dec edx
00003520  6683F90F          cmp cx,byte +0xf
00003524  89F9              mov ecx,edi
00003526  77DF              ja 0x3507
00003528  89E1              mov ecx,esp
0000352A  E8DBFAFFFF        call 0x300a
0000352F  89D7              mov edi,edx
00003531  89F1              mov ecx,esi
00003533  BA13FA0000        mov edx,0xfa13
00003538  57                push edi
00003539  50                push eax
0000353A  6A02              push byte +0x2
0000353C  E802F1FFFF        call 0x2643
00003541  81C48C000000      add esp,0x8c
00003547  5E                pop esi
00003548  5F                pop edi
00003549  C3                ret
0000354A  53                push ebx
0000354B  56                push esi
0000354C  83EC0C            sub esp,byte +0xc
0000354F  C644240400        mov byte [esp+0x4],0x0
00003554  668364240200      and word [esp+0x2],byte +0x0
0000355A  C644240B7D        mov byte [esp+0xb],0x7d
0000355F  89D0              mov eax,edx
00003561  C1E814            shr eax,byte 0x14
00003564  83E00F            and eax,byte +0xf
00003567  8A8003E80000      mov al,[eax+0xe803]
0000356D  88442405          mov [esp+0x5],al
00003571  89D0              mov eax,edx
00003573  C1E810            shr eax,byte 0x10
00003576  83E00F            and eax,byte +0xf
00003579  8A8003E80000      mov al,[eax+0xe803]
0000357F  88442406          mov [esp+0x6],al
00003583  89D0              mov eax,edx
00003585  C1E80C            shr eax,byte 0xc
00003588  83E00F            and eax,byte +0xf
0000358B  8A8003E80000      mov al,[eax+0xe803]
00003591  88442407          mov [esp+0x7],al
00003595  89D0              mov eax,edx
00003597  C1E808            shr eax,byte 0x8
0000359A  83E00F            and eax,byte +0xf
0000359D  8A8003E80000      mov al,[eax+0xe803]
000035A3  88442408          mov [esp+0x8],al
000035A7  89D0              mov eax,edx
000035A9  C1E804            shr eax,byte 0x4
000035AC  83E00F            and eax,byte +0xf
000035AF  8A8003E80000      mov al,[eax+0xe803]
000035B5  88442409          mov [esp+0x9],al
000035B9  89D0              mov eax,edx
000035BB  83E00F            and eax,byte +0xf
000035BE  8A8003E80000      mov al,[eax+0xe803]
000035C4  8844240A          mov [esp+0xa],al
000035C8  83CA01            or edx,byte +0x1
000035CB  0FBDDA            bsr ebx,edx
000035CE  83F31C            xor ebx,byte +0x1c
000035D1  C1EB02            shr ebx,byte 0x2
000035D4  83C3FE            add ebx,byte -0x2
000035D7  83FB0B            cmp ebx,byte +0xb
000035DA  7340              jnc 0x361c
000035DC  89CE              mov esi,ecx
000035DE  8D4C1C02          lea ecx,[esp+ebx+0x2]
000035E2  6A03              push byte +0x3
000035E4  5A                pop edx
000035E5  6800F60000        push dword 0xf600
000035EA  6A03              push byte +0x3
000035EC  68FCF50000        push dword 0xf5fc
000035F1  E835000000        call 0x362b
000035F6  83C40C            add esp,byte +0xc
000035F9  0FB744240A        movzx eax,word [esp+0xa]
000035FE  66894608          mov [esi+0x8],ax
00003602  8B442402          mov eax,[esp+0x2]
00003606  8B4C2406          mov ecx,[esp+0x6]
0000360A  894E04            mov [esi+0x4],ecx
0000360D  8906              mov [esi],eax
0000360F  885E0A            mov [esi+0xa],bl
00003612  C6460B0A          mov byte [esi+0xb],0xa
00003616  83C40C            add esp,byte +0xc
00003619  5E                pop esi
0000361A  5B                pop ebx
0000361B  C3                ret
0000361C  6A0A              push byte +0xa
0000361E  5A                pop edx
0000361F  89D9              mov ecx,ebx
00003621  68ECF50000        push dword 0xf5ec
00003626  E89CF4FFFF        call 0x2ac7
0000362B  8B442408          mov eax,[esp+0x8]
0000362F  39C2              cmp edx,eax
00003631  750F              jnz 0x3642
00003633  52                push edx
00003634  FF742408          push dword [esp+0x8]
00003638  51                push ecx
00003639  E87A120000        call 0x48b8
0000363E  83C40C            add esp,byte +0xc
00003641  C3                ret
00003642  89D1              mov ecx,edx
00003644  89C2              mov edx,eax
00003646  FF74240C          push dword [esp+0xc]
0000364A  E818F5FFFF        call 0x2b67
0000364F  57                push edi
00003650  56                push esi
00003651  83EC10            sub esp,byte +0x10
00003654  89CE              mov esi,ecx
00003656  8D442402          lea eax,[esp+0x2]
0000365A  668910            mov [eax],dx
0000365D  8D7C2404          lea edi,[esp+0x4]
00003661  6683670800        and word [edi+0x8],byte +0x0
00003666  83670400          and dword [edi+0x4],byte +0x0
0000366A  832700            and dword [edi],byte +0x0
0000366D  6A02              push byte +0x2
0000366F  5A                pop edx
00003670  89F9              mov ecx,edi
00003672  6810F60000        push dword 0xf610
00003677  6A02              push byte +0x2
00003679  50                push eax
0000367A  E8ACFFFFFF        call 0x362b
0000367F  83C40C            add esp,byte +0xc
00003682  0FB74708          movzx eax,word [edi+0x8]
00003686  66894608          mov [esi+0x8],ax
0000368A  8B07              mov eax,[edi]
0000368C  8B4F04            mov ecx,[edi+0x4]
0000368F  894E04            mov [esi+0x4],ecx
00003692  8906              mov [esi],eax
00003694  66C7460A0002      mov word [esi+0xa],0x200
0000369A  83C410            add esp,byte +0x10
0000369D  5E                pop esi
0000369E  5F                pop edi
0000369F  C3                ret
000036A0  55                push ebp
000036A1  53                push ebx
000036A2  57                push edi
000036A3  56                push esi
000036A4  83EC40            sub esp,byte +0x40
000036A7  89CE              mov esi,ecx
000036A9  B301              mov bl,0x1
000036AB  80790400          cmp byte [ecx+0x4],0x0
000036AF  7411              jz 0x36c2
000036B1  885E04            mov [esi+0x4],bl
000036B4  C6460501          mov byte [esi+0x5],0x1
000036B8  89F0              mov eax,esi
000036BA  83C440            add esp,byte +0x40
000036BD  5E                pop esi
000036BE  5F                pop edi
000036BF  5B                pop ebx
000036C0  5D                pop ebp
000036C1  C3                ret
000036C2  89D7              mov edi,edx
000036C4  8B2E              mov ebp,[esi]
000036C6  8B451C            mov eax,[ebp+0x1c]
000036C9  A804              test al,0x4
000036CB  8A4E05            mov cl,[esi+0x5]
000036CE  756A              jnz 0x373a
000036D0  31C0              xor eax,eax
000036D2  84C9              test cl,cl
000036D4  0F94C2            setz dl
000036D7  B9F8E80000        mov ecx,0xe8f8
000036DC  7405              jz 0x36e3
000036DE  B9FBE80000        mov ecx,0xe8fb
000036E3  88D0              mov al,dl
000036E5  83C802            or eax,byte +0x2
000036E8  8B5518            mov edx,[ebp+0x18]
000036EB  50                push eax
000036EC  51                push ecx
000036ED  FF7514            push dword [ebp+0x14]
000036F0  FF520C            call [edx+0xc]
000036F3  83C40C            add esp,byte +0xc
000036F6  84C0              test al,al
000036F8  75B7              jnz 0x36b1
000036FA  8B4518            mov eax,[ebp+0x18]
000036FD  FF742454          push dword [esp+0x54]
00003701  57                push edi
00003702  FF7514            push dword [ebp+0x14]
00003705  FF500C            call [eax+0xc]
00003708  83C40C            add esp,byte +0xc
0000370B  84C0              test al,al
0000370D  75A2              jnz 0x36b1
0000370F  8B4518            mov eax,[ebp+0x18]
00003712  6A02              push byte +0x2
00003714  68CCE80000        push dword 0xe8cc
00003719  FF7514            push dword [ebp+0x14]
0000371C  FF500C            call [eax+0xc]
0000371F  83C40C            add esp,byte +0xc
00003722  84C0              test al,al
00003724  758B              jnz 0x36b1
00003726  55                push ebp
00003727  FF74245C          push dword [esp+0x5c]
0000372B  8B442464          mov eax,[esp+0x64]
0000372F  FF500C            call [eax+0xc]
00003732  83C408            add esp,byte +0x8
00003735  E9F0000000        jmp 0x382a
0000373A  84C9              test cl,cl
0000373C  751E              jnz 0x375c
0000373E  8B4518            mov eax,[ebp+0x18]
00003741  6A03              push byte +0x3
00003743  68FDE80000        push dword 0xe8fd
00003748  FF7514            push dword [ebp+0x14]
0000374B  FF500C            call [eax+0xc]
0000374E  83C40C            add esp,byte +0xc
00003751  84C0              test al,al
00003753  0F8558FFFFFF      jnz near 0x36b1
00003759  8B451C            mov eax,[ebp+0x1c]
0000375C  8D4C2403          lea ecx,[esp+0x3]
00003760  C60101            mov byte [ecx],0x1
00003763  8B5514            mov edx,[ebp+0x14]
00003766  8B4D18            mov ecx,[ebp+0x18]
00003769  8D5C2434          lea ebx,[esp+0x34]
0000376D  8913              mov [ebx],edx
0000376F  894B04            mov [ebx+0x4],ecx
00003772  8D4C2403          lea ecx,[esp+0x3]
00003776  894B08            mov [ebx+0x8],ecx
00003779  8B4D10            mov ecx,[ebp+0x10]
0000377C  894C2404          mov [esp+0x4],ecx
00003780  8A5520            mov dl,[ebp+0x20]
00003783  8B5D00            mov ebx,[ebp+0x0]
00003786  895C240C          mov [esp+0xc],ebx
0000378A  8B5D04            mov ebx,[ebp+0x4]
0000378D  8B4D08            mov ecx,[ebp+0x8]
00003790  894C2408          mov [esp+0x8],ecx
00003794  8B6D0C            mov ebp,[ebp+0xc]
00003797  8944242C          mov [esp+0x2c],eax
0000379B  8B442404          mov eax,[esp+0x4]
0000379F  89442420          mov [esp+0x20],eax
000037A3  88542430          mov [esp+0x30],dl
000037A7  8B44240C          mov eax,[esp+0xc]
000037AB  89442410          mov [esp+0x10],eax
000037AF  895C2414          mov [esp+0x14],ebx
000037B3  8B442408          mov eax,[esp+0x8]
000037B7  89442418          mov [esp+0x18],eax
000037BB  896C241C          mov [esp+0x1c],ebp
000037BF  8D442434          lea eax,[esp+0x34]
000037C3  89442424          mov [esp+0x24],eax
000037C7  C7442428E0E80000  mov dword [esp+0x28],0xe8e0
000037CF  FF742454          push dword [esp+0x54]
000037D3  57                push edi
000037D4  89C7              mov edi,eax
000037D6  50                push eax
000037D7  E896F9FFFF        call 0x3172
000037DC  83C40C            add esp,byte +0xc
000037DF  84C0              test al,al
000037E1  752B              jnz 0x380e
000037E3  6A02              push byte +0x2
000037E5  68CCE80000        push dword 0xe8cc
000037EA  57                push edi
000037EB  E882F9FFFF        call 0x3172
000037F0  83C40C            add esp,byte +0xc
000037F3  84C0              test al,al
000037F5  7517              jnz 0x380e
000037F7  8D442410          lea eax,[esp+0x10]
000037FB  50                push eax
000037FC  FF74245C          push dword [esp+0x5c]
00003800  8B442464          mov eax,[esp+0x64]
00003804  FF500C            call [eax+0xc]
00003807  83C408            add esp,byte +0x8
0000380A  84C0              test al,al
0000380C  7407              jz 0x3815
0000380E  B301              mov bl,0x1
00003810  E99CFEFFFF        jmp 0x36b1
00003815  8B442428          mov eax,[esp+0x28]
00003819  6A02              push byte +0x2
0000381B  6800E90000        push dword 0xe900
00003820  FF74242C          push dword [esp+0x2c]
00003824  FF500C            call [eax+0xc]
00003827  83C40C            add esp,byte +0xc
0000382A  89C3              mov ebx,eax
0000382C  E980FEFFFF        jmp 0x36b1
00003831  53                push ebx
00003832  57                push edi
00003833  56                push esi
00003834  8B442410          mov eax,[esp+0x10]
00003838  8B5808            mov ebx,[eax+0x8]
0000383B  803B00            cmp byte [ebx],0x0
0000383E  8B38              mov edi,[eax]
00003840  8B7004            mov esi,[eax+0x4]
00003843  7416              jz 0x385b
00003845  6A04              push byte +0x4
00003847  6841DD0000        push dword 0xdd41
0000384C  57                push edi
0000384D  FF560C            call [esi+0xc]
00003850  83C40C            add esp,byte +0xc
00003853  84C0              test al,al
00003855  7404              jz 0x385b
00003857  B001              mov al,0x1
00003859  EB12              jmp short 0x386d
0000385B  8B442414          mov eax,[esp+0x14]
0000385F  83F80A            cmp eax,byte +0xa
00003862  0F9403            setz [ebx]
00003865  50                push eax
00003866  57                push edi
00003867  FF5610            call [esi+0x10]
0000386A  83C408            add esp,byte +0x8
0000386D  5E                pop esi
0000386E  5F                pop edi
0000386F  5B                pop ebx
00003870  C3                ret
00003871  8B4C2404          mov ecx,[esp+0x4]
00003875  BAE0E80000        mov edx,0xe8e0
0000387A  FF742408          push dword [esp+0x8]
0000387E  E8A3F5FFFF        call 0x2e26
00003883  59                pop ecx
00003884  C3                ret
00003885  55                push ebp
00003886  53                push ebx
00003887  57                push edi
00003888  56                push esi
00003889  50                push eax
0000388A  89CE              mov esi,ecx
0000388C  85D2              test edx,edx
0000388E  7430              jz 0x38c0
00003890  89D7              mov edi,edx
00003892  83FA09            cmp edx,byte +0x9
00003895  7435              jz 0x38cc
00003897  83FF0A            cmp edi,byte +0xa
0000389A  743C              jz 0x38d8
0000389C  83FF0D            cmp edi,byte +0xd
0000389F  7443              jz 0x38e4
000038A1  8B442418          mov eax,[esp+0x18]
000038A5  83FF22            cmp edi,byte +0x22
000038A8  7446              jz 0x38f0
000038AA  83FF27            cmp edi,byte +0x27
000038AD  7453              jz 0x3902
000038AF  83FF5C            cmp edi,byte +0x5c
000038B2  7558              jnz 0x390c
000038B4  89F1              mov ecx,esi
000038B6  BA5C5C0000        mov edx,0x5c5c
000038BB  E9FD000000        jmp 0x39bd
000038C0  89F1              mov ecx,esi
000038C2  BA5C300000        mov edx,0x305c
000038C7  E9F1000000        jmp 0x39bd
000038CC  89F1              mov ecx,esi
000038CE  BA5C740000        mov edx,0x745c
000038D3  E9E5000000        jmp 0x39bd
000038D8  89F1              mov ecx,esi
000038DA  BA5C6E0000        mov edx,0x6e5c
000038DF  E9D9000000        jmp 0x39bd
000038E4  89F1              mov ecx,esi
000038E6  BA5C720000        mov edx,0x725c
000038EB  E9CD000000        jmp 0x39bd
000038F0  0FBAE010          bt eax,byte 0x10
000038F4  7316              jnc 0x390c
000038F6  89F1              mov ecx,esi
000038F8  BA5C220000        mov edx,0x225c
000038FD  E9BB000000        jmp 0x39bd
00003902  0FBAE008          bt eax,byte 0x8
00003906  0F82AA000000      jc near 0x39b6
0000390C  A801              test al,0x1
0000390E  0F84BF000000      jz near 0x39d3
00003914  893424            mov [esp],esi
00003917  89FA              mov edx,edi
00003919  C1E20B            shl edx,byte 0xb
0000391C  31C0              xor eax,eax
0000391E  6A21              push byte +0x21
00003920  5B                pop ebx
00003921  89D9              mov ecx,ebx
00003923  39D8              cmp eax,ebx
00003925  7327              jnc 0x394e
00003927  D1E9              shr ecx,1
00003929  01C1              add ecx,eax
0000392B  8B348D30F60000    mov esi,[ecx*4+0xf630]
00003932  C1E60B            shl esi,byte 0xb
00003935  39D6              cmp esi,edx
00003937  7417              jz 0x3950
00003939  8D6901            lea ebp,[ecx+0x1]
0000393C  39D6              cmp esi,edx
0000393E  7702              ja 0x3942
00003940  89D9              mov ecx,ebx
00003942  7202              jc 0x3946
00003944  89C5              mov ebp,eax
00003946  89CB              mov ebx,ecx
00003948  29E9              sub ecx,ebp
0000394A  89E8              mov eax,ebp
0000394C  EBD5              jmp short 0x3923
0000394E  89C1              mov ecx,eax
00003950  39D8              cmp eax,ebx
00003952  83D100            adc ecx,byte +0x0
00003955  83F920            cmp ecx,byte +0x20
00003958  0F87B3010000      ja near 0x3b11
0000395E  8B048D30F60000    mov eax,[ecx*4+0xf630]
00003965  BAD7020000        mov edx,0x2d7
0000396A  7412              jz 0x397e
0000396C  8B148D34F60000    mov edx,[ecx*4+0xf634]
00003973  C1EA15            shr edx,byte 0x15
00003976  85C9              test ecx,ecx
00003978  0F849A000000      jz near 0x3a18
0000397E  BBFFFF1F00        mov ebx,0x1fffff
00003983  231C8D2CF60000    and ebx,[ecx*4+0xf62c]
0000398A  C1E815            shr eax,byte 0x15
0000398D  89F9              mov ecx,edi
0000398F  29D9              sub ecx,ebx
00003991  4A                dec edx
00003992  31ED              xor ebp,ebp
00003994  89C3              mov ebx,eax
00003996  39DA              cmp edx,ebx
00003998  7431              jz 0x39cb
0000399A  81FBD6020000      cmp ebx,0x2d6
000039A0  0F874E010000      ja near 0x3af4
000039A6  0FB6B3B4F60000    movzx esi,byte [ebx+0xf6b4]
000039AD  01F5              add ebp,esi
000039AF  39CD              cmp ebp,ecx
000039B1  7716              ja 0x39c9
000039B3  43                inc ebx
000039B4  EBE0              jmp short 0x3996
000039B6  89F1              mov ecx,esi
000039B8  BA5C270000        mov edx,0x275c
000039BD  83C404            add esp,byte +0x4
000039C0  5E                pop esi
000039C1  5F                pop edi
000039C2  5B                pop ebx
000039C3  5D                pop ebp
000039C4  E986FCFFFF        jmp 0x364f
000039C9  89DA              mov edx,ebx
000039CB  F6C201            test dl,0x1
000039CE  8B3424            mov esi,[esp]
000039D1  7505              jnz 0x39d8
000039D3  83FF20            cmp edi,byte +0x20
000039D6  7310              jnc 0x39e8
000039D8  89F1              mov ecx,esi
000039DA  89FA              mov edx,edi
000039DC  83C404            add esp,byte +0x4
000039DF  5E                pop esi
000039E0  5F                pop edi
000039E1  5B                pop ebx
000039E2  5D                pop ebp
000039E3  E962FBFFFF        jmp 0x354a
000039E8  83FF7F            cmp edi,byte +0x7f
000039EB  0F82F5000000      jc near 0x3ae6
000039F1  81FF00000100      cmp edi,0x10000
000039F7  7326              jnc 0x3a1f
000039F9  89F9              mov ecx,edi
000039FB  BA3EF20000        mov edx,0xf23e
00003A00  682F010000        push dword 0x12f
00003A05  68ADF30000        push dword 0xf3ad
00003A0A  681F010000        push dword 0x11f
00003A0F  688EF20000        push dword 0xf28e
00003A14  6A28              push byte +0x28
00003A16  EB2C              jmp short 0x3a44
00003A18  31DB              xor ebx,ebx
00003A1A  E96BFFFFFF        jmp 0x398a
00003A1F  81FF00000200      cmp edi,0x20000
00003A25  732E              jnc 0x3a55
00003A27  89F9              mov ecx,edi
00003A29  BA60EF0000        mov edx,0xef60
00003A2E  68C2010000        push dword 0x1c2
00003A33  687CF00000        push dword 0xf07c
00003A38  68C4000000        push dword 0xc4
00003A3D  68B8EF0000        push dword 0xefb8
00003A42  6A2C              push byte +0x2c
00003A44  E8D5000000        call 0x3b1e
00003A49  83C414            add esp,byte +0x14
00003A4C  84C0              test al,al
00003A4E  7488              jz 0x39d8
00003A50  E991000000        jmp 0x3ae6
00003A55  8D8710FEF1FF      lea eax,[edi-0xe01f0]
00003A5B  3D10FE0200        cmp eax,0x2fe10
00003A60  0F8272FFFFFF      jc near 0x39d8
00003A66  8D8750DCFCFF      lea eax,[edi-0x323b0]
00003A6C  3D50DD0A00        cmp eax,0xadd50
00003A71  0F8261FFFFFF      jc near 0x39d8
00003A77  8D87B5ECFCFF      lea eax,[edi-0x3134b]
00003A7D  83F805            cmp eax,byte +0x5
00003A80  0F8252FFFFFF      jc near 0x39d8
00003A86  8D87E205FDFF      lea eax,[edi-0x2fa1e]
00003A8C  3DE2050000        cmp eax,0x5e2
00003A91  0F8241FFFFFF      jc near 0x39d8
00003A97  8D871F14FDFF      lea eax,[edi-0x2ebe1]
00003A9D  3D1F0C0000        cmp eax,0xc1f
00003AA2  0F8230FFFFFF      jc near 0x39d8
00003AA8  8D875E31FDFF      lea eax,[edi-0x2cea2]
00003AAE  83F80E            cmp eax,byte +0xe
00003AB1  0F8221FFFFFF      jc near 0x39d8
00003AB7  89F8              mov eax,edi
00003AB9  83E0FE            and eax,byte -0x2
00003ABC  3D1EB80200        cmp eax,0x2b81e
00003AC1  0F8411FFFFFF      jz near 0x39d8
00003AC7  89F8              mov eax,edi
00003AC9  83E0E0            and eax,byte -0x20
00003ACC  3DE0A60200        cmp eax,0x2a6e0
00003AD1  0F8401FFFFFF      jz near 0x39d8
00003AD7  8D87C648FDFF      lea eax,[edi-0x2b73a]
00003ADD  83F806            cmp eax,byte +0x6
00003AE0  0F82F2FEFFFF      jc near 0x39d8
00003AE6  C60680            mov byte [esi],0x80
00003AE9  897E04            mov [esi+0x4],edi
00003AEC  83C404            add esp,byte +0x4
00003AEF  5E                pop esi
00003AF0  5F                pop edi
00003AF1  5B                pop ebx
00003AF2  5D                pop ebp
00003AF3  C3                ret
00003AF4  3DD8020000        cmp eax,0x2d8
00003AF9  7305              jnc 0x3b00
00003AFB  B8D7020000        mov eax,0x2d7
00003B00  89C1              mov ecx,eax
00003B02  BAD7020000        mov edx,0x2d7
00003B07  686CF50000        push dword 0xf56c
00003B0C  E835EAFFFF        call 0x2546
00003B11  6A21              push byte +0x21
00003B13  5A                pop edx
00003B14  685CF50000        push dword 0xf55c
00003B19  E828EAFFFF        call 0x2546
00003B1E  55                push ebp
00003B1F  53                push ebx
00003B20  57                push edi
00003B21  56                push esi
00003B22  50                push eax
00003B23  89CB              mov ebx,ecx
00003B25  8B6C2424          mov ebp,[esp+0x24]
00003B29  8B442418          mov eax,[esp+0x18]
00003B2D  8D0442            lea eax,[edx+eax*2]
00003B30  31C9              xor ecx,ecx
00003B32  890424            mov [esp],eax
00003B35  39C2              cmp edx,eax
00003B37  744F              jz 0x3b88
00003B39  8D7A02            lea edi,[edx+0x2]
00003B3C  0FB67201          movzx esi,byte [edx+0x1]
00003B40  01CE              add esi,ecx
00003B42  383A              cmp [edx],bh
00003B44  7525              jnz 0x3b6b
00003B46  89F2              mov edx,esi
00003B48  6850EF0000        push dword 0xef50
00003B4D  FF742424          push dword [esp+0x24]
00003B51  FF742424          push dword [esp+0x24]
00003B55  E859F0FFFF        call 0x2bb3
00003B5A  83C40C            add esp,byte +0xc
00003B5D  85D2              test edx,edx
00003B5F  7412              jz 0x3b73
00003B61  4A                dec edx
00003B62  3818              cmp [eax],bl
00003B64  8D4001            lea eax,[eax+0x1]
00003B67  75F4              jnz 0x3b5d
00003B69  EB11              jmp short 0x3b7c
00003B6B  89FA              mov edx,edi
00003B6D  89F1              mov ecx,esi
00003B6F  76C4              jna 0x3b35
00003B71  EB15              jmp short 0x3b88
00003B73  89FA              mov edx,edi
00003B75  89F1              mov ecx,esi
00003B77  8B0424            mov eax,[esp]
00003B7A  EBB9              jmp short 0x3b35
00003B7C  31C0              xor eax,eax
00003B7E  2401              and al,0x1
00003B80  83C404            add esp,byte +0x4
00003B83  5E                pop esi
00003B84  5F                pop edi
00003B85  5B                pop ebx
00003B86  5D                pop ebp
00003B87  C3                ret
00003B88  0FB7CB            movzx ecx,bx
00003B8B  8B7C2428          mov edi,[esp+0x28]
00003B8F  01EF              add edi,ebp
00003B91  B001              mov al,0x1
00003B93  39FD              cmp ebp,edi
00003B95  74E7              jz 0x3b7e
00003B97  8D7501            lea esi,[ebp+0x1]
00003B9A  0FB65500          movzx edx,byte [ebp+0x0]
00003B9E  84D2              test dl,dl
00003BA0  7804              js 0x3ba6
00003BA2  89F5              mov ebp,esi
00003BA4  EB13              jmp short 0x3bb9
00003BA6  39FE              cmp esi,edi
00003BA8  7417              jz 0x3bc1
00003BAA  83E27F            and edx,byte +0x7f
00003BAD  C1E208            shl edx,byte 0x8
00003BB0  0FB67501          movzx esi,byte [ebp+0x1]
00003BB4  83C502            add ebp,byte +0x2
00003BB7  09F2              or edx,esi
00003BB9  29D1              sub ecx,edx
00003BBB  78C1              js 0x3b7e
00003BBD  3401              xor al,0x1
00003BBF  EBD2              jmp short 0x3b93
00003BC1  B940EF0000        mov ecx,0xef40
00003BC6  E800000000        call 0x3bcb
00003BCB  89C8              mov eax,ecx
00003BCD  6A2B              push byte +0x2b
00003BCF  5A                pop edx
00003BD0  B934E80000        mov ecx,0xe834
00003BD5  50                push eax
00003BD6  E8BAEEFFFF        call 0x2a95
00003BDB  803980            cmp byte [ecx],0x80
00003BDE  750F              jnz 0x3bef
00003BE0  8B4104            mov eax,[ecx+0x4]
00003BE3  832100            and dword [ecx],byte +0x0
00003BE6  83610800          and dword [ecx+0x8],byte +0x0
00003BEA  83610400          and dword [ecx+0x4],byte +0x0
00003BEE  C3                ret
00003BEF  0FB6410A          movzx eax,byte [ecx+0xa]
00003BF3  3A410B            cmp al,[ecx+0xb]
00003BF6  7310              jnc 0x3c08
00003BF8  89C2              mov edx,eax
00003BFA  FEC2              inc dl
00003BFC  88510A            mov [ecx+0xa],dl
00003BFF  3C0A              cmp al,0xa
00003C01  730B              jnc 0x3c0e
00003C03  0FB60401          movzx eax,byte [ecx+eax]
00003C07  C3                ret
00003C08  B800001100        mov eax,0x110000
00003C0D  C3                ret
00003C0E  6A0A              push byte +0xa
00003C10  5A                pop edx
00003C11  89C1              mov ecx,eax
00003C13  6820F60000        push dword 0xf620
00003C18  E829E9FFFF        call 0x2546
00003C1D  56                push esi
00003C1E  83EC38            sub esp,byte +0x38
00003C21  89E0              mov eax,esp
00003C23  C70004DB0000      mov dword [eax],0xdb04
00003C29  C740042B000000    mov dword [eax+0x4],0x2b
00003C30  8D542408          lea edx,[esp+0x8]
00003C34  890A              mov [edx],ecx
00003C36  C7420430DB0000    mov dword [edx+0x4],0xdb30
00003C3D  8D742410          lea esi,[esp+0x10]
00003C41  8906              mov [esi],eax
00003C43  C74604EABB0000    mov dword [esi+0x4],0xbbea
00003C4A  895608            mov [esi+0x8],edx
00003C4D  C7460CFEBB0000    mov dword [esi+0xc],0xbbfe
00003C54  8D4C2420          lea ecx,[esp+0x20]
00003C58  C701D0E80000      mov dword [ecx],0xe8d0
00003C5E  6A02              push byte +0x2
00003C60  58                pop eax
00003C61  894104            mov [ecx+0x4],eax
00003C64  83611000          and dword [ecx+0x10],byte +0x0
00003C68  897108            mov [ecx+0x8],esi
00003C6B  89410C            mov [ecx+0xc],eax
00003C6E  BABCDF0000        mov edx,0xdfbc
00003C73  E887E8FFFF        call 0x24ff
00003C78  53                push ebx
00003C79  89D0              mov eax,edx
00003C7B  31DB              xor ebx,ebx
00003C7D  84C9              test cl,cl
00003C7F  0F94C3            setz bl
00003C82  BACAEA0000        mov edx,0xeaca
00003C87  7405              jz 0x3c8e
00003C89  BA45DD0000        mov edx,0xdd45
00003C8E  83CB04            or ebx,byte +0x4
00003C91  89C1              mov ecx,eax
00003C93  53                push ebx
00003C94  E899EFFFFF        call 0x2c32
00003C99  59                pop ecx
00003C9A  5B                pop ebx
00003C9B  C3                ret
00003C9C  53                push ebx
00003C9D  57                push edi
00003C9E  56                push esi
00003C9F  83EC0C            sub esp,byte +0xc
00003CA2  8B442420          mov eax,[esp+0x20]
00003CA6  8B7814            mov edi,[eax+0x14]
00003CA9  8B4018            mov eax,[eax+0x18]
00003CAC  8B5810            mov ebx,[eax+0x10]
00003CAF  6A27              push byte +0x27
00003CB1  57                push edi
00003CB2  FFD3              call ebx
00003CB4  59                pop ecx
00003CB5  5A                pop edx
00003CB6  84C0              test al,al
00003CB8  752D              jnz 0x3ce7
00003CBA  8B44241C          mov eax,[esp+0x1c]
00003CBE  8B10              mov edx,[eax]
00003CC0  89E6              mov esi,esp
00003CC2  89F1              mov ecx,esi
00003CC4  6801010000        push dword 0x101
00003CC9  E8B7FBFFFF        call 0x3885
00003CCE  58                pop eax
00003CCF  89F1              mov ecx,esi
00003CD1  E805FFFFFF        call 0x3bdb
00003CD6  3D00001100        cmp eax,0x110000
00003CDB  7411              jz 0x3cee
00003CDD  50                push eax
00003CDE  57                push edi
00003CDF  FFD3              call ebx
00003CE1  59                pop ecx
00003CE2  5A                pop edx
00003CE3  84C0              test al,al
00003CE5  74E8              jz 0x3ccf
00003CE7  B001              mov al,0x1
00003CE9  83C40C            add esp,byte +0xc
00003CEC  EB08              jmp short 0x3cf6
00003CEE  6A27              push byte +0x27
00003CF0  57                push edi
00003CF1  FFD3              call ebx
00003CF3  83C414            add esp,byte +0x14
00003CF6  5E                pop esi
00003CF7  5F                pop edi
00003CF8  5B                pop ebx
00003CF9  C3                ret
00003CFA  55                push ebp
00003CFB  53                push ebx
00003CFC  57                push edi
00003CFD  56                push esi
00003CFE  83EC08            sub esp,byte +0x8
00003D01  89CF              mov edi,ecx
00003D03  8B6C2420          mov ebp,[esp+0x20]
00003D07  8B74242C          mov esi,[esp+0x2c]
00003D0B  8B4118            mov eax,[ecx+0x18]
00003D0E  FF74241C          push dword [esp+0x1c]
00003D12  52                push edx
00003D13  FF7114            push dword [ecx+0x14]
00003D16  FF500C            call [eax+0xc]
00003D19  83C40C            add esp,byte +0xc
00003D1C  89E3              mov ebx,esp
00003D1E  893B              mov [ebx],edi
00003D20  884304            mov [ebx+0x4],al
00003D23  C6430500          mov byte [ebx+0x5],0x0
00003D27  89D9              mov ecx,ebx
00003D29  89EA              mov edx,ebp
00003D2B  56                push esi
00003D2C  FF74242C          push dword [esp+0x2c]
00003D30  FF74242C          push dword [esp+0x2c]
00003D34  E867F9FFFF        call 0x36a0
00003D39  83C40C            add esp,byte +0xc
00003D3C  89D9              mov ecx,ebx
00003D3E  8B542430          mov edx,[esp+0x30]
00003D42  FF74243C          push dword [esp+0x3c]
00003D46  FF74243C          push dword [esp+0x3c]
00003D4A  FF74243C          push dword [esp+0x3c]
00003D4E  E84DF9FFFF        call 0x36a0
00003D53  83C40C            add esp,byte +0xc
00003D56  89D9              mov ecx,ebx
00003D58  8B542440          mov edx,[esp+0x40]
00003D5C  FF74244C          push dword [esp+0x4c]
00003D60  FF74244C          push dword [esp+0x4c]
00003D64  FF74244C          push dword [esp+0x4c]
00003D68  E833F9FFFF        call 0x36a0
00003D6D  83C40C            add esp,byte +0xc
00003D70  89D9              mov ecx,ebx
00003D72  8B542450          mov edx,[esp+0x50]
00003D76  FF74245C          push dword [esp+0x5c]
00003D7A  FF74245C          push dword [esp+0x5c]
00003D7E  FF74245C          push dword [esp+0x5c]
00003D82  E819F9FFFF        call 0x36a0
00003D87  83C40C            add esp,byte +0xc
00003D8A  89D9              mov ecx,ebx
00003D8C  8B542460          mov edx,[esp+0x60]
00003D90  FF74246C          push dword [esp+0x6c]
00003D94  FF74246C          push dword [esp+0x6c]
00003D98  FF74246C          push dword [esp+0x6c]
00003D9C  E8FFF8FFFF        call 0x36a0
00003DA1  83C40C            add esp,byte +0xc
00003DA4  89D9              mov ecx,ebx
00003DA6  E809F7FFFF        call 0x34b4
00003DAB  83C408            add esp,byte +0x8
00003DAE  5E                pop esi
00003DAF  5F                pop edi
00003DB0  5B                pop ebx
00003DB1  5D                pop ebp
00003DB2  C3                ret
00003DB3  55                push ebp
00003DB4  53                push ebx
00003DB5  57                push edi
00003DB6  56                push esi
00003DB7  83EC38            sub esp,byte +0x38
00003DBA  89CE              mov esi,ecx
00003DBC  8B7914            mov edi,[ecx+0x14]
00003DBF  8B6918            mov ebp,[ecx+0x18]
00003DC2  8B5D0C            mov ebx,[ebp+0xc]
00003DC5  FF74244C          push dword [esp+0x4c]
00003DC9  52                push edx
00003DCA  57                push edi
00003DCB  FFD3              call ebx
00003DCD  83C40C            add esp,byte +0xc
00003DD0  B101              mov cl,0x1
00003DD2  84C0              test al,al
00003DD4  0F85D0000000      jnz near 0x3eaa
00003DDA  8B461C            mov eax,[esi+0x1c]
00003DDD  A804              test al,0x4
00003DDF  7526              jnz 0x3e07
00003DE1  6A01              push byte +0x1
00003DE3  680CE90000        push dword 0xe90c
00003DE8  57                push edi
00003DE9  FFD3              call ebx
00003DEB  83C40C            add esp,byte +0xc
00003DEE  84C0              test al,al
00003DF0  0F8580000000      jnz near 0x3e76
00003DF6  56                push esi
00003DF7  FF742454          push dword [esp+0x54]
00003DFB  FF54245C          call [esp+0x5c]
00003DFF  83C408            add esp,byte +0x8
00003E02  E988000000        jmp 0x3e8f
00003E07  89442404          mov [esp+0x4],eax
00003E0B  6A02              push byte +0x2
00003E0D  680DE90000        push dword 0xe90d
00003E12  57                push edi
00003E13  FFD3              call ebx
00003E15  83C40C            add esp,byte +0xc
00003E18  84C0              test al,al
00003E1A  755A              jnz 0x3e76
00003E1C  8D442408          lea eax,[esp+0x8]
00003E20  8938              mov [eax],edi
00003E22  896804            mov [eax+0x4],ebp
00003E25  8D4C2403          lea ecx,[esp+0x3]
00003E29  C60101            mov byte [ecx],0x1
00003E2C  894808            mov [eax+0x8],ecx
00003E2F  8D4C2414          lea ecx,[esp+0x14]
00003E33  8B542404          mov edx,[esp+0x4]
00003E37  89511C            mov [ecx+0x1c],edx
00003E3A  8B5610            mov edx,[esi+0x10]
00003E3D  895110            mov [ecx+0x10],edx
00003E40  8A5620            mov dl,[esi+0x20]
00003E43  885120            mov [ecx+0x20],dl
00003E46  8B16              mov edx,[esi]
00003E48  8911              mov [ecx],edx
00003E4A  8B5604            mov edx,[esi+0x4]
00003E4D  895104            mov [ecx+0x4],edx
00003E50  8B5608            mov edx,[esi+0x8]
00003E53  895108            mov [ecx+0x8],edx
00003E56  8B560C            mov edx,[esi+0xc]
00003E59  89510C            mov [ecx+0xc],edx
00003E5C  894114            mov [ecx+0x14],eax
00003E5F  C74118E0E80000    mov dword [ecx+0x18],0xe8e0
00003E66  51                push ecx
00003E67  FF742454          push dword [esp+0x54]
00003E6B  FF54245C          call [esp+0x5c]
00003E6F  83C408            add esp,byte +0x8
00003E72  84C0              test al,al
00003E74  7404              jz 0x3e7a
00003E76  B101              mov cl,0x1
00003E78  EB30              jmp short 0x3eaa
00003E7A  8B44242C          mov eax,[esp+0x2c]
00003E7E  6A02              push byte +0x2
00003E80  6800E90000        push dword 0xe900
00003E85  FF742430          push dword [esp+0x30]
00003E89  FF500C            call [eax+0xc]
00003E8C  83C40C            add esp,byte +0xc
00003E8F  84C0              test al,al
00003E91  B101              mov cl,0x1
00003E93  7515              jnz 0x3eaa
00003E95  8B4618            mov eax,[esi+0x18]
00003E98  6A01              push byte +0x1
00003E9A  68F4E70000        push dword 0xe7f4
00003E9F  FF7614            push dword [esi+0x14]
00003EA2  FF500C            call [eax+0xc]
00003EA5  83C40C            add esp,byte +0xc
00003EA8  89C1              mov ecx,eax
00003EAA  89C8              mov eax,ecx
00003EAC  83C438            add esp,byte +0x38
00003EAF  5E                pop esi
00003EB0  5F                pop edi
00003EB1  5B                pop ebx
00003EB2  5D                pop ebp
00003EB3  C3                ret
00003EB4  8B442404          mov eax,[esp+0x4]
00003EB8  85C0              test eax,eax
00003EBA  7417              jz 0x3ed3
00003EBC  39C2              cmp edx,eax
00003EBE  7611              jna 0x3ed1
00003EC0  803C01BF          cmp byte [ecx+eax],0xbf
00003EC4  7F0D              jg 0x3ed3
00003EC6  FF742408          push dword [esp+0x8]
00003ECA  52                push edx
00003ECB  50                push eax
00003ECC  E809000000        call 0x3eda
00003ED1  75F3              jnz 0x3ec6
00003ED3  01C1              add ecx,eax
00003ED5  29C2              sub edx,eax
00003ED7  89C8              mov eax,ecx
00003ED9  C3                ret
00003EDA  FF74240C          push dword [esp+0xc]
00003EDE  FF74240C          push dword [esp+0xc]
00003EE2  FF74240C          push dword [esp+0xc]
00003EE6  E800000000        call 0x3eeb
00003EEB  55                push ebp
00003EEC  53                push ebx
00003EED  57                push edi
00003EEE  56                push esi
00003EEF  83EC64            sub esp,byte +0x64
00003EF2  89D7              mov edi,edx
00003EF4  89CB              mov ebx,ecx
00003EF6  8B44247C          mov eax,[esp+0x7c]
00003EFA  89442410          mov [esp+0x10],eax
00003EFE  8B742478          mov esi,[esp+0x78]
00003F02  6800010000        push dword 0x100
00003F07  E8DE010000        call 0x40ea
00003F0C  59                pop ecx
00003F0D  89C5              mov ebp,eax
00003F0F  89C1              mov ecx,eax
00003F11  89DA              mov edx,ebx
00003F13  57                push edi
00003F14  E83AEEFFFF        call 0x2d53
00003F19  59                pop ecx
00003F1A  85C0              test eax,eax
00003F1C  7513              jnz 0x3f31
00003F1E  89D9              mov ecx,ebx
00003F20  89FA              mov edx,edi
00003F22  FFB42480000000    push dword [esp+0x80]
00003F29  55                push ebp
00003F2A  6A00              push byte +0x0
00003F2C  E8A9FFFFFF        call 0x3eda
00003F31  890424            mov [esp],eax
00003F34  89542404          mov [esp+0x4],edx
00003F38  31C0              xor eax,eax
00003F3A  39FD              cmp ebp,edi
00003F3C  0F92C1            setc cl
00003F3F  BA80ED0000        mov edx,0xed80
00003F44  7205              jc 0x3f4b
00003F46  BAF4E70000        mov edx,0xe7f4
00003F4B  88C8              mov al,cl
00003F4D  8D0480            lea eax,[eax+eax*4]
00003F50  89542408          mov [esp+0x8],edx
00003F54  8944240C          mov [esp+0xc],eax
00003F58  39FE              cmp esi,edi
00003F5A  770A              ja 0x3f66
00003F5C  8B442410          mov eax,[esp+0x10]
00003F60  39F8              cmp eax,edi
00003F62  7652              jna 0x3fb6
00003F64  89C6              mov esi,eax
00003F66  8D4C2444          lea ecx,[esp+0x44]
00003F6A  8931              mov [ecx],esi
00003F6C  8D44241C          lea eax,[esp+0x1c]
00003F70  8908              mov [eax],ecx
00003F72  C740049ABE0000    mov dword [eax+0x4],0xbe9a
00003F79  89E1              mov ecx,esp
00003F7B  894808            mov [eax+0x8],ecx
00003F7E  B9EABB0000        mov ecx,0xbbea
00003F83  89480C            mov [eax+0xc],ecx
00003F86  8D542408          lea edx,[esp+0x8]
00003F8A  895010            mov [eax+0x10],edx
00003F8D  894814            mov [eax+0x14],ecx
00003F90  8D4C244C          lea ecx,[esp+0x4c]
00003F94  C7012CEE0000      mov dword [ecx],0xee2c
00003F9A  6A03              push byte +0x3
00003F9C  5A                pop edx
00003F9D  895104            mov [ecx+0x4],edx
00003FA0  83611000          and dword [ecx+0x10],byte +0x0
00003FA4  894108            mov [ecx+0x8],eax
00003FA7  89510C            mov [ecx+0xc],edx
00003FAA  8B942480000000    mov edx,[esp+0x80]
00003FB1  E849E5FFFF        call 0x24ff
00003FB6  39C6              cmp esi,eax
00003FB8  7641              jna 0x3ffb
00003FBA  8D4C2478          lea ecx,[esp+0x78]
00003FBE  8D44241C          lea eax,[esp+0x1c]
00003FC2  8908              mov [eax],ecx
00003FC4  B99ABE0000        mov ecx,0xbe9a
00003FC9  894804            mov [eax+0x4],ecx
00003FCC  8D54247C          lea edx,[esp+0x7c]
00003FD0  895008            mov [eax+0x8],edx
00003FD3  89480C            mov [eax+0xc],ecx
00003FD6  89E1              mov ecx,esp
00003FD8  894810            mov [eax+0x10],ecx
00003FDB  B9EABB0000        mov ecx,0xbbea
00003FE0  894814            mov [eax+0x14],ecx
00003FE3  8D542408          lea edx,[esp+0x8]
00003FE7  895018            mov [eax+0x18],edx
00003FEA  89481C            mov [eax+0x1c],ecx
00003FED  8D4C244C          lea ecx,[esp+0x4c]
00003FF1  C70194ED0000      mov dword [ecx],0xed94
00003FF7  6A04              push byte +0x4
00003FF9  EBA1              jmp short 0x3f9c
00003FFB  85F6              test esi,esi
00003FFD  740A              jz 0x4009
00003FFF  39FE              cmp esi,edi
00004001  7306              jnc 0x4009
00004003  803C33C0          cmp byte [ebx+esi],0xc0
00004007  7C02              jl 0x400b
00004009  89C6              mov esi,eax
0000400B  89742414          mov [esp+0x14],esi
0000400F  89D9              mov ecx,ebx
00004011  89FA              mov edx,edi
00004013  56                push esi
00004014  E8D1000000        call 0x40ea
00004019  59                pop ecx
0000401A  89C5              mov ebp,eax
0000401C  89D9              mov ecx,ebx
0000401E  89FA              mov edx,edi
00004020  8BB42480000000    mov esi,[esp+0x80]
00004027  56                push esi
00004028  50                push eax
00004029  E886FEFFFF        call 0x3eb4
0000402E  59                pop ecx
0000402F  59                pop ecx
00004030  01C2              add edx,eax
00004032  8D7C241C          lea edi,[esp+0x1c]
00004036  8907              mov [edi],eax
00004038  895704            mov [edi+0x4],edx
0000403B  89F9              mov ecx,edi
0000403D  E832EDFFFF        call 0x2d74
00004042  3D00001100        cmp eax,0x110000
00004047  7507              jnz 0x4050
00004049  89F1              mov ecx,esi
0000404B  E87BFBFFFF        call 0x3bcb
00004050  89442418          mov [esp+0x18],eax
00004054  3D80000000        cmp eax,0x80
00004059  7305              jnc 0x4060
0000405B  31C0              xor eax,eax
0000405D  40                inc eax
0000405E  EB17              jmp short 0x4077
00004060  3D00080000        cmp eax,0x800
00004065  7305              jnc 0x406c
00004067  6A02              push byte +0x2
00004069  58                pop eax
0000406A  EB0B              jmp short 0x4077
0000406C  3D00000100        cmp eax,0x10000
00004071  6A04              push byte +0x4
00004073  58                pop eax
00004074  83D800            sbb eax,byte +0x0
00004077  01E8              add eax,ebp
00004079  8D4C2444          lea ecx,[esp+0x44]
0000407D  8929              mov [ecx],ebp
0000407F  894104            mov [ecx+0x4],eax
00004082  8D442414          lea eax,[esp+0x14]
00004086  8944241C          mov [esp+0x1c],eax
0000408A  C74424209ABE0000  mov dword [esp+0x20],0xbe9a
00004092  8D442418          lea eax,[esp+0x18]
00004096  89442424          mov [esp+0x24],eax
0000409A  C74424289CCA0000  mov dword [esp+0x28],0xca9c
000040A2  894C242C          mov [esp+0x2c],ecx
000040A6  C744243052C20000  mov dword [esp+0x30],0xc252
000040AE  89E0              mov eax,esp
000040B0  89442434          mov [esp+0x34],eax
000040B4  B8EABB0000        mov eax,0xbbea
000040B9  89442438          mov [esp+0x38],eax
000040BD  8D4C2408          lea ecx,[esp+0x8]
000040C1  894C243C          mov [esp+0x3c],ecx
000040C5  89442440          mov [esp+0x40],eax
000040C9  8D4C244C          lea ecx,[esp+0x4c]
000040CD  C701ECED0000      mov dword [ecx],0xedec
000040D3  6A05              push byte +0x5
000040D5  58                pop eax
000040D6  894104            mov [ecx+0x4],eax
000040D9  83611000          and dword [ecx+0x10],byte +0x0
000040DD  897908            mov [ecx+0x8],edi
000040E0  89410C            mov [ecx+0xc],eax
000040E3  89F2              mov edx,esi
000040E5  E815E4FFFF        call 0x24ff
000040EA  57                push edi
000040EB  56                push esi
000040EC  89D0              mov eax,edx
000040EE  8B54240C          mov edx,[esp+0xc]
000040F2  39D0              cmp eax,edx
000040F4  7633              jna 0x4129
000040F6  89CF              mov edi,ecx
000040F8  31F6              xor esi,esi
000040FA  89D1              mov ecx,edx
000040FC  83E903            sub ecx,byte +0x3
000040FF  7202              jc 0x4103
00004101  89CE              mov esi,ecx
00004103  42                inc edx
00004104  89F1              mov ecx,esi
00004106  68B4EE0000        push dword 0xeeb4
0000410B  50                push eax
0000410C  57                push edi
0000410D  E8A1EAFFFF        call 0x2bb3
00004112  83C40C            add esp,byte +0xc
00004115  89C1              mov ecx,eax
00004117  85D2              test edx,edx
00004119  740C              jz 0x4127
0000411B  8D42FF            lea eax,[edx-0x1]
0000411E  807C11FFC0        cmp byte [ecx+edx-0x1],0xc0
00004123  89C2              mov edx,eax
00004125  7CF0              jl 0x4117
00004127  01F0              add eax,esi
00004129  5E                pop esi
0000412A  5F                pop edi
0000412B  C3                ret
0000412C  50                push eax
0000412D  8B4C240C          mov ecx,[esp+0xc]
00004131  8B442408          mov eax,[esp+0x8]
00004135  8B11              mov edx,[ecx]
00004137  0B5108            or edx,[ecx+0x8]
0000413A  8B00              mov eax,[eax]
0000413C  7512              jnz 0x4150
0000413E  8B5118            mov edx,[ecx+0x18]
00004141  50                push eax
00004142  FF7114            push dword [ecx+0x14]
00004145  FF5210            call [edx+0x10]
00004148  83C408            add esp,byte +0x8
0000414B  E997000000        jmp 0x41e7
00004150  83242400          and dword [esp],byte +0x0
00004154  3D80000000        cmp eax,0x80
00004159  7308              jnc 0x4163
0000415B  880424            mov [esp],al
0000415E  31C0              xor eax,eax
00004160  40                inc eax
00004161  EB7B              jmp short 0x41de
00004163  89C2              mov edx,eax
00004165  3D00080000        cmp eax,0x800
0000416A  7315              jnc 0x4181
0000416C  C1EA06            shr edx,byte 0x6
0000416F  80CAC0            or dl,0xc0
00004172  881424            mov [esp],dl
00004175  243F              and al,0x3f
00004177  0C80              or al,0x80
00004179  88442401          mov [esp+0x1],al
0000417D  6A02              push byte +0x2
0000417F  EB5C              jmp short 0x41dd
00004181  3D00000100        cmp eax,0x10000
00004186  7324              jnc 0x41ac
00004188  C1EA0C            shr edx,byte 0xc
0000418B  80CAE0            or dl,0xe0
0000418E  881424            mov [esp],dl
00004191  89C2              mov edx,eax
00004193  C1EA06            shr edx,byte 0x6
00004196  80E23F            and dl,0x3f
00004199  80CA80            or dl,0x80
0000419C  88542401          mov [esp+0x1],dl
000041A0  243F              and al,0x3f
000041A2  0C80              or al,0x80
000041A4  88442402          mov [esp+0x2],al
000041A8  6A03              push byte +0x3
000041AA  EB31              jmp short 0x41dd
000041AC  C1EA12            shr edx,byte 0x12
000041AF  80CAF0            or dl,0xf0
000041B2  881424            mov [esp],dl
000041B5  89C2              mov edx,eax
000041B7  C1EA0C            shr edx,byte 0xc
000041BA  80E23F            and dl,0x3f
000041BD  80CA80            or dl,0x80
000041C0  88542401          mov [esp+0x1],dl
000041C4  89C2              mov edx,eax
000041C6  C1EA06            shr edx,byte 0x6
000041C9  80E23F            and dl,0x3f
000041CC  80CA80            or dl,0x80
000041CF  88542402          mov [esp+0x2],dl
000041D3  243F              and al,0x3f
000041D5  0C80              or al,0x80
000041D7  88442403          mov [esp+0x3],al
000041DB  6A04              push byte +0x4
000041DD  58                pop eax
000041DE  89E2              mov edx,esp
000041E0  50                push eax
000041E1  E84CEAFFFF        call 0x2c32
000041E6  59                pop ecx
000041E7  59                pop ecx
000041E8  C3                ret
000041E9  53                push ebx
000041EA  57                push edi
000041EB  56                push esi
000041EC  81EC80000000      sub esp,0x80
000041F2  8BB42494000000    mov esi,[esp+0x94]
000041F9  8B842490000000    mov eax,[esp+0x90]
00004200  0FB700            movzx eax,word [eax]
00004203  BA80000000        mov edx,0x80
00004208  0FB7C8            movzx ecx,ax
0000420B  89C8              mov eax,ecx
0000420D  D1E8              shr eax,1
0000420F  89CB              mov ebx,ecx
00004211  80E301            and bl,0x1
00004214  80CB30            or bl,0x30
00004217  885C14FF          mov [esp+edx-0x1],bl
0000421B  4A                dec edx
0000421C  6683F901          cmp cx,byte +0x1
00004220  77E6              ja 0x4208
00004222  89E1              mov ecx,esp
00004224  E8E1EDFFFF        call 0x300a
00004229  89D7              mov edi,edx
0000422B  89F1              mov ecx,esi
0000422D  BA90E90000        mov edx,0xe990
00004232  57                push edi
00004233  50                push eax
00004234  6A02              push byte +0x2
00004236  E808E4FFFF        call 0x2643
0000423B  81C48C000000      add esp,0x8c
00004241  5E                pop esi
00004242  5F                pop edi
00004243  5B                pop ebx
00004244  C3                ret
00004245  0FB6C1            movzx eax,cl
00004248  48                dec eax
00004249  83F857            cmp eax,byte +0x57
0000424C  0F87F8010000      ja near 0x444a
00004252  FF248514D90000    jmp [eax*4+0xd914]
00004259  B212              mov dl,0x12
0000425B  E9E7010000        jmp 0x4447
00004260  B223              mov dl,0x23
00004262  E9E0010000        jmp 0x4447
00004267  B224              mov dl,0x24
00004269  E9D9010000        jmp 0x4447
0000426E  B225              mov dl,0x25
00004270  E9D2010000        jmp 0x4447
00004275  B226              mov dl,0x26
00004277  E9CB010000        jmp 0x4447
0000427C  B227              mov dl,0x27
0000427E  E9C4010000        jmp 0x4447
00004283  B228              mov dl,0x28
00004285  E9BD010000        jmp 0x4447
0000428A  B229              mov dl,0x29
0000428C  E9B6010000        jmp 0x4447
00004291  B22B              mov dl,0x2b
00004293  E9AF010000        jmp 0x4447
00004298  B22C              mov dl,0x2c
0000429A  E9A8010000        jmp 0x4447
0000429F  B22E              mov dl,0x2e
000042A1  E9A1010000        jmp 0x4447
000042A6  B213              mov dl,0x13
000042A8  E99A010000        jmp 0x4447
000042AD  B207              mov dl,0x7
000042AF  E993010000        jmp 0x4447
000042B4  B24A              mov dl,0x4a
000042B6  E98C010000        jmp 0x4447
000042BB  B25E              mov dl,0x5e
000042BD  E985010000        jmp 0x4447
000042C2  B25F              mov dl,0x5f
000042C4  E97E010000        jmp 0x4447
000042C9  B261              mov dl,0x61
000042CB  E977010000        jmp 0x4447
000042D0  B262              mov dl,0x62
000042D2  E970010000        jmp 0x4447
000042D7  B256              mov dl,0x56
000042D9  E969010000        jmp 0x4447
000042DE  B25C              mov dl,0x5c
000042E0  E962010000        jmp 0x4447
000042E5  B25D              mov dl,0x5d
000042E7  E95B010000        jmp 0x4447
000042EC  B209              mov dl,0x9
000042EE  E954010000        jmp 0x4447
000042F3  B20D              mov dl,0xd
000042F5  E94D010000        jmp 0x4447
000042FA  B24E              mov dl,0x4e
000042FC  E946010000        jmp 0x4447
00004301  B260              mov dl,0x60
00004303  E93F010000        jmp 0x4447
00004308  B251              mov dl,0x51
0000430A  E938010000        jmp 0x4447
0000430F  B254              mov dl,0x54
00004311  E931010000        jmp 0x4447
00004316  B258              mov dl,0x58
00004318  E92A010000        jmp 0x4447
0000431D  B259              mov dl,0x59
0000431F  E923010000        jmp 0x4447
00004324  B245              mov dl,0x45
00004326  E91C010000        jmp 0x4447
0000432B  B24B              mov dl,0x4b
0000432D  E915010000        jmp 0x4447
00004332  B208              mov dl,0x8
00004334  E90E010000        jmp 0x4447
00004339  B246              mov dl,0x46
0000433B  E907010000        jmp 0x4447
00004340  B267              mov dl,0x67
00004342  E900010000        jmp 0x4447
00004347  B265              mov dl,0x65
00004349  E9F9000000        jmp 0x4447
0000434E  B250              mov dl,0x50
00004350  E9F2000000        jmp 0x4447
00004355  B263              mov dl,0x63
00004357  E9EB000000        jmp 0x4447
0000435C  B25B              mov dl,0x5b
0000435E  E9E4000000        jmp 0x4447
00004363  B25A              mov dl,0x5a
00004365  E9DD000000        jmp 0x4447
0000436A  B20C              mov dl,0xc
0000436C  E9D6000000        jmp 0x4447
00004371  B247              mov dl,0x47
00004373  E9CF000000        jmp 0x4447
00004378  B23C              mov dl,0x3c
0000437A  E9C8000000        jmp 0x4447
0000437F  B249              mov dl,0x49
00004381  E9C1000000        jmp 0x4447
00004386  B21A              mov dl,0x1a
00004388  E9BA000000        jmp 0x4447
0000438D  B21C              mov dl,0x1c
0000438F  E9B3000000        jmp 0x4447
00004394  B244              mov dl,0x44
00004396  E9AC000000        jmp 0x4447
0000439B  B238              mov dl,0x38
0000439D  E9A5000000        jmp 0x4447
000043A2  B23D              mov dl,0x3d
000043A4  E99E000000        jmp 0x4447
000043A9  B234              mov dl,0x34
000043AB  E997000000        jmp 0x4447
000043B0  B23F              mov dl,0x3f
000043B2  E990000000        jmp 0x4447
000043B7  B230              mov dl,0x30
000043B9  E989000000        jmp 0x4447
000043BE  B231              mov dl,0x31
000043C0  E982000000        jmp 0x4447
000043C5  B232              mov dl,0x32
000043C7  EB7E              jmp short 0x4447
000043C9  B22F              mov dl,0x2f
000043CB  EB7A              jmp short 0x4447
000043CD  B21E              mov dl,0x1e
000043CF  EB76              jmp short 0x4447
000043D1  B21F              mov dl,0x1f
000043D3  EB72              jmp short 0x4447
000043D5  B22A              mov dl,0x2a
000043D7  EB6E              jmp short 0x4447
000043D9  B264              mov dl,0x64
000043DB  EB6A              jmp short 0x4447
000043DD  B252              mov dl,0x52
000043DF  EB66              jmp short 0x4447
000043E1  B266              mov dl,0x66
000043E3  EB62              jmp short 0x4447
000043E5  B20A              mov dl,0xa
000043E7  EB5E              jmp short 0x4447
000043E9  B211              mov dl,0x11
000043EB  EB5A              jmp short 0x4447
000043ED  B253              mov dl,0x53
000043EF  EB56              jmp short 0x4447
000043F1  B255              mov dl,0x55
000043F3  EB52              jmp short 0x4447
000043F5  B257              mov dl,0x57
000043F7  EB4E              jmp short 0x4447
000043F9  B206              mov dl,0x6
000043FB  EB4A              jmp short 0x4447
000043FD  B24F              mov dl,0x4f
000043FF  EB46              jmp short 0x4447
00004401  B220              mov dl,0x20
00004403  EB42              jmp short 0x4447
00004405  B248              mov dl,0x48
00004407  EB3E              jmp short 0x4447
00004409  31D2              xor edx,edx
0000440B  EB3A              jmp short 0x4447
0000440D  B20B              mov dl,0xb
0000440F  EB36              jmp short 0x4447
00004411  B214              mov dl,0x14
00004413  EB32              jmp short 0x4447
00004415  B215              mov dl,0x15
00004417  EB2E              jmp short 0x4447
00004419  B216              mov dl,0x16
0000441B  EB2A              jmp short 0x4447
0000441D  B217              mov dl,0x17
0000441F  EB26              jmp short 0x4447
00004421  B218              mov dl,0x18
00004423  EB22              jmp short 0x4447
00004425  B219              mov dl,0x19
00004427  EB1E              jmp short 0x4447
00004429  B21B              mov dl,0x1b
0000442B  EB1A              jmp short 0x4447
0000442D  B21D              mov dl,0x1d
0000442F  EB16              jmp short 0x4447
00004431  B23A              mov dl,0x3a
00004433  EB12              jmp short 0x4447
00004435  B236              mov dl,0x36
00004437  EB0E              jmp short 0x4447
00004439  B237              mov dl,0x37
0000443B  EB0A              jmp short 0x4447
0000443D  B233              mov dl,0x33
0000443F  EB06              jmp short 0x4447
00004441  B235              mov dl,0x35
00004443  EB02              jmp short 0x4447
00004445  B23E              mov dl,0x3e
00004447  31C0              xor eax,eax
00004449  C3                ret
0000444A  89C8              mov eax,ecx
0000444C  047F              add al,0x7f
0000444E  3C58              cmp al,0x58
00004450  730C              jnc 0x445e
00004452  80C180            add cl,0x80
00004455  0FB6C9            movzx ecx,cl
00004458  E8E8FDFFFF        call 0x4245
0000445D  C3                ret
0000445E  B001              mov al,0x1
00004460  B203              mov dl,0x3
00004462  C3                ret
00004463  0FB6C1            movzx eax,cl
00004466  8D48B9            lea ecx,[eax-0x47]
00004469  83F90C            cmp ecx,byte +0xc
0000446C  7613              jna 0x4481
0000446E  8D48E7            lea ecx,[eax-0x19]
00004471  83F90B            cmp ecx,byte +0xb
00004474  7716              ja 0x448c
00004476  FF248D74DA0000    jmp [ecx*4+0xda74]
0000447D  B26A              mov dl,0x6a
0000447F  EB76              jmp short 0x44f7
00004481  FF248DD0DA0000    jmp [ecx*4+0xdad0]
00004488  B221              mov dl,0x21
0000448A  EB6B              jmp short 0x44f7
0000448C  8D48D2            lea ecx,[eax-0x2e]
0000448F  83F90A            cmp ecx,byte +0xa
00004492  770B              ja 0x449f
00004494  FF248DA4DA0000    jmp [ecx*4+0xdaa4]
0000449B  B26F              mov dl,0x6f
0000449D  EB58              jmp short 0x44f7
0000449F  83F810            cmp eax,byte +0x10
000044A2  7504              jnz 0x44a8
000044A4  B269              mov dl,0x69
000044A6  EB4F              jmp short 0x44f7
000044A8  B001              mov al,0x1
000044AA  B203              mov dl,0x3
000044AC  C3                ret
000044AD  B239              mov dl,0x39
000044AF  EB46              jmp short 0x44f7
000044B1  B20E              mov dl,0xe
000044B3  EB42              jmp short 0x44f7
000044B5  B26B              mov dl,0x6b
000044B7  EB3E              jmp short 0x44f7
000044B9  B26C              mov dl,0x6c
000044BB  EB3A              jmp short 0x44f7
000044BD  B26D              mov dl,0x6d
000044BF  EB36              jmp short 0x44f7
000044C1  B26E              mov dl,0x6e
000044C3  EB32              jmp short 0x44f7
000044C5  B205              mov dl,0x5
000044C7  EB2E              jmp short 0x44f7
000044C9  B241              mov dl,0x41
000044CB  EB2A              jmp short 0x44f7
000044CD  B203              mov dl,0x3
000044CF  EB26              jmp short 0x44f7
000044D1  B204              mov dl,0x4
000044D3  EB22              jmp short 0x44f7
000044D5  B210              mov dl,0x10
000044D7  EB1E              jmp short 0x44f7
000044D9  B202              mov dl,0x2
000044DB  EB1A              jmp short 0x44f7
000044DD  B240              mov dl,0x40
000044DF  EB16              jmp short 0x44f7
000044E1  B222              mov dl,0x22
000044E3  EB12              jmp short 0x44f7
000044E5  B20F              mov dl,0xf
000044E7  EB0E              jmp short 0x44f7
000044E9  B270              mov dl,0x70
000044EB  EB0A              jmp short 0x44f7
000044ED  B271              mov dl,0x71
000044EF  EB06              jmp short 0x44f7
000044F1  B23B              mov dl,0x3b
000044F3  EB02              jmp short 0x44f7
000044F5  B201              mov dl,0x1
000044F7  31C0              xor eax,eax
000044F9  C3                ret
000044FA  8B542408          mov edx,[esp+0x8]
000044FE  8B442404          mov eax,[esp+0x4]
00004502  8B00              mov eax,[eax]
00004504  8B4A1C            mov ecx,[edx+0x1c]
00004507  F6C110            test cl,0x10
0000450A  750E              jnz 0x451a
0000450C  F6C120            test cl,0x20
0000450F  7513              jnz 0x4524
00004511  52                push edx
00004512  50                push eax
00004513  E882EBFFFF        call 0x309a
00004518  EB07              jmp short 0x4521
0000451A  52                push edx
0000451B  50                push eax
0000451C  E817EBFFFF        call 0x3038
00004521  59                pop ecx
00004522  5A                pop edx
00004523  C3                ret
00004524  8B08              mov ecx,[eax]
00004526  E97EEBFFFF        jmp 0x30a9
0000452B  55                push ebp
0000452C  53                push ebx
0000452D  57                push edi
0000452E  56                push esi
0000452F  83EC34            sub esp,byte +0x34
00004532  8B44244C          mov eax,[esp+0x4c]
00004536  8B4C2448          mov ecx,[esp+0x48]
0000453A  8B19              mov ebx,[ecx]
0000453C  8B7104            mov esi,[ecx+0x4]
0000453F  8B7814            mov edi,[eax+0x14]
00004542  8B4018            mov eax,[eax+0x18]
00004545  8944240C          mov [esp+0xc],eax
00004549  8B6810            mov ebp,[eax+0x10]
0000454C  6A22              push byte +0x22
0000454E  57                push edi
0000454F  FFD5              call ebp
00004551  59                pop ecx
00004552  5A                pop edx
00004553  84C0              test al,al
00004555  740A              jz 0x4561
00004557  B001              mov al,0x1
00004559  83C434            add esp,byte +0x34
0000455C  5E                pop esi
0000455D  5F                pop edi
0000455E  5B                pop ebx
0000455F  5D                pop ebp
00004560  C3                ret
00004561  89742404          mov [esp+0x4],esi
00004565  8D0433            lea eax,[ebx+esi]
00004568  8D4C2428          lea ecx,[esp+0x28]
0000456C  891C24            mov [esp],ebx
0000456F  8919              mov [ecx],ebx
00004571  894104            mov [ecx+0x4],eax
00004574  83610800          and dword [ecx+0x8],byte +0x0
00004578  C744240800000000  mov dword [esp+0x8],0x0
00004580  8D4C2428          lea ecx,[esp+0x28]
00004584  E89FE7FFFF        call 0x2d28
00004589  81FA00001100      cmp edx,0x110000
0000458F  0F84FB000000      jz near 0x4690
00004595  89C3              mov ebx,eax
00004597  89D6              mov esi,edx
00004599  8D4C2410          lea ecx,[esp+0x10]
0000459D  6801000100        push dword 0x10001
000045A2  E8DEF2FFFF        call 0x3885
000045A7  58                pop eax
000045A8  807C241080        cmp byte [esp+0x10],0x80
000045AD  7436              jz 0x45e5
000045AF  8A44241B          mov al,[esp+0x1b]
000045B3  2A44241A          sub al,[esp+0x1a]
000045B7  3C01              cmp al,0x1
000045B9  8B542408          mov edx,[esp+0x8]
000045BD  0F84C4000000      jz near 0x4687
000045C3  89D8              mov eax,ebx
000045C5  29D0              sub eax,edx
000045C7  0F82FC000000      jc near 0x46c9
000045CD  85D2              test edx,edx
000045CF  7423              jz 0x45f4
000045D1  3B542404          cmp edx,[esp+0x4]
000045D5  7317              jnc 0x45ee
000045D7  8B0C24            mov ecx,[esp]
000045DA  803C11C0          cmp byte [ecx+edx],0xc0
000045DE  7D14              jnl 0x45f4
000045E0  E9E4000000        jmp 0x46c9
000045E5  8B542408          mov edx,[esp+0x8]
000045E9  E999000000        jmp 0x4687
000045EE  0F85D5000000      jnz near 0x46c9
000045F4  85DB              test ebx,ebx
000045F6  741A              jz 0x4612
000045F8  3B5C2404          cmp ebx,[esp+0x4]
000045FC  730E              jnc 0x460c
000045FE  8B0C24            mov ecx,[esp]
00004601  803C19BF          cmp byte [ecx+ebx],0xbf
00004605  7F0B              jg 0x4612
00004607  E9BD000000        jmp 0x46c9
0000460C  0F85B7000000      jnz near 0x46c9
00004612  031424            add edx,[esp]
00004615  50                push eax
00004616  52                push edx
00004617  57                push edi
00004618  8B442418          mov eax,[esp+0x18]
0000461C  FF500C            call [eax+0xc]
0000461F  83C40C            add esp,byte +0xc
00004622  84C0              test al,al
00004624  0F852DFFFFFF      jnz near 0x4557
0000462A  8B442418          mov eax,[esp+0x18]
0000462E  89442424          mov [esp+0x24],eax
00004632  8B442410          mov eax,[esp+0x10]
00004636  8B4C2414          mov ecx,[esp+0x14]
0000463A  894C2420          mov [esp+0x20],ecx
0000463E  8944241C          mov [esp+0x1c],eax
00004642  8D4C241C          lea ecx,[esp+0x1c]
00004646  E890F5FFFF        call 0x3bdb
0000464B  3D00001100        cmp eax,0x110000
00004650  740F              jz 0x4661
00004652  50                push eax
00004653  57                push edi
00004654  FFD5              call ebp
00004656  59                pop ecx
00004657  5A                pop edx
00004658  84C0              test al,al
0000465A  74E6              jz 0x4642
0000465C  E9F6FEFFFF        jmp 0x4557
00004661  81FE80000000      cmp esi,0x80
00004667  BA01000000        mov edx,0x1
0000466C  7217              jc 0x4685
0000466E  81FE00080000      cmp esi,0x800
00004674  6A02              push byte +0x2
00004676  5A                pop edx
00004677  720C              jc 0x4685
00004679  81FE00000100      cmp esi,0x10000
0000467F  6A04              push byte +0x4
00004681  5A                pop edx
00004682  83DA00            sbb edx,byte +0x0
00004685  01DA              add edx,ebx
00004687  89542408          mov [esp+0x8],edx
0000468B  E9F0FEFFFF        jmp 0x4580
00004690  8B0C24            mov ecx,[esp]
00004693  8B542404          mov edx,[esp+0x4]
00004697  68D0EA0000        push dword 0xead0
0000469C  FF74240C          push dword [esp+0xc]
000046A0  E80FF8FFFF        call 0x3eb4
000046A5  59                pop ecx
000046A6  59                pop ecx
000046A7  52                push edx
000046A8  50                push eax
000046A9  57                push edi
000046AA  8B442418          mov eax,[esp+0x18]
000046AE  FF500C            call [eax+0xc]
000046B1  83C40C            add esp,byte +0xc
000046B4  84C0              test al,al
000046B6  0F859BFEFFFF      jnz near 0x4557
000046BC  6A22              push byte +0x22
000046BE  57                push edi
000046BF  FFD5              call ebp
000046C1  83C43C            add esp,byte +0x3c
000046C4  E993FEFFFF        jmp 0x455c
000046C9  8B0C24            mov ecx,[esp]
000046CC  89D0              mov eax,edx
000046CE  8B542404          mov edx,[esp+0x4]
000046D2  68E0EA0000        push dword 0xeae0
000046D7  53                push ebx
000046D8  50                push eax
000046D9  E8FCF7FFFF        call 0x3eda
000046DE  55                push ebp
000046DF  53                push ebx
000046E0  57                push edi
000046E1  56                push esi
000046E2  50                push eax
000046E3  8B4C241C          mov ecx,[esp+0x1c]
000046E7  8B442418          mov eax,[esp+0x18]
000046EB  0FB710            movzx edx,word [eax]
000046EE  6685D2            test dx,dx
000046F1  742B              jz 0x471e
000046F3  F6C201            test dl,0x1
000046F6  891424            mov [esp],edx
000046F9  756A              jnz 0x4765
000046FB  F6C202            test dl,0x2
000046FE  0F859D000000      jnz near 0x47a1
00004704  89D0              mov eax,edx
00004706  F7D0              not eax
00004708  A803              test al,0x3
0000470A  0F8509010000      jnz near 0x4819
00004710  8B7914            mov edi,[ecx+0x14]
00004713  8B6918            mov ebp,[ecx+0x18]
00004716  8B750C            mov esi,[ebp+0xc]
00004719  E9C3000000        jmp 0x47e1
0000471E  8B7114            mov esi,[ecx+0x14]
00004721  8B4118            mov eax,[ecx+0x18]
00004724  8B780C            mov edi,[eax+0xc]
00004727  6A05              push byte +0x5
00004729  681CFA0000        push dword 0xfa1c
0000472E  56                push esi
0000472F  FFD7              call edi
00004731  83C40C            add esp,byte +0xc
00004734  B301              mov bl,0x1
00004736  84C0              test al,al
00004738  0F856E010000      jnz near 0x48ac
0000473E  6A03              push byte +0x3
00004740  6810FA0000        push dword 0xfa10
00004745  56                push esi
00004746  FFD7              call edi
00004748  83C40C            add esp,byte +0xc
0000474B  84C0              test al,al
0000474D  0F8559010000      jnz near 0x48ac
00004753  6A06              push byte +0x6
00004755  6830FA0000        push dword 0xfa30
0000475A  56                push esi
0000475B  FFD7              call edi
0000475D  83C40C            add esp,byte +0xc
00004760  E941010000        jmp 0x48a6
00004765  8B7914            mov edi,[ecx+0x14]
00004768  8B6918            mov ebp,[ecx+0x18]
0000476B  8B750C            mov esi,[ebp+0xc]
0000476E  6A05              push byte +0x5
00004770  6821FA0000        push dword 0xfa21
00004775  57                push edi
00004776  FFD6              call esi
00004778  83C40C            add esp,byte +0xc
0000477B  B301              mov bl,0x1
0000477D  84C0              test al,al
0000477F  0F8527010000      jnz near 0x48ac
00004785  F6042402          test byte [esp],0x2
00004789  7436              jz 0x47c1
0000478B  6A03              push byte +0x3
0000478D  6810FA0000        push dword 0xfa10
00004792  57                push edi
00004793  FFD6              call esi
00004795  83C40C            add esp,byte +0xc
00004798  84C0              test al,al
0000479A  740E              jz 0x47aa
0000479C  E90B010000        jmp 0x48ac
000047A1  8B7914            mov edi,[ecx+0x14]
000047A4  8B6918            mov ebp,[ecx+0x18]
000047A7  8B750C            mov esi,[ebp+0xc]
000047AA  6A05              push byte +0x5
000047AC  6826FA0000        push dword 0xfa26
000047B1  57                push edi
000047B2  FFD6              call esi
000047B4  83C40C            add esp,byte +0xc
000047B7  B301              mov bl,0x1
000047B9  84C0              test al,al
000047BB  0F85EB000000      jnz near 0x48ac
000047C1  8B0424            mov eax,[esp]
000047C4  F7D0              not eax
000047C6  A803              test al,0x3
000047C8  752E              jnz 0x47f8
000047CA  6A03              push byte +0x3
000047CC  6810FA0000        push dword 0xfa10
000047D1  57                push edi
000047D2  FFD6              call esi
000047D4  83C40C            add esp,byte +0xc
000047D7  B301              mov bl,0x1
000047D9  84C0              test al,al
000047DB  0F85CB000000      jnz near 0x48ac
000047E1  6A05              push byte +0x5
000047E3  682BFA0000        push dword 0xfa2b
000047E8  57                push edi
000047E9  FFD6              call esi
000047EB  83C40C            add esp,byte +0xc
000047EE  B301              mov bl,0x1
000047F0  84C0              test al,al
000047F2  0F85B4000000      jnz near 0x48ac
000047F8  F6042404          test byte [esp],0x4
000047FC  7450              jz 0x484e
000047FE  8B750C            mov esi,[ebp+0xc]
00004801  6A03              push byte +0x3
00004803  6810FA0000        push dword 0xfa10
00004808  57                push edi
00004809  FFD6              call esi
0000480B  83C40C            add esp,byte +0xc
0000480E  B301              mov bl,0x1
00004810  84C0              test al,al
00004812  7427              jz 0x483b
00004814  E993000000        jmp 0x48ac
00004819  F6C204            test dl,0x4
0000481C  7514              jnz 0x4832
0000481E  6683E2F8          and dx,byte -0x8
00004822  746D              jz 0x4891
00004824  891424            mov [esp],edx
00004827  8B7914            mov edi,[ecx+0x14]
0000482A  8B4118            mov eax,[ecx+0x18]
0000482D  8B700C            mov esi,[eax+0xc]
00004830  EB3E              jmp short 0x4870
00004832  8B7914            mov edi,[ecx+0x14]
00004835  8B6918            mov ebp,[ecx+0x18]
00004838  8B750C            mov esi,[ebp+0xc]
0000483B  6A06              push byte +0x6
0000483D  6836FA0000        push dword 0xfa36
00004842  57                push edi
00004843  FFD6              call esi
00004845  83C40C            add esp,byte +0xc
00004848  B301              mov bl,0x1
0000484A  84C0              test al,al
0000484C  755E              jnz 0x48ac
0000484E  8B0424            mov eax,[esp]
00004851  6683E0F8          and ax,byte -0x8
00004855  890424            mov [esp],eax
00004858  7450              jz 0x48aa
0000485A  8B750C            mov esi,[ebp+0xc]
0000485D  6A03              push byte +0x3
0000485F  6810FA0000        push dword 0xfa10
00004864  57                push edi
00004865  FFD6              call esi
00004867  83C40C            add esp,byte +0xc
0000486A  B301              mov bl,0x1
0000486C  84C0              test al,al
0000486E  753C              jnz 0x48ac
00004870  6A02              push byte +0x2
00004872  6813FA0000        push dword 0xfa13
00004877  57                push edi
00004878  FFD6              call esi
0000487A  83C40C            add esp,byte +0xc
0000487D  B301              mov bl,0x1
0000487F  84C0              test al,al
00004881  7529              jnz 0x48ac
00004883  8B0C24            mov ecx,[esp]
00004886  8B54241C          mov edx,[esp+0x1c]
0000488A  E869ECFFFF        call 0x34f8
0000488F  EB15              jmp short 0x48a6
00004891  8B4118            mov eax,[ecx+0x18]
00004894  6A07              push byte +0x7
00004896  6815FA0000        push dword 0xfa15
0000489B  FF7114            push dword [ecx+0x14]
0000489E  FF500C            call [eax+0xc]
000048A1  83C40C            add esp,byte +0xc
000048A4  B301              mov bl,0x1
000048A6  84C0              test al,al
000048A8  7502              jnz 0x48ac
000048AA  31DB              xor ebx,ebx
000048AC  89D8              mov eax,ebx
000048AE  83C404            add esp,byte +0x4
000048B1  5E                pop esi
000048B2  5F                pop edi
000048B3  5B                pop ebx
000048B4  5D                pop ebp
000048B5  C3                ret
000048B6  6690              xchg ax,ax
000048B8  53                push ebx
000048B9  56                push esi
000048BA  31C9              xor ecx,ecx
000048BC  8B542414          mov edx,[esp+0x14]
000048C0  8B742410          mov esi,[esp+0x10]
000048C4  8B44240C          mov eax,[esp+0xc]
000048C8  39CA              cmp edx,ecx
000048CA  7409              jz 0x48d5
000048CC  8A1C0E            mov bl,[esi+ecx]
000048CF  881C08            mov [eax+ecx],bl
000048D2  41                inc ecx
000048D3  EBF3              jmp short 0x48c8
000048D5  5E                pop esi
000048D6  5B                pop ebx
000048D7  C3                ret
000048D8  53                push ebx
000048D9  56                push esi
000048DA  8B542414          mov edx,[esp+0x14]
000048DE  8B4C2410          mov ecx,[esp+0x10]
000048E2  8B44240C          mov eax,[esp+0xc]
000048E6  39C1              cmp ecx,eax
000048E8  7313              jnc 0x48fd
000048EA  89D6              mov esi,edx
000048EC  83EE01            sub esi,byte +0x1
000048EF  721B              jc 0x490c
000048F1  8A5C11FF          mov bl,[ecx+edx-0x1]
000048F5  885C10FF          mov [eax+edx-0x1],bl
000048F9  89F2              mov edx,esi
000048FB  EBEF              jmp short 0x48ec
000048FD  31F6              xor esi,esi
000048FF  39F2              cmp edx,esi
00004901  7409              jz 0x490c
00004903  8A1C31            mov bl,[ecx+esi]
00004906  881C30            mov [eax+esi],bl
00004909  46                inc esi
0000490A  EBF3              jmp short 0x48ff
0000490C  5E                pop esi
0000490D  5B                pop ebx
0000490E  C3                ret
0000490F  56                push esi
00004910  8B4C2410          mov ecx,[esp+0x10]
00004914  8B442408          mov eax,[esp+0x8]
00004918  8A54240C          mov dl,[esp+0xc]
0000491C  31F6              xor esi,esi
0000491E  39F1              cmp ecx,esi
00004920  7406              jz 0x4928
00004922  881430            mov [eax+esi],dl
00004925  46                inc esi
00004926  EBF6              jmp short 0x491e
00004928  5E                pop esi
00004929  C3                ret
0000492A  55                push ebp
0000492B  53                push ebx
0000492C  57                push edi
0000492D  56                push esi
0000492E  31C0              xor eax,eax
00004930  8B4C241C          mov ecx,[esp+0x1c]
00004934  8B6C2418          mov ebp,[esp+0x18]
00004938  8B742414          mov esi,[esp+0x14]
0000493C  31FF              xor edi,edi
0000493E  39F9              cmp ecx,edi
00004940  7412              jz 0x4954
00004942  0FB61C3E          movzx ebx,byte [esi+edi]
00004946  0FB6543D00        movzx edx,byte [ebp+edi+0x0]
0000494B  47                inc edi
0000494C  38D3              cmp bl,dl
0000494E  74EE              jz 0x493e
00004950  29D3              sub ebx,edx
00004952  89D8              mov eax,ebx
00004954  5E                pop esi
00004955  5F                pop edi
00004956  5B                pop ebx
00004957  5D                pop ebp
00004958  C3                ret
00004959  0000              add [eax],al
0000495B  0023              add [ebx],ah
0000495D  A7                cmpsd
0000495E  0000              add [eax],al
00004960  189A0000269A      sbb [edx-0x65da0000],bl
00004966  0000              add [eax],al
00004968  35A70000C0        xor eax,0xc00000a7
0000496D  9B0000            wait add [eax],al
00004970  D99B0000E09B      fstp dword [ebx-0x64200000]
00004976  0000              add [eax],al
00004978  F8                clc
00004979  9B0000            wait add [eax],al
0000497C  119C00002A9C00    adc [eax+eax+0x9c2a00],ebx
00004983  0036              add [esi],dh
00004985  9C                pushf
00004986  0000              add [eax],al
00004988  2A9C00002A9C00    sub bl,[eax+eax+0x9c2a00]
0000498F  00A19E00002A      add [ecx+0x2a00009e],ah
00004995  9C                pushf
00004996  0000              add [eax],al
00004998  7D9B              jnl 0x4935
0000499A  0000              add [eax],al
0000499C  4F                dec edi
0000499D  9C                pushf
0000499E  0000              add [eax],al
000049A0  56                push esi
000049A1  9C                pushf
000049A2  0000              add [eax],al
000049A4  2A9C00002A9C00    sub bl,[eax+eax+0x9c2a00]
000049AB  002A              add [edx],ch
000049AD  9C                pushf
000049AE  0000              add [eax],al
000049B0  2A9C00002A9C00    sub bl,[eax+eax+0x9c2a00]
000049B7  002A              add [edx],ch
000049B9  9C                pushf
000049BA  0000              add [eax],al
000049BC  2A9C00002A9C00    sub bl,[eax+eax+0x9c2a00]
000049C3  002A              add [edx],ch
000049C5  9C                pushf
000049C6  0000              add [eax],al
000049C8  2A9C00002A9C00    sub bl,[eax+eax+0x9c2a00]
000049CF  002A              add [edx],ch
000049D1  9C                pushf
000049D2  0000              add [eax],al
000049D4  6E                outsb
000049D5  9C                pushf
000049D6  0000              add [eax],al
000049D8  2A9C00002A9C00    sub bl,[eax+eax+0x9c2a00]
000049DF  00879C0000A2      add [edi-0x5dffff64],al
000049E5  9C                pushf
000049E6  0000              add [eax],al
000049E8  BA9C0000D5        mov edx,0xd500009c
000049ED  9C                pushf
000049EE  0000              add [eax],al
000049F0  F09C              lock pushf
000049F2  0000              add [eax],al
000049F4  0B9D0000239D      or ebx,[ebp-0x62dd0000]
000049FA  0000              add [eax],al
000049FC  3B9D0000539D      cmp ebx,[ebp-0x62ad0000]
00004A02  0000              add [eax],al
00004A04  6B9D00002A9C00    imul ebx,[ebp-0x63d60000],byte +0x0
00004A0B  00839D00009E      add [ebx-0x61ffff63],al
00004A11  9D                popf
00004A12  0000              add [eax],al
00004A14  B99D0000D4        mov ecx,0xd400009d
00004A19  9D                popf
00004A1A  0000              add [eax],al
00004A1C  EF                out dx,eax
00004A1D  9D                popf
00004A1E  0000              add [eax],al
00004A20  07                pop es
00004A21  9E                sahf
00004A22  0000              add [eax],al
00004A24  1F                pop ds
00004A25  9E                sahf
00004A26  0000              add [eax],al
00004A28  269E              es sahf
00004A2A  0000              add [eax],al
00004A2C  3E9E              ds sahf
00004A2E  0000              add [eax],al
00004A30  56                push esi
00004A31  9E                sahf
00004A32  0000              add [eax],al
00004A34  6E                outsb
00004A35  9E                sahf
00004A36  0000              add [eax],al
00004A38  7D9B              jnl 0x49d5
00004A3A  0000              add [eax],al
00004A3C  2A9C00008A9E00    sub bl,[eax+eax+0x9e8a00]
00004A43  004C9D00          add [ebp+ebx*4+0x0],cl
00004A47  00979D000091      add [edi-0x6effff63],dl
00004A4D  9E                sahf
00004A4E  0000              add [eax],al
00004A50  679C              a16 pushf
00004A52  0000              add [eax],al
00004A54  2A9C00002A9C00    sub bl,[eax+eax+0x9c2a00]
00004A5B  002A              add [edx],ch
00004A5D  9C                pushf
00004A5E  0000              add [eax],al
00004A60  2A9C00002A9C00    sub bl,[eax+eax+0x9c2a00]
00004A67  00A89E00002A      add [eax+0x2a00009e],ch
00004A6D  9C                pushf
00004A6E  0000              add [eax],al
00004A70  2A9C0000C09E00    sub bl,[eax+eax+0x9ec000]
00004A77  00D9              add cl,bl
00004A79  9E                sahf
00004A7A  0000              add [eax],al
00004A7C  54                push esp
00004A7D  A5                movsd
00004A7E  0000              add [eax],al
00004A80  E09E              loopne 0x4a20
00004A82  0000              add [eax],al
00004A84  2A9C00002A9C00    sub bl,[eax+eax+0x9c2a00]
00004A8B  00F9              add cl,bh
00004A8D  9E                sahf
00004A8E  0000              add [eax],al
00004A90  2C9F              sub al,0x9f
00004A92  0000              add [eax],al
00004A94  5F                pop edi
00004A95  9F                lahf
00004A96  0000              add [eax],al
00004A98  92                xchg eax,edx
00004A99  9F                lahf
00004A9A  0000              add [eax],al
00004A9C  C59F0000F89F      lds ebx,[edi-0x60080000]
00004AA2  0000              add [eax],al
00004AA4  2BA000005EA0      sub esp,[eax-0x5fa20000]
00004AAA  0000              add [eax],al
00004AAC  91                xchg eax,ecx
00004AAD  A00000C4A0        mov al,[0xa0c40000]
00004AB2  0000              add [eax],al
00004AB4  F7A000002AA1      mul dword [eax-0x5ed60000]
00004ABA  0000              add [eax],al
00004ABC  5D                pop ebp
00004ABD  A1000090A1        mov eax,[0xa1900000]
00004AC2  0000              add [eax],al
00004AC4  C3                ret
00004AC5  A10000F6A1        mov eax,[0xa1f60000]
00004ACA  0000              add [eax],al
00004ACC  29A200005CA2      sub [edx-0x5da40000],esp
00004AD2  0000              add [eax],al
00004AD4  8F                db 0x8f
00004AD5  A20000C2A2        mov [0xa2c20000],al
00004ADA  0000              add [eax],al
00004ADC  F5                cmc
00004ADD  A2000028A3        mov [0xa3280000],al
00004AE2  0000              add [eax],al
00004AE4  5B                pop ebx
00004AE5  A300008EA3        mov [0xa38e0000],eax
00004AEA  0000              add [eax],al
00004AEC  C1A30000F4A300    shl dword [ebx-0x5c0c0000],byte 0x0
00004AF3  007EAD            add [esi-0x53],bh
00004AF6  0000              add [eax],al
00004AF8  83A9000091A900    sub dword [ecx-0x566f0000],byte +0x0
00004AFF  0090AD0000C1      add [eax-0x3effff53],dl
00004B05  B700              mov bh,0x0
00004B07  00CD              add ch,cl
00004B09  B700              mov bh,0x0
00004B0B  00BAB70000C6      add [edx-0x39ffff49],bh
00004B11  B700              mov bh,0x0
00004B13  0059D0            add [ecx-0x30],bl
00004B16  0000              add [eax],al
00004B18  60                pusha
00004B19  D000              rol byte [eax],1
00004B1B  0067D0            add [edi-0x30],ah
00004B1E  0000              add [eax],al
00004B20  6E                outsb
00004B21  D000              rol byte [eax],1
00004B23  0075D0            add [ebp-0x30],dh
00004B26  0000              add [eax],al
00004B28  7CD0              jl 0x4afa
00004B2A  0000              add [eax],al
00004B2C  83D000            adc eax,byte +0x0
00004B2F  008AD00000D5      add [edx-0x2affff30],cl
00004B35  D100              rol dword [eax],1
00004B37  0091D0000098      add [ecx-0x67ffff30],dl
00004B3D  D000              rol byte [eax],1
00004B3F  009FD00000A6      add [edi-0x59ffff30],bl
00004B45  D000              rol byte [eax],1
00004B47  00ADD00000B4      add [ebp-0x4bffff30],ch
00004B4D  D000              rol byte [eax],1
00004B4F  00BBD00000D9      add [ebx-0x26ffff30],bh
00004B55  D100              rol dword [eax],1
00004B57  00DD              add ch,bl
00004B59  D100              rol dword [eax],1
00004B5B  00C2              add dl,al
00004B5D  D000              rol byte [eax],1
00004B5F  00C9              add cl,cl
00004B61  D000              rol byte [eax],1
00004B63  00E1              add cl,ah
00004B65  D100              rol dword [eax],1
00004B67  00D0              add al,dl
00004B69  D000              rol byte [eax],1
00004B6B  00D7              add bh,dl
00004B6D  D000              rol byte [eax],1
00004B6F  00DE              add dh,bl
00004B71  D000              rol byte [eax],1
00004B73  00E5              add ch,ah
00004B75  D000              rol byte [eax],1
00004B77  00EC              add ah,ch
00004B79  D000              rol byte [eax],1
00004B7B  00E5              add ch,ah
00004B7D  D100              rol dword [eax],1
00004B7F  00E9              add cl,ch
00004B81  D100              rol dword [eax],1
00004B83  00F3              add bl,dh
00004B85  D000              rol byte [eax],1
00004B87  00FA              add dl,bh
00004B89  D000              rol byte [eax],1
00004B8B  0001              add [ecx],al
00004B8D  D100              rol dword [eax],1
00004B8F  0008              add [eax],cl
00004B91  D100              rol dword [eax],1
00004B93  00ED              add ch,ch
00004B95  D100              rol dword [eax],1
00004B97  000F              add [edi],cl
00004B99  D100              rol dword [eax],1
00004B9B  00F1              add cl,dh
00004B9D  D100              rol dword [eax],1
00004B9F  00F5              add ch,dh
00004BA1  D100              rol dword [eax],1
00004BA3  0016              add [esi],dl
00004BA5  D100              rol dword [eax],1
00004BA7  001DD1000024      add [dword 0x240000d1],bl
00004BAD  D100              rol dword [eax],1
00004BAF  002B              add [ebx],ch
00004BB1  D100              rol dword [eax],1
00004BB3  0032              add [edx],dh
00004BB5  D100              rol dword [eax],1
00004BB7  0039              add [ecx],bh
00004BB9  D100              rol dword [eax],1
00004BBB  00F9              add cl,bh
00004BBD  D100              rol dword [eax],1
00004BBF  0040D1            add [eax-0x2f],al
00004BC2  0000              add [eax],al
00004BC4  47                inc edi
00004BC5  D100              rol dword [eax],1
00004BC7  004ED1            add [esi-0x2f],cl
00004BCA  0000              add [eax],al
00004BCC  55                push ebp
00004BCD  D100              rol dword [eax],1
00004BCF  00FD              add ch,bh
00004BD1  D100              rol dword [eax],1
00004BD3  005CD100          add [ecx+edx*8+0x0],bl
00004BD7  0063D1            add [ebx-0x2f],ah
00004BDA  0000              add [eax],al
00004BDC  6AD1              push byte -0x2f
00004BDE  0000              add [eax],al
00004BE0  01D2              add edx,edx
00004BE2  0000              add [eax],al
00004BE4  05D2000071        add eax,0x710000d2
00004BE9  D100              rol dword [eax],1
00004BEB  0078D1            add [eax-0x2f],bh
00004BEE  0000              add [eax],al
00004BF0  09D2              or edx,edx
00004BF2  0000              add [eax],al
00004BF4  7FD1              jg 0x4bc7
00004BF6  0000              add [eax],al
00004BF8  0DD2000011        or eax,0x110000d2
00004BFD  D200              rol byte [eax],cl
00004BFF  0015D2000019      add [dword 0x190000d2],dl
00004C05  D200              rol byte [eax],cl
00004C07  001DD2000021      add [dword 0x210000d2],bl
00004C0D  D200              rol byte [eax],cl
00004C0F  0025D2000086      add [dword 0x860000d2],ah
00004C15  D100              rol dword [eax],1
00004C17  0029              add [ecx],ch
00004C19  D200              rol byte [eax],cl
00004C1B  008DD100002D      add [ebp+0x2d0000d1],cl
00004C21  D200              rol byte [eax],cl
00004C23  0031              add [ecx],dh
00004C25  D200              rol byte [eax],cl
00004C27  0094D1000035D2    add [ecx+edx*8-0x2dcb0000],dl
00004C2E  0000              add [eax],al
00004C30  39D2              cmp edx,edx
00004C32  0000              add [eax],al
00004C34  9BD100            wait rol dword [eax],1
00004C37  00A2D100003D      add [edx+0x3d0000d1],ah
00004C3D  D200              rol byte [eax],cl
00004C3F  00A9D1000041      add [ecx+0x410000d1],ch
00004C45  D200              rol byte [eax],cl
00004C47  00B0D10000B7      add [eax-0x48ffff2f],dh
00004C4D  D100              rol dword [eax],1
00004C4F  00BED10000C5      add [esi-0x3affff2f],bh
00004C55  D100              rol dword [eax],1
00004C57  00C9              add cl,cl
00004C59  D100              rol dword [eax],1
00004C5B  0045D2            add [ebp-0x2e],al
00004C5E  0000              add [eax],al
00004C60  4A                dec edx
00004C61  D200              rol byte [eax],cl
00004C63  004AD2            add [edx-0x2e],cl
00004C66  0000              add [eax],al
00004C68  4A                dec edx
00004C69  D200              rol byte [eax],cl
00004C6B  00CD              add ch,cl
00004C6D  D100              rol dword [eax],1
00004C6F  00D1              add cl,dl
00004C71  D100              rol dword [eax],1
00004C73  007DD2            add [ebp-0x2e],bh
00004C76  0000              add [eax],al
00004C78  A8D2              test al,0xd2
00004C7A  0000              add [eax],al
00004C7C  A8D2              test al,0xd2
00004C7E  0000              add [eax],al
00004C80  AD                lodsd
00004C81  D200              rol byte [eax],cl
00004C83  00B1D20000A8      add [ecx-0x57ffff2e],dh
00004C89  D200              rol byte [eax],cl
00004C8B  00A8D20000B5      add [eax-0x4affff2e],ch
00004C91  D200              rol byte [eax],cl
00004C93  00B9D20000BD      add [ecx-0x42ffff2e],bh
00004C99  D200              rol byte [eax],cl
00004C9B  00A8D20000C1      add [eax-0x3effff2e],ch
00004CA1  D200              rol byte [eax],cl
00004CA3  009BD20000A8      add [ebx-0x57ffff2e],bl
00004CA9  D200              rol byte [eax],cl
00004CAB  00E9              add cl,ch
00004CAD  D200              rol byte [eax],cl
00004CAF  00A8D20000ED      add [eax-0x12ffff2e],ch
00004CB5  D200              rol byte [eax],cl
00004CB7  00A8D20000A8      add [eax-0x57ffff2e],ch
00004CBD  D200              rol byte [eax],cl
00004CBF  00F1              add cl,dh
00004CC1  D200              rol byte [eax],cl
00004CC3  00A8D20000A8      add [eax-0x57ffff2e],ch
00004CC9  D200              rol byte [eax],cl
00004CCB  00F5              add ch,dh
00004CCD  D200              rol byte [eax],cl
00004CCF  0088D20000C5      add [eax-0x3affff2e],cl
00004CD5  D200              rol byte [eax],cl
00004CD7  00C9              add cl,cl
00004CD9  D200              rol byte [eax],cl
00004CDB  00A8D20000CD      add [eax-0x32ffff2e],ch
00004CE1  D200              rol byte [eax],cl
00004CE3  00A8D20000D1      add [eax-0x2effff2e],ch
00004CE9  D200              rol byte [eax],cl
00004CEB  00A8D20000D5      add [eax-0x2affff2e],ch
00004CF1  D200              rol byte [eax],cl
00004CF3  00D9              add cl,bl
00004CF5  D200              rol byte [eax],cl
00004CF7  00DD              add ch,bl
00004CF9  D200              rol byte [eax],cl
00004CFB  00E1              add cl,ah
00004CFD  D200              rol byte [eax],cl
00004CFF  00E5              add ch,ah
00004D01  D200              rol byte [eax],cl
00004D03  006361            add [ebx+0x61],ah
00004D06  6C                insb
00004D07  6C                insb
00004D08  6564206052        and [fs:eax+0x52],ah
00004D0D  657375            gs jnc 0x4d85
00004D10  6C                insb
00004D11  743A              jz 0x4d4d
00004D13  3A756E            cmp dh,[ebp+0x6e]
00004D16  7772              ja 0x4d8a
00004D18  61                popa
00004D19  7028              jo 0x4d43
00004D1B  296020            sub [eax+0x20],esp
00004D1E  6F                outsd
00004D1F  6E                outsb
00004D20  20616E            and [ecx+0x6e],ah
00004D23  206045            and [eax+0x45],ah
00004D26  7272              jc 0x4d9a
00004D28  60                pusha
00004D29  207661            and [esi+0x61],dh
00004D2C  6C                insb
00004D2D  7565              jnz 0x4d94
00004D2F  00F3              add bl,dh
00004D31  94                xchg eax,esp
00004D32  0000              add [eax],al
00004D34  0000              add [eax],al
00004D36  0000              add [eax],al
00004D38  0100              add [eax],eax
00004D3A  0000              add [eax],al
00004D3C  10950000696E      adc [ebp+0x6e690000],dl
00004D42  7465              jz 0x4da9
00004D44  726E              jc 0x4db4
00004D46  61                popa
00004D47  6C                insb
00004D48  206572            and [ebp+0x72],ah
00004D4B  726F              jc 0x4dbc
00004D4D  723A              jc 0x4d89
00004D4F  20656E            and [ebp+0x6e],ah
00004D52  7465              jz 0x4db9
00004D54  7265              jc 0x4dbb
00004D56  6420756E          and [fs:ebp+0x6e],dh
00004D5A  7265              jc 0x4dc1
00004D5C  61                popa
00004D5D  636861            arpl [eax+0x61],bp
00004D60  626C6520          bound ebp,[ebp+0x20]
00004D64  636F64            arpl [edi+0x64],bp
00004D67  652F              gs das
00004D69  686F6D652F        push dword 0x2f656d6f
00004D6E  646965676F2F2E63  imul esp,[fs:ebp+0x67],dword 0x632e2f6f
00004D76  61                popa
00004D77  7267              jc 0x4de0
00004D79  6F                outsd
00004D7A  2F                das
00004D7B  7265              jc 0x4de2
00004D7D  6769737472792F73  imul esi,[bp+di+0x74],dword 0x732f7972
00004D85  7263              jc 0x4dea
00004D87  2F                das
00004D88  696E6465782E63    imul ebp,[esi+0x64],dword 0x632e7865
00004D8F  7261              jc 0x4df2
00004D91  7465              jz 0x4df8
00004D93  732E              jnc 0x4dc3
00004D95  696F2D36663137    imul ebp,[edi+0x2d],dword 0x37316636
00004D9C  643232            xor dh,[fs:edx]
00004D9F  626261            bound esp,[edx+0x61]
00004DA2  313530303166      xor [dword 0x66313030],esi
00004DA8  2F                das
00004DA9  7370              jnc 0x4e1b
00004DAB  696E2D302E352E    imul ebp,[esi+0x2d],dword 0x2e352e30
00004DB2  322F              xor ch,[edi]
00004DB4  7372              jnc 0x4e28
00004DB6  632F              arpl [edi],bp
00004DB8  6F                outsd
00004DB9  6E                outsb
00004DBA  63652E            arpl [ebp+0x2e],sp
00004DBD  7273              jc 0x4e32
00004DBF  0068DB            add [eax-0x25],ch
00004DC2  0000              add [eax],al
00004DC4  57                push edi
00004DC5  0000              add [eax],al
00004DC7  007B00            add [ebx+0x0],bh
00004DCA  0000              add [eax],al
00004DCC  1F                pop ds
00004DCD  0000              add [eax],al
00004DCF  004F6E            add [edi+0x6e],cl
00004DD2  636520            arpl [ebp+0x20],sp
00004DD5  6861732070        push dword 0x70207361
00004DDA  61                popa
00004DDB  6E                outsb
00004DDC  69636B65640000    imul esp,[ebx+0x6b],dword 0x6465
00004DE3  0068DB            add [eax-0x25],ch
00004DE6  0000              add [eax],al
00004DE8  57                push edi
00004DE9  0000              add [eax],al
00004DEB  00800000001D      add [eax+0x1d000000],al
00004DF1  0000              add [eax],al
00004DF3  004572            add [ebp+0x72],al
00004DF6  726F              jc 0x4e67
00004DF8  7241              jc 0x4e3b
00004DFA  6C                insb
00004DFB  744C              jz 0x4e49
00004DFD  65667441          gs o16 jz 0x4e42
00004E01  6C                insb
00004E02  7452              jz 0x4e56
00004E04  69676874426163    imul esp,[edi+0x68],dword 0x63614274
00004E0B  6B5469636B        imul edx,[ecx+ebp*2+0x63],byte +0x6b
00004E10  43                inc ebx
00004E11  61                popa
00004E12  7073              jo 0x4e87
00004E14  4C                dec esp
00004E15  6F                outsd
00004E16  636B46            arpl [ebx+0x46],bp
00004E19  756C              jnz 0x4e87
00004E1B  6C                insb
00004E1C  7374              jnc 0x4e92
00004E1E  6F                outsd
00004E1F  7050              jo 0x4e71
00004E21  61                popa
00004E22  676544            gs inc esp
00004E25  6F                outsd
00004E26  776E              ja 0x4e96
00004E28  53                push ebx
00004E29  7061              jo 0x4e8c
00004E2B  636562            arpl [ebp+0x62],sp
00004E2E  61                popa
00004E2F  7256              jc 0x4e87
00004E31  6F                outsd
00004E32  6C                insb
00004E33  756D              jnz 0x4ea2
00004E35  6555              gs push ebp
00004E37  704C              jo 0x4e85
00004E39  6F                outsd
00004E3A  636174            arpl [ecx+0x74],sp
00004E3D  696F6E6C6F6361    imul ebp,[edi+0x6e],dword 0x61636f6c
00004E44  7469              jz 0x4eaf
00004E46  6F                outsd
00004E47  6E                outsb
00004E48  2028              and [eax],ch
00004E4A  627974            bound edi,[ecx+0x74]
00004E4D  657320            gs jnc 0x4e70
00004E50  41                inc ecx
00004E51  7272              jc 0x4ec5
00004E53  6F                outsd
00004E54  7744              ja 0x4e9a
00004E56  6F                outsd
00004E57  776E              ja 0x4ec7
00004E59  41                inc ecx
00004E5A  7272              jc 0x4ece
00004E5C  6F                outsd
00004E5D  774C              ja 0x4eab
00004E5F  65667441          gs o16 jz 0x4ea4
00004E63  7272              jc 0x4ed7
00004E65  6F                outsd
00004E66  7752              ja 0x4eba
00004E68  69676874417272    imul esp,[edi+0x68],dword 0x72724174
00004E6F  6F                outsd
00004E70  7755              ja 0x4ec7
00004E72  7042              jo 0x4eb6
00004E74  61                popa
00004E75  636B53            arpl [ebx+0x53],bp
00004E78  6C                insb
00004E79  61                popa
00004E7A  7368              jnc 0x4ee4
00004E7C  42                inc edx
00004E7D  61                popa
00004E7E  636B73            arpl [ebx+0x73],bp
00004E81  7061              jo 0x4ee4
00004E83  636542            arpl [ebp+0x42],sp
00004E86  7261              jc 0x4ee9
00004E88  636B65            arpl [ebx+0x65],bp
00004E8B  7453              jz 0x4ee0
00004E8D  7175              jno 0x4f04
00004E8F  61                popa
00004E90  7265              jc 0x4ef7
00004E92  4C                dec esp
00004E93  65667442          gs o16 jz 0x4ed9
00004E97  7261              jc 0x4efa
00004E99  636B65            arpl [ebx+0x65],bp
00004E9C  7453              jz 0x4ef1
00004E9E  7175              jno 0x4f15
00004EA0  61                popa
00004EA1  7265              jc 0x4f08
00004EA3  52                push edx
00004EA4  69676874436F6D    imul esp,[edi+0x68],dword 0x6d6f4374
00004EAB  6D                insd
00004EAC  61                popa
00004EAD  43                inc ebx
00004EAE  6F                outsd
00004EAF  6E                outsb
00004EB0  7472              jz 0x4f24
00004EB2  6F                outsd
00004EB3  6C                insb
00004EB4  4C                dec esp
00004EB5  65667443          gs o16 jz 0x4efc
00004EB9  6F                outsd
00004EBA  6E                outsb
00004EBB  7472              jz 0x4f2f
00004EBD  6F                outsd
00004EBE  6C                insb
00004EBF  52                push edx
00004EC0  6967687444656C    imul esp,[edi+0x68],dword 0x6c654474
00004EC7  657465            gs jz 0x4f2f
00004ECA  45                inc ebp
00004ECB  6E                outsb
00004ECC  6445              fs inc ebp
00004ECE  6E                outsb
00004ECF  7465              jz 0x4f36
00004ED1  7245              jc 0x4f18
00004ED3  7363              jnc 0x4f38
00004ED5  61                popa
00004ED6  7065              jo 0x4f3d
00004ED8  45                inc ebp
00004ED9  7175              jno 0x4f50
00004EDB  61                popa
00004EDC  6C                insb
00004EDD  7346              jnc 0x4f25
00004EDF  314632            xor [esi+0x32],eax
00004EE2  46                inc esi
00004EE3  334634            xor eax,[esi+0x34]
00004EE6  46                inc esi
00004EE7  3546364637        xor eax,0x37463646
00004EEC  46                inc esi
00004EED  384639            cmp [esi+0x39],al
00004EF0  46                inc esi
00004EF1  3130              xor [eax],esi
00004EF3  46                inc esi
00004EF4  3131              xor [ecx],esi
00004EF6  46                inc esi
00004EF7  3132              xor [edx],esi
00004EF9  48                dec eax
00004EFA  6F                outsd
00004EFB  6D                insd
00004EFC  654B              gs dec ebx
00004EFE  657931            gs jns 0x4f32
00004F01  4B                dec ebx
00004F02  657932            gs jns 0x4f37
00004F05  4B                dec ebx
00004F06  657933            gs jns 0x4f3c
00004F09  4B                dec ebx
00004F0A  657934            gs jns 0x4f41
00004F0D  4B                dec ebx
00004F0E  657935            gs jns 0x4f46
00004F11  4B                dec ebx
00004F12  657936            gs jns 0x4f4b
00004F15  4B                dec ebx
00004F16  657937            gs jns 0x4f50
00004F19  4B                dec ebx
00004F1A  657938            gs jns 0x4f55
00004F1D  4B                dec ebx
00004F1E  657939            gs jns 0x4f5a
00004F21  4B                dec ebx
00004F22  657930            gs jns 0x4f55
00004F25  4D                dec ebp
00004F26  7574              jnz 0x4f9c
00004F28  6550              gs push eax
00004F2A  6C                insb
00004F2B  61                popa
00004F2C  7953              jns 0x4f81
00004F2E  746F              jz 0x4f9f
00004F30  704E              jo 0x4f80
00004F32  6F                outsd
00004F33  6E                outsb
00004F34  6553              gs push ebx
00004F36  6F                outsd
00004F37  6D                insd
00004F38  6566696C656C696E  imul bp,[gs:ebp+0x6c],word 0x6e69
00004F40  652020            and [gs:eax],ah
00004F43  2020              and [eax],ah
00004F45  7472              jz 0x4fb9
00004F47  7565              jnz 0x4fae
00004F49  203C3D20496E73    and [edi+0x736e4920],bh
00004F50  657274            gs jc 0x4fc7
00004F53  4D                dec ebp
00004F54  656E              gs outsb
00004F56  7573              jnz 0x4fcb
00004F58  4D                dec ebp
00004F59  696E75734E756D    imul ebp,[esi+0x75],dword 0x6d754e73
00004F60  7061              jo 0x4fc3
00004F62  64304E75          xor [fs:esi+0x75],cl
00004F66  6D                insd
00004F67  7061              jo 0x4fca
00004F69  64314E75          xor [fs:esi+0x75],ecx
00004F6D  6D                insd
00004F6E  7061              jo 0x4fd1
00004F70  64324E75          xor cl,[fs:esi+0x75]
00004F74  6D                insd
00004F75  7061              jo 0x4fd8
00004F77  64334E75          xor ecx,[fs:esi+0x75]
00004F7B  6D                insd
00004F7C  7061              jo 0x4fdf
00004F7E  64344E            fs xor al,0x4e
00004F81  756D              jnz 0x4ff0
00004F83  7061              jo 0x4fe6
00004F85  64354E756D70      fs xor eax,0x706d754e
00004F8B  61                popa
00004F8C  64364E            ss dec esi
00004F8F  756D              jnz 0x4ffe
00004F91  7061              jo 0x4ff4
00004F93  6437              fs aaa
00004F95  4E                dec esi
00004F96  756D              jnz 0x5005
00004F98  7061              jo 0x4ffb
00004F9A  64384E75          cmp [fs:esi+0x75],cl
00004F9E  6D                insd
00004F9F  7061              jo 0x5002
00004FA1  64394E75          cmp [fs:esi+0x75],ecx
00004FA5  6D                insd
00004FA6  7061              jo 0x5009
00004FA8  6445              fs inc ebp
00004FAA  6E                outsb
00004FAB  7465              jz 0x5012
00004FAD  724E              jc 0x4ffd
00004FAF  756D              jnz 0x501e
00004FB1  7061              jo 0x5014
00004FB3  644C              fs dec esp
00004FB5  6F                outsd
00004FB6  636B4E            arpl [ebx+0x4e],bp
00004FB9  756D              jnz 0x5028
00004FBB  7061              jo 0x501e
00004FBD  6453              fs push ebx
00004FBF  6C                insb
00004FC0  61                popa
00004FC1  7368              jnc 0x502b
00004FC3  4E                dec esi
00004FC4  756D              jnz 0x5033
00004FC6  7061              jo 0x5029
00004FC8  6453              fs push ebx
00004FCA  7461              jz 0x502d
00004FCC  724E              jc 0x501c
00004FCE  756D              jnz 0x503d
00004FD0  7061              jo 0x5033
00004FD2  644D              fs dec ebp
00004FD4  696E75734E756D    imul ebp,[esi+0x75],dword 0x6d754e73
00004FDB  7061              jo 0x503e
00004FDD  6450              fs push eax
00004FDF  657269            gs jc 0x504b
00004FE2  6F                outsd
00004FE3  644E              fs dec esi
00004FE5  756D              jnz 0x5054
00004FE7  7061              jo 0x504a
00004FE9  6450              fs push eax
00004FEB  6C                insb
00004FEC  7573              jnz 0x5061
00004FEE  50                push eax
00004FEF  61                popa
00004FF0  676555            gs push ebp
00004FF3  7050              jo 0x5045
00004FF5  61                popa
00004FF6  7573              jnz 0x506b
00004FF8  6542              gs inc edx
00004FFA  7265              jc 0x5061
00004FFC  61                popa
00004FFD  6B507269          imul edx,[eax+0x72],byte +0x69
00005001  6E                outsb
00005002  7453              jz 0x5057
00005004  637265            arpl [edx+0x65],si
00005007  656E              gs outsb
00005009  53                push ebx
0000500A  63726F            arpl [edx+0x6f],si
0000500D  6C                insb
0000500E  6C                insb
0000500F  4C                dec esp
00005010  6F                outsd
00005011  636B53            arpl [ebx+0x53],bp
00005014  656D              gs insd
00005016  69436F6C6F6E53    imul eax,[ebx+0x6f],dword 0x536e6f6c
0000501D  686966744C        push dword 0x4c746669
00005022  65667453          gs o16 jz 0x5079
00005026  6869667452        push dword 0x52746669
0000502B  69676874536C61    imul esp,[edi+0x68],dword 0x616c5374
00005032  7368              jnc 0x509c
00005034  54                push esp
00005035  61                popa
00005036  625175            bound edx,[ecx+0x75]
00005039  6F                outsd
0000503A  7465              jz 0x50a1
0000503C  57                push edi
0000503D  696E646F77734C    imul ebp,[esi+0x64],dword 0x4c73776f
00005044  65667457          gs o16 jz 0x509f
00005048  696E646F777352    imul ebp,[esi+0x64],dword 0x5273776f
0000504F  69676874414243    imul esp,[edi+0x68],dword 0x43424174
00005056  44                inc esp
00005057  45                inc ebp
00005058  46                inc esi
00005059  47                inc edi
0000505A  48                dec eax
0000505B  49                dec ecx
0000505C  4A                dec edx
0000505D  4B                dec ebx
0000505E  4C                dec esp
0000505F  4D                dec ebp
00005060  4E                dec esi
00005061  4F                dec edi
00005062  50                push eax
00005063  51                push ecx
00005064  52                push edx
00005065  53                push ebx
00005066  54                push esp
00005067  55                push ebp
00005068  56                push esi
00005069  57                push edi
0000506A  58                pop eax
0000506B  59                pop ecx
0000506C  5A                pop edx
0000506D  48                dec eax
0000506E  61                popa
0000506F  7368              jnc 0x50d9
00005071  54                push esp
00005072  696C646550726576  imul ebp,[esp+0x65],dword 0x76657250
0000507A  54                push esp
0000507B  7261              jc 0x50de
0000507D  636B4E            arpl [ebx+0x4e],bp
00005080  657874            gs js 0x50f7
00005083  54                push esp
00005084  7261              jc 0x50e7
00005086  636B43            arpl [ebx+0x43],bp
00005089  61                popa
0000508A  6C                insb
0000508B  63756C            arpl [ebp+0x6c],si
0000508E  61                popa
0000508F  746F              jz 0x5100
00005091  7256              jc 0x50e9
00005093  6F                outsd
00005094  6C                insb
00005095  756D              jnz 0x5104
00005097  6544              gs inc esp
00005099  6F                outsd
0000509A  776E              ja 0x510a
0000509C  57                push edi
0000509D  57                push edi
0000509E  57                push edi
0000509F  48                dec eax
000050A0  6F                outsd
000050A1  6D                insd
000050A2  6550              gs push eax
000050A4  6F                outsd
000050A5  7765              ja 0x510c
000050A7  724F              jc 0x50f8
000050A9  6E                outsb
000050AA  54                push esp
000050AB  657374            gs jnc 0x5122
000050AE  4F                dec edi
000050AF  6BF294            imul esi,edx,byte -0x6c
000050B2  0000              add [eax],al
000050B4  0800              or [eax],al
000050B6  0000              add [eax],al
000050B8  0400              add al,0x0
000050BA  0000              add [eax],al
000050BC  2BD3              sub edx,ebx
000050BE  0000              add [eax],al
000050C0  F294              repne xchg eax,esp
000050C2  0000              add [eax],al
000050C4  0400              add al,0x0
000050C6  0000              add [eax],al
000050C8  0400              add al,0x0
000050CA  0000              add [eax],al
000050CC  FD                std
000050CD  93                xchg eax,ebx
000050CE  0000              add [eax],al
000050D0  636F6C            arpl [edi+0x6c],bp
000050D3  00F2              add dl,dh
000050D5  94                xchg eax,esp
000050D6  0000              add [eax],al
000050D8  0400              add al,0x0
000050DA  0000              add [eax],al
000050DC  0400              add al,0x0
000050DE  0000              add [eax],al
000050E0  FA                cli
000050E1  D200              rol byte [eax],cl
000050E3  005061            add [eax+0x61],dl
000050E6  6E                outsb
000050E7  6963496E666F70    imul esp,[ebx+0x49],dword 0x706f666e
000050EE  61                popa
000050EF  796C              jns 0x515d
000050F1  6F                outsd
000050F2  61                popa
000050F3  64F294            fs repne xchg eax,esp
000050F6  0000              add [eax],al
000050F8  0800              or [eax],al
000050FA  0000              add [eax],al
000050FC  0400              add al,0x0
000050FE  0000              add [eax],al
00005100  6691              xchg ax,cx
00005102  0000              add [eax],al
00005104  6D                insd
00005105  657373            gs jnc 0x517b
00005108  61                popa
00005109  676500F2          gs add dl,dh
0000510D  94                xchg eax,esp
0000510E  0000              add [eax],al
00005110  0400              add al,0x0
00005112  0000              add [eax],al
00005114  0400              add al,0x0
00005116  0000              add [eax],al
00005118  4E                dec esi
00005119  95                xchg eax,ebp
0000511A  0000              add [eax],al
0000511C  F294              repne xchg eax,esp
0000511E  0000              add [eax],al
00005120  0400              add al,0x0
00005122  0000              add [eax],al
00005124  0400              add al,0x0
00005126  0000              add [eax],al
00005128  9A91000063616E    call 0x6e61:0x63000091
0000512F  5F                pop edi
00005130  756E              jnz 0x51a0
00005132  7769              ja 0x519d
00005134  6E                outsb
00005135  640000            add [fs:eax],al
00005138  F094              lock xchg eax,esp
0000513A  0000              add [eax],al
0000513C  0100              add [eax],eax
0000513E  0000              add [eax],al
00005140  0100              add [eax],eax
00005142  0000              add [eax],al
00005144  A890              test al,0x90
00005146  0000              add [eax],al
00005148  666F              outsw
0000514A  7263              jc 0x51af
0000514C  655F              gs pop edi
0000514E  6E                outsb
0000514F  6F                outsd
00005150  5F                pop edi
00005151  626163            bound esp,[ecx+0x63]
00005154  6B74726163        imul esi,[edx+esi*2+0x61],byte +0x63
00005159  650000            add [gs:eax],al
0000515C  F294              repne xchg eax,esp
0000515E  0000              add [eax],al
00005160  0400              add al,0x0
00005162  0000              add [eax],al
00005164  0400              add al,0x0
00005166  0000              add [eax],al
00005168  B8900000F2        mov eax,0xf2000090
0000516D  94                xchg eax,esp
0000516E  0000              add [eax],al
00005170  0C00              or al,0x0
00005172  0000              add [eax],al
00005174  0400              add al,0x0
00005176  0000              add [eax],al
00005178  1C97              sbb al,0x97
0000517A  0000              add [eax],al
0000517C  27                daa
0000517D  94                xchg eax,esp
0000517E  0000              add [eax],al
00005180  DC940000737263    fcom qword [eax+eax+0x63727300]
00005187  2F                das
00005188  647269            fs jc 0x51f4
0000518B  7665              jna 0x51f2
0000518D  7273              jc 0x5202
0000518F  2F                das
00005190  7363              jnc 0x51f5
00005192  7265              jc 0x51f9
00005194  656E              gs outsb
00005196  2E7273            cs jc 0x520c
00005199  0000              add [eax],al
0000519B  0084DF00001500    add [edi+ebx*8+0x150000],al
000051A2  0000              add [eax],al
000051A4  57                push edi
000051A5  0000              add [eax],al
000051A7  0026              add [esi],ah
000051A9  0000              add [eax],al
000051AB  0084DF00001500    add [edi+ebx*8+0x150000],al
000051B2  0000              add [eax],al
000051B4  94                xchg eax,esp
000051B5  0000              add [eax],al
000051B7  0021              add [ecx],ah
000051B9  0000              add [eax],al
000051BB  0084DF00001500    add [edi+ebx*8+0x150000],al
000051C2  0000              add [eax],al
000051C4  94                xchg eax,esp
000051C5  0000              add [eax],al
000051C7  004100            add [ecx+0x0],al
000051CA  0000              add [eax],al
000051CC  44                inc esp
000051CD  49                dec ecx
000051CE  56                push esi
000051CF  49                dec ecx
000051D0  53                push ebx
000051D1  49                dec ecx
000051D2  4F                dec edi
000051D3  4E                dec esi
000051D4  204259            and [edx+0x59],al
000051D7  205A45            and [edx+0x45],bl
000051DA  52                push edx
000051DB  4F                dec edi
000051DC  204F43            and [edi+0x43],cl
000051DF  55                push ebp
000051E0  52                push edx
000051E1  52                push edx
000051E2  45                inc ebp
000051E3  44                inc esp
000051E4  2121              and [ecx],esp
000051E6  210A              and [edx],ecx
000051E8  CC                int3
000051E9  DF00              fild word [eax]
000051EB  001C00            add [eax+eax],bl
000051EE  0000              add [eax],al
000051F0  7372              jnc 0x5264
000051F2  632F              arpl [edi],bp
000051F4  696E7465727275    imul ebp,[esi+0x74],dword 0x75727265
000051FB  7074              jo 0x5271
000051FD  732F              jnc 0x522e
000051FF  68616E646C        push dword 0x6c646e61
00005204  657273            gs jc 0x527a
00005207  2E7273            cs jc 0x527d
0000520A  0000              add [eax],al
0000520C  F0DF00            lock fild word [eax]
0000520F  001A              add [edx],bl
00005211  0000              add [eax],al
00005213  000D00000005      add [dword 0x5000000],cl
00005219  0000              add [eax],al
0000521B  000A              add [edx],cl
0000521D  0A4272            or al,[edx+0x72]
00005220  6561              gs popa
00005222  6B706F69          imul esi,[eax+0x6f],byte +0x69
00005226  6E                outsb
00005227  7420              jz 0x5249
00005229  6F                outsd
0000522A  637572            arpl [ebp+0x72],si
0000522D  7265              jc 0x5294
0000522F  64206174          and [fs:ecx+0x74],ah
00005233  203A              and [edx],bh
00005235  0A0A              or cl,[edx]
00005237  001CE0            add [eax],bl
0000523A  0000              add [eax],al
0000523C  1800              sbb [eax],al
0000523E  0000              add [eax],al
00005240  34E0              xor al,0xe0
00005242  0000              add [eax],al
00005244  0200              add al,[eax]
00005246  0000              add [eax],al
00005248  36E000            ss loopne 0x524b
0000524B  0001              add [ecx],al
0000524D  0000              add [eax],al
0000524F  000A              add [edx],cl
00005251  43                inc ebx
00005252  6F                outsd
00005253  6E                outsb
00005254  7469              jz 0x52bf
00005256  6E                outsb
00005257  7569              jnz 0x52c2
00005259  6E                outsb
0000525A  672E2E2E0A00      or al,[cs:bx+si]
00005260  50                push eax
00005261  E000              loopne 0x5263
00005263  000F              add [edi],cl
00005265  0000              add [eax],al
00005267  00444F55          add [edi+ecx*2+0x55],al
0000526B  42                inc edx
0000526C  4C                dec esp
0000526D  45                inc ebp
0000526E  204641            and [esi+0x41],al
00005271  55                push ebp
00005272  4C                dec esp
00005273  54                push esp
00005274  204F43            and [edi+0x43],cl
00005277  55                push ebp
00005278  52                push edx
00005279  52                push edx
0000527A  45                inc ebp
0000527B  44                inc esp
0000527C  204154            and [ecx+0x54],al
0000527F  2068E0            and [eax-0x20],ch
00005282  0000              add [eax],al
00005284  1800              sbb [eax],al
00005286  0000              add [eax],al
00005288  34E0              xor al,0xe0
0000528A  0000              add [eax],al
0000528C  0200              add al,[eax]
0000528E  0000              add [eax],al
00005290  36E000            ss loopne 0x5293
00005293  0001              add [ecx],al
00005295  0000              add [eax],al
00005297  00F0              add al,dh
00005299  DF00              fild word [eax]
0000529B  001A              add [edx],bl
0000529D  0000              add [eax],al
0000529F  0029              add [ecx],ch
000052A1  0000              add [eax],al
000052A3  0005000000F4      add [dword 0xf4000000],al
000052A9  E700              out 0x0,eax
000052AB  0000              add [eax],al
000052AD  0000              add [eax],al
000052AF  004745            add [edi+0x45],al
000052B2  4E                dec esi
000052B3  45                inc ebp
000052B4  52                push edx
000052B5  41                inc ecx
000052B6  4C                dec esp
000052B7  205052            and [eax+0x52],dl
000052BA  4F                dec edi
000052BB  54                push esp
000052BC  45                inc ebp
000052BD  43                inc ebx
000052BE  54                push esp
000052BF  49                dec ecx
000052C0  4F                dec edi
000052C1  4E                dec esi
000052C2  204641            and [esi+0x41],al
000052C5  55                push ebp
000052C6  4C                dec esp
000052C7  54                push esp
000052C8  204154            and [ecx+0x54],al
000052CB  20B0E000001C      and [eax+0x1c0000e0],dh
000052D1  0000              add [eax],al
000052D3  0034E0            add [eax],dh
000052D6  0000              add [eax],al
000052D8  0200              add al,[eax]
000052DA  0000              add [eax],al
000052DC  36E000            ss loopne 0x52df
000052DF  0001              add [ecx],al
000052E1  0000              add [eax],al
000052E3  00F0              add al,dh
000052E5  DF00              fild word [eax]
000052E7  001A              add [edx],bl
000052E9  0000              add [eax],al
000052EB  004900            add [ecx+0x0],cl
000052EE  0000              add [eax],al
000052F0  0500000050        add eax,0x50000000
000052F5  41                inc ecx
000052F6  47                inc edi
000052F7  45                inc ebp
000052F8  204641            and [esi+0x41],al
000052FB  55                push ebp
000052FC  4C                dec esp
000052FD  54                push esp
000052FE  204154            and [ecx+0x54],al
00005301  2000              and [eax],al
00005303  00F4              add ah,dh
00005305  E000              loopne 0x5307
00005307  000E              add [esi],cl
00005309  0000              add [eax],al
0000530B  0034E0            add [eax],dh
0000530E  0000              add [eax],al
00005310  0200              add al,[eax]
00005312  0000              add [eax],al
00005314  36E000            ss loopne 0x5317
00005317  0001              add [ecx],al
00005319  0000              add [eax],al
0000531B  00F0              add al,dh
0000531D  DF00              fild word [eax]
0000531F  001A              add [edx],bl
00005321  0000              add [eax],al
00005323  005300            add [ebx+0x0],dl
00005326  0000              add [eax],al
00005328  0500000049        add eax,0x49000000
0000532D  4E                dec esi
0000532E  56                push esi
0000532F  41                inc ecx
00005330  4C                dec esp
00005331  49                dec ecx
00005332  44                inc esp
00005333  204F50            and [edi+0x50],cl
00005336  5F                pop edi
00005337  43                inc ebx
00005338  4F                dec edi
00005339  44                inc esp
0000533A  45                inc ebp
0000533B  204154            and [ecx+0x54],al
0000533E  2000              and [eax],al
00005340  2CE1              sub al,0xe1
00005342  0000              add [eax],al
00005344  1300              adc eax,[eax]
00005346  0000              add [eax],al
00005348  34E0              xor al,0xe0
0000534A  0000              add [eax],al
0000534C  0200              add al,[eax]
0000534E  0000              add [eax],al
00005350  36E000            ss loopne 0x5353
00005353  0001              add [ecx],al
00005355  0000              add [eax],al
00005357  00F0              add al,dh
00005359  DF00              fild word [eax]
0000535B  001A              add [edx],bl
0000535D  0000              add [eax],al
0000535F  005900            add [ecx+0x0],bl
00005362  0000              add [eax],al
00005364  0500000050        add eax,0x50000000
00005369  49                dec ecx
0000536A  43                inc ebx
0000536B  206D61            and [ebp+0x61],ch
0000536E  736B              jnc 0x53db
00005370  7320              jnc 0x5392
00005372  61                popa
00005373  7265              jc 0x53da
00005375  2000              and [eax],al
00005377  0068E1            add [eax-0x1f],ch
0000537A  0000              add [eax],al
0000537C  0E                push cs
0000537D  0000              add [eax],al
0000537F  0036              add [esi],dh
00005381  E000              loopne 0x5383
00005383  0001              add [ecx],al
00005385  0000              add [eax],al
00005387  005375            add [ebx+0x75],dl
0000538A  636365            arpl [ebx+0x65],sp
0000538D  7366              jnc 0x53f5
0000538F  756C              jnz 0x53fd
00005391  6C                insb
00005392  7920              jns 0x53b4
00005394  6D                insd
00005395  61                popa
00005396  7070              jo 0x5408
00005398  6564206669        and [fs:esi+0x69],ah
0000539D  7273              jc 0x5412
0000539F  7420              jz 0x53c1
000053A1  4D                dec ebp
000053A2  69420A00000088    imul eax,[edx+0xa],dword 0x88000000
000053A9  E100              loope 0x53ab
000053AB  001D00000046      add [dword 0x46000000],bl
000053B1  696E6973686564    imul ebp,[esi+0x69],dword 0x64656873
000053B8  206D61            and [ebp+0x61],ch
000053BB  7070              jo 0x542d
000053BD  696E672E2E2E0A    imul ebp,[esi+0x67],dword 0xa2e2e2e
000053C4  B0E1              mov al,0xe1
000053C6  0000              add [eax],al
000053C8  1400              adc al,0x0
000053CA  0000              add [eax],al
000053CC  F4                hlt
000053CD  E700              out 0x0,eax
000053CF  0000              add [eax],al
000053D1  0000              add [eax],al
000053D3  0036              add [esi],dh
000053D5  E000              loopne 0x53d7
000053D7  0001              add [ecx],al
000053D9  0000              add [eax],al
000053DB  0036              add [esi],dh
000053DD  E000              loopne 0x53df
000053DF  0001              add [ecx],al
000053E1  0000              add [eax],al
000053E3  0036              add [esi],dh
000053E5  E000              loopne 0x53e7
000053E7  0001              add [ecx],al
000053E9  0000              add [eax],al
000053EB  005061            add [eax+0x61],dl
000053EE  6765207365        and [gs:bp+di+0x65],dh
000053F3  7475              jz 0x546a
000053F5  7020              jo 0x5417
000053F7  7375              jnc 0x546e
000053F9  636365            arpl [ebx+0x65],sp
000053FC  7366              jnc 0x5464
000053FE  756C              jnz 0x546c
00005400  6C                insb
00005401  210A              and [edx],ecx
00005403  00EC              add ah,ch
00005405  E100              loope 0x5407
00005407  0017              add [edi],dl
00005409  0000              add [eax],al
0000540B  004375            add [ebx+0x75],al
0000540E  7272              jc 0x5482
00005410  656E              gs outsb
00005412  746C              jz 0x5480
00005414  7920              jns 0x5436
00005416  6C                insb
00005417  6F                outsd
00005418  61                popa
00005419  646564207061      and [fs:eax+0x61],dh
0000541F  67655F            gs pop edi
00005422  7461              jz 0x5485
00005424  626C6573          bound ebp,[ebp+0x73]
00005428  3A20              cmp ah,[eax]
0000542A  0000              add [eax],al
0000542C  0CE2              or al,0xe2
0000542E  0000              add [eax],al
00005430  1E                push ds
00005431  0000              add [eax],al
00005433  0036              add [esi],dh
00005435  E000              loopne 0x5437
00005437  0001              add [ecx],al
00005439  0000              add [eax],al
0000543B  004D61            add [ebp+0x61],cl
0000543E  7070              jo 0x54b0
00005440  696E6720746162    imul ebp,[esi+0x67],dword 0x62617420
00005447  6C                insb
00005448  65206174          and [gs:ecx+0x74],ah
0000544C  3A0A              cmp cl,[edx]
0000544E  09646972          or [ecx+ebp*2+0x72],esp
00005452  3A20              cmp ah,[eax]
00005454  2C20              sub al,0x20
00005456  667261            o16 jc 0x54ba
00005459  6D                insd
0000545A  655F              gs pop edi
0000545C  696E6465783A20    imul ebp,[esi+0x64],dword 0x203a7865
00005463  2C20              sub al,0x20
00005465  6F                outsd
00005466  66667365          o16 jnc 0x54cf
0000546A  7420              jz 0x548c
0000546C  3A20              cmp ah,[eax]
0000546E  0000              add [eax],al
00005470  3CE2              cmp al,0xe2
00005472  0000              add [eax],al
00005474  1800              sbb [eax],al
00005476  0000              add [eax],al
00005478  54                push esp
00005479  E200              loop 0x547b
0000547B  000F              add [edi],cl
0000547D  0000              add [eax],al
0000547F  0063E2            add [ebx-0x1e],ah
00005482  0000              add [eax],al
00005484  0B00              or eax,[eax]
00005486  0000              add [eax],al
00005488  36E000            ss loopne 0x548b
0000548B  0001              add [ecx],al
0000548D  0000              add [eax],al
0000548F  007372            add [ebx+0x72],dh
00005492  632F              arpl [edi],bp
00005494  6D                insd
00005495  656D              gs insd
00005497  2F                das
00005498  7061              jo 0x54fb
0000549A  67696E672E727300  imul ebp,[bp+0x67],dword 0x73722e
000054A2  0000              add [eax],al
000054A4  90                nop
000054A5  E200              loop 0x54a7
000054A7  0011              add [ecx],dl
000054A9  0000              add [eax],al
000054AB  005801            add [eax+0x1],bl
000054AE  0000              add [eax],al
000054B0  1900              sbb [eax],eax
000054B2  0000              add [eax],al
000054B4  90                nop
000054B5  E200              loop 0x54b7
000054B7  0011              add [ecx],dl
000054B9  0000              add [eax],al
000054BB  0038              add [eax],bh
000054BD  0100              add [eax],eax
000054BF  0009              add [ecx],cl
000054C1  0000              add [eax],al
000054C3  0009              add [ecx],cl
000054C5  09446965          or [ecx+ebp*2+0x65],eax
000054C9  674F              dec edi
000054CB  53                push ebx
000054CC  0A0A              or cl,[edx]
000054CE  0000              add [eax],al
000054D0  C4                db 0xc4
000054D1  E200              loop 0x54d3
000054D3  000A              add [edx],cl
000054D5  0000              add [eax],al
000054D7  00426F            add [edx+0x6f],al
000054DA  6F                outsd
000054DB  7469              jz 0x5546
000054DD  6E                outsb
000054DE  67207072          and [bx+si+0x72],dh
000054E2  6F                outsd
000054E3  636573            arpl [ebp+0x73],sp
000054E6  7320              jnc 0x5508
000054E8  6861732073        push dword 0x73207361
000054ED  7461              jz 0x5550
000054EF  7274              jc 0x5565
000054F1  65642E0A5765      or dl,[cs:edi+0x65]
000054F7  206172            and [ecx+0x72],ah
000054FA  6520696E          and [gs:ecx+0x6e],ch
000054FE  697469616C697A69  imul esi,[ecx+ebp*2+0x61],dword 0x697a696c
00005506  6E                outsb
00005507  6720736F          and [bp+di+0x6f],dh
0000550B  6D                insd
0000550C  65207374          and [gs:ebx+0x74],dh
00005510  7566              jnz 0x5578
00005512  662E0A486F        o16 or cl,[cs:eax+0x6f]
00005517  6C                insb
00005518  6420746967        and [fs:ecx+ebp*2+0x67],dh
0000551D  68746C792E        push dword 0x2e796c74
00005522  2E2E0A00          or al,[cs:eax]
00005526  0000              add [eax],al
00005528  D8E2              fsub st2
0000552A  0000              add [eax],al
0000552C  4D                dec ebp
0000552D  0000              add [eax],al
0000552F  000A              add [edx],cl
00005531  0A00              or al,[eax]
00005533  0030              add [eax],dh
00005535  E300              jecxz 0x5537
00005537  0002              add [edx],al
00005539  0000              add [eax],al
0000553B  0036              add [esi],dh
0000553D  E000              loopne 0x553f
0000553F  0001              add [ecx],al
00005541  0000              add [eax],al
00005543  000A              add [edx],cl
00005545  0A5061            or dl,[eax+0x61]
00005548  6E                outsb
00005549  69632061743A09    imul esp,[ebx+0x20],dword 0x93a7461
00005550  44                inc esp
00005551  E300              jecxz 0x5553
00005553  000C00            add [eax+eax],cl
00005556  0000              add [eax],al
00005558  0A22              or ah,[edx]
0000555A  220A              and cl,[edx]
0000555C  58                pop eax
0000555D  E300              jecxz 0x555f
0000555F  0002              add [edx],al
00005561  0000              add [eax],al
00005563  005AE3            add [edx-0x1d],bl
00005566  0000              add [eax],al
00005568  0200              add al,[eax]
0000556A  0000              add [eax],al
0000556C  49                dec ecx
0000556D  67646F            fs a16 outsd
00005570  66667365          o16 jnc 0x55d9
00005574  745F              jz 0x55d5
00005576  6C                insb
00005577  6F                outsd
00005578  7700              ja 0x557a
0000557A  0000              add [eax],al
0000557C  F1                int1
0000557D  94                xchg eax,esp
0000557E  0000              add [eax],al
00005580  0200              add al,[eax]
00005582  0000              add [eax],al
00005584  0200              add al,[eax]
00005586  0000              add [eax],al
00005588  6793              xchg eax,ebx
0000558A  0000              add [eax],al
0000558C  6764745F          fs jz 0x55ef
00005590  7365              jnc 0x55f7
00005592  6C                insb
00005593  6563746F72        arpl [gs:edi+ebp*2+0x72],si
00005598  F1                int1
00005599  94                xchg eax,esp
0000559A  0000              add [eax],al
0000559C  0200              add al,[eax]
0000559E  0000              add [eax],al
000055A0  0200              add al,[eax]
000055A2  0000              add [eax],al
000055A4  DE                db 0xde
000055A5  D400              aam 0x0
000055A7  007265            add [edx+0x65],dh
000055AA  7365              jnc 0x5611
000055AC  7276              jc 0x5624
000055AE  65645F            fs pop edi
000055B1  7A65              jpe 0x5618
000055B3  726F              jc 0x5624
000055B5  0000              add [eax],al
000055B7  00F0              add al,dh
000055B9  94                xchg eax,esp
000055BA  0000              add [eax],al
000055BC  0100              add [eax],eax
000055BE  0000              add [eax],al
000055C0  0100              add [eax],eax
000055C2  0000              add [eax],al
000055C4  B992000074        mov ecx,0x74000092
000055C9  7970              jns 0x563b
000055CB  655F              gs pop edi
000055CD  61                popa
000055CE  7474              jz 0x5644
000055D0  7200              jc 0x55d2
000055D2  0000              add [eax],al
000055D4  F094              lock xchg eax,esp
000055D6  0000              add [eax],al
000055D8  0100              add [eax],eax
000055DA  0000              add [eax],al
000055DC  0100              add [eax],eax
000055DE  0000              add [eax],al
000055E0  5D                pop ebp
000055E1  B200              mov dl,0x0
000055E3  006F66            add [edi+0x66],ch
000055E6  667365            o16 jnc 0x564e
000055E9  745F              jz 0x564a
000055EB  6869676800        push dword 0x686769
000055F0  F294              repne xchg eax,esp
000055F2  0000              add [eax],al
000055F4  0400              add al,0x0
000055F6  0000              add [eax],al
000055F8  0400              add al,0x0
000055FA  0000              add [eax],al
000055FC  DC9000005479      fcom qword [eax+0x79540000]
00005602  7065              jo 0x5669
00005604  41                inc ecx
00005605  7474              jz 0x567b
00005607  7269              jc 0x5672
00005609  627574            bound esi,[ebp+0x74]
0000560C  657345            gs jnc 0x5654
0000560F  7863              js 0x5674
00005611  657074            gs jo 0x5688
00005614  696F6E53746163    imul ebp,[edi+0x6e],dword 0x63617453
0000561B  6B467261          imul eax,[esi+0x72],byte +0x61
0000561F  6D                insd
00005620  65696E7374727563  imul ebp,[gs:esi+0x73],dword 0x63757274
00005628  7469              jz 0x5693
0000562A  6F                outsd
0000562B  6E                outsb
0000562C  5F                pop edi
0000562D  7074              jo 0x56a3
0000562F  7263              jc 0x5694
00005631  6F                outsd
00005632  64655F            gs pop edi
00005635  7365              jnc 0x569c
00005637  676D              a16 insd
00005639  656E              gs outsb
0000563B  7463              jz 0x56a0
0000563D  7075              jo 0x56b4
0000563F  5F                pop edi
00005640  666C              o16 insb
00005642  61                popa
00005643  677373            jnc 0x56b9
00005646  7461              jz 0x56a9
00005648  636B5F            arpl [ebx+0x5f],bp
0000564B  7074              jo 0x56c1
0000564D  7273              jc 0x56c2
0000564F  7461              jz 0x56b2
00005651  636B5F            arpl [ebx+0x5f],bp
00005654  7365              jnc 0x56bb
00005656  676D              a16 insd
00005658  656E              gs outsb
0000565A  7400              jz 0x565c
0000565C  07                pop es
0000565D  0000              add [eax],al
0000565F  0008              add [eax],cl
00005661  0000              add [eax],al
00005663  0009              add [ecx],cl
00005665  0000              add [eax],al
00005667  0009              add [ecx],cl
00005669  0000              add [eax],al
0000566B  000A              add [edx],cl
0000566D  0000              add [eax],al
0000566F  0007              add [edi],al
00005671  0000              add [eax],al
00005673  0009              add [ecx],cl
00005675  0000              add [eax],al
00005677  0009              add [ecx],cl
00005679  0000              add [eax],al
0000567B  0008              add [eax],cl
0000567D  0000              add [eax],al
0000567F  0011              add [ecx],dl
00005681  0000              add [eax],al
00005683  0012              add [edx],dl
00005685  0000              add [eax],al
00005687  0008              add [eax],cl
00005689  0000              add [eax],al
0000568B  00050000000B      add [dword 0xb000000],al
00005691  0000              add [eax],al
00005693  000C00            add [eax+eax],cl
00005696  0000              add [eax],al
00005698  06                push es
00005699  0000              add [eax],al
0000569B  0003              add [ebx],al
0000569D  0000              add [eax],al
0000569F  000500000006      add [dword 0x6000000],al
000056A5  0000              add [eax],al
000056A7  0006              add [esi],al
000056A9  0000              add [eax],al
000056AB  0002              add [edx],al
000056AD  0000              add [eax],al
000056AF  0002              add [edx],al
000056B1  0000              add [eax],al
000056B3  0002              add [edx],al
000056B5  0000              add [eax],al
000056B7  0002              add [edx],al
000056B9  0000              add [eax],al
000056BB  0002              add [edx],al
000056BD  0000              add [eax],al
000056BF  0002              add [edx],al
000056C1  0000              add [eax],al
000056C3  0002              add [edx],al
000056C5  0000              add [eax],al
000056C7  0002              add [edx],al
000056C9  0000              add [eax],al
000056CB  0002              add [edx],al
000056CD  0000              add [eax],al
000056CF  0003              add [ebx],al
000056D1  0000              add [eax],al
000056D3  0003              add [ebx],al
000056D5  0000              add [eax],al
000056D7  0003              add [ebx],al
000056D9  0000              add [eax],al
000056DB  0008              add [eax],cl
000056DD  0000              add [eax],al
000056DF  000400            add [eax+eax],al
000056E2  0000              add [eax],al
000056E4  06                push es
000056E5  0000              add [eax],al
000056E7  000400            add [eax+eax],al
000056EA  0000              add [eax],al
000056EC  0400              add al,0x0
000056EE  0000              add [eax],al
000056F0  0400              add al,0x0
000056F2  0000              add [eax],al
000056F4  0400              add al,0x0
000056F6  0000              add [eax],al
000056F8  0400              add al,0x0
000056FA  0000              add [eax],al
000056FC  0400              add al,0x0
000056FE  0000              add [eax],al
00005700  0400              add al,0x0
00005702  0000              add [eax],al
00005704  0400              add al,0x0
00005706  0000              add [eax],al
00005708  0400              add al,0x0
0000570A  0000              add [eax],al
0000570C  0400              add al,0x0
0000570E  0000              add [eax],al
00005710  0500000005        add eax,0x5000000
00005715  0000              add [eax],al
00005717  0007              add [edi],al
00005719  0000              add [eax],al
0000571B  0007              add [edi],al
0000571D  0000              add [eax],al
0000571F  0007              add [edi],al
00005721  0000              add [eax],al
00005723  0007              add [edi],al
00005725  0000              add [eax],al
00005727  0007              add [edi],al
00005729  0000              add [eax],al
0000572B  0007              add [edi],al
0000572D  0000              add [eax],al
0000572F  0007              add [edi],al
00005731  0000              add [eax],al
00005733  0007              add [edi],al
00005735  0000              add [eax],al
00005737  0007              add [edi],al
00005739  0000              add [eax],al
0000573B  0007              add [edi],al
0000573D  0000              add [eax],al
0000573F  000B              add [ebx],cl
00005741  0000              add [eax],al
00005743  000A              add [edx],cl
00005745  0000              add [eax],al
00005747  000B              add [ebx],cl
00005749  0000              add [eax],al
0000574B  000A              add [edx],cl
0000574D  0000              add [eax],al
0000574F  000B              add [ebx],cl
00005751  0000              add [eax],al
00005753  000C00            add [eax+eax],cl
00005756  0000              add [eax],al
00005758  0A00              or al,[eax]
0000575A  0000              add [eax],al
0000575C  0800              or [eax],al
0000575E  0000              add [eax],al
00005760  06                push es
00005761  0000              add [eax],al
00005763  000A              add [edx],cl
00005765  0000              add [eax],al
00005767  000B              add [ebx],cl
00005769  0000              add [eax],al
0000576B  000A              add [edx],cl
0000576D  0000              add [eax],al
0000576F  0009              add [ecx],cl
00005771  0000              add [eax],al
00005773  0009              add [ecx],cl
00005775  0000              add [eax],al
00005777  000A              add [edx],cl
00005779  0000              add [eax],al
0000577B  000500000008      add [dword 0x8000000],al
00005781  0000              add [eax],al
00005783  0003              add [ebx],al
00005785  0000              add [eax],al
00005787  00050000000B      add [dword 0xb000000],al
0000578D  0000              add [eax],al
0000578F  000C00            add [eax+eax],cl
00005792  0000              add [eax],al
00005794  0100              add [eax],eax
00005796  0000              add [eax],al
00005798  0100              add [eax],eax
0000579A  0000              add [eax],al
0000579C  0100              add [eax],eax
0000579E  0000              add [eax],al
000057A0  0100              add [eax],eax
000057A2  0000              add [eax],al
000057A4  0100              add [eax],eax
000057A6  0000              add [eax],al
000057A8  0100              add [eax],eax
000057AA  0000              add [eax],al
000057AC  0100              add [eax],eax
000057AE  0000              add [eax],al
000057B0  0100              add [eax],eax
000057B2  0000              add [eax],al
000057B4  0100              add [eax],eax
000057B6  0000              add [eax],al
000057B8  0100              add [eax],eax
000057BA  0000              add [eax],al
000057BC  0100              add [eax],eax
000057BE  0000              add [eax],al
000057C0  0100              add [eax],eax
000057C2  0000              add [eax],al
000057C4  0100              add [eax],eax
000057C6  0000              add [eax],al
000057C8  0100              add [eax],eax
000057CA  0000              add [eax],al
000057CC  0100              add [eax],eax
000057CE  0000              add [eax],al
000057D0  0100              add [eax],eax
000057D2  0000              add [eax],al
000057D4  0100              add [eax],eax
000057D6  0000              add [eax],al
000057D8  0100              add [eax],eax
000057DA  0000              add [eax],al
000057DC  0100              add [eax],eax
000057DE  0000              add [eax],al
000057E0  0100              add [eax],eax
000057E2  0000              add [eax],al
000057E4  0100              add [eax],eax
000057E6  0000              add [eax],al
000057E8  0100              add [eax],eax
000057EA  0000              add [eax],al
000057EC  0100              add [eax],eax
000057EE  0000              add [eax],al
000057F0  0100              add [eax],eax
000057F2  0000              add [eax],al
000057F4  0100              add [eax],eax
000057F6  0000              add [eax],al
000057F8  0100              add [eax],eax
000057FA  0000              add [eax],al
000057FC  0900              or [eax],eax
000057FE  0000              add [eax],al
00005800  0900              or [eax],eax
00005802  0000              add [eax],al
00005804  0900              or [eax],eax
00005806  0000              add [eax],al
00005808  0400              add al,0x0
0000580A  0000              add [eax],al
0000580C  0A00              or al,[eax]
0000580E  0000              add [eax],al
00005810  0400              add al,0x0
00005812  0000              add [eax],al
00005814  0400              add al,0x0
00005816  0000              add [eax],al
00005818  0A00              or al,[eax]
0000581A  0000              add [eax],al
0000581C  0800              or [eax],al
0000581E  0000              add [eax],al
00005820  07                pop es
00005821  0000              add [eax],al
00005823  000D000000F9      add [dword 0xf9000000],cl
00005829  DB00              fild dword [eax]
0000582B  0000              add [eax],al
0000582D  DC00              fadd qword [eax]
0000582F  0050DC            add [eax-0x24],dl
00005832  0000              add [eax],al
00005834  59                pop ecx
00005835  DC00              fadd qword [eax]
00005837  0062DC            add [edx-0x24],ah
0000583A  0000              add [eax],al
0000583C  6C                insb
0000583D  DC00              fadd qword [eax]
0000583F  0073DC            add [ebx-0x24],dh
00005842  0000              add [eax],al
00005844  7CDC              jl 0x5822
00005846  0000              add [eax],al
00005848  08DC              or ah,bl
0000584A  0000              add [eax],al
0000584C  85DC              test esp,ebx
0000584E  0000              add [eax],al
00005850  96                xchg eax,esi
00005851  DC00              fadd qword [eax]
00005853  0010              add [eax],dl
00005855  DC00              fadd qword [eax]
00005857  00A8DC0000AD      add [eax-0x52ffff24],ch
0000585D  DC00              fadd qword [eax]
0000585F  00B8DC0000C4      add [eax-0x3bffff24],bh
00005865  DC00              fadd qword [eax]
00005867  00CA              add dl,cl
00005869  DC00              fadd qword [eax]
0000586B  00CD              add ch,cl
0000586D  DC00              fadd qword [eax]
0000586F  00D2              add dl,dl
00005871  DC00              fadd qword [eax]
00005873  00D8              add al,bl
00005875  DC00              fadd qword [eax]
00005877  00DE              add dh,bl
00005879  DC00              fadd qword [eax]
0000587B  00E0              add al,ah
0000587D  DC00              fadd qword [eax]
0000587F  00E2              add dl,ah
00005881  DC00              fadd qword [eax]
00005883  00E4              add ah,ah
00005885  DC00              fadd qword [eax]
00005887  00E6              add dh,ah
00005889  DC00              fadd qword [eax]
0000588B  00E8              add al,ch
0000588D  DC00              fadd qword [eax]
0000588F  00EA              add dl,ch
00005891  DC00              fadd qword [eax]
00005893  00EC              add ah,ch
00005895  DC00              fadd qword [eax]
00005897  00EE              add dh,ch
00005899  DC00              fadd qword [eax]
0000589B  00F0              add al,dh
0000589D  DC00              fadd qword [eax]
0000589F  00F3              add bl,dh
000058A1  DC00              fadd qword [eax]
000058A3  00F6              add dh,dh
000058A5  DC00              fadd qword [eax]
000058A7  0018              add [eax],bl
000058A9  DC00              fadd qword [eax]
000058AB  00F9              add cl,bh
000058AD  DC00              fadd qword [eax]
000058AF  004DDD            add [ebp-0x23],cl
000058B2  0000              add [eax],al
000058B4  FD                std
000058B5  DC00              fadd qword [eax]
000058B7  0001              add [ecx],al
000058B9  DD00              fld qword [eax]
000058BB  0005DD000009      add [dword 0x90000dd],al
000058C1  DD00              fld qword [eax]
000058C3  000DDD000011      add [dword 0x110000dd],cl
000058C9  DD00              fld qword [eax]
000058CB  0015DD000019      add [dword 0x190000dd],dl
000058D1  DD00              fld qword [eax]
000058D3  001DDD000021      add [dword 0x210000dd],bl
000058D9  DD00              fld qword [eax]
000058DB  0053DD            add [ebx-0x23],dl
000058DE  0000              add [eax],al
000058E0  58                pop eax
000058E1  DD00              fld qword [eax]
000058E3  005DDD            add [ebp-0x23],bl
000058E6  0000              add [eax],al
000058E8  64DD00            fld qword [fs:eax]
000058EB  006BDD            add [ebx-0x23],ch
000058EE  0000              add [eax],al
000058F0  72DD              jc 0x58cf
000058F2  0000              add [eax],al
000058F4  79DD              jns 0x58d3
000058F6  0000              add [eax],al
000058F8  80DD00            sbb ch,0x0
000058FB  0087DD00008E      add [edi-0x71ffff23],al
00005901  DD00              fld qword [eax]
00005903  0095DD00009C      add [ebp-0x63ffff23],dl
00005909  DD00              fld qword [eax]
0000590B  00A3DD0000AE      add [ebx-0x51ffff23],ah
00005911  DD00              fld qword [eax]
00005913  00B8DD0000C3      add [eax-0x3cffff23],bh
00005919  DD00              fld qword [eax]
0000591B  00CD              add ch,cl
0000591D  DD00              fld qword [eax]
0000591F  00D8              add al,bl
00005921  DD00              fld qword [eax]
00005923  00E4              add ah,ah
00005925  DD00              fld qword [eax]
00005927  0020              add [eax],ah
00005929  DC00              fadd qword [eax]
0000592B  00EE              add dh,ch
0000592D  DD00              fld qword [eax]
0000592F  00F4              add ah,dh
00005931  DD00              fld qword [eax]
00005933  00FE              add dh,bh
00005935  DD00              fld qword [eax]
00005937  0009              add [ecx],cl
00005939  DE00              fiadd word [eax]
0000593B  0013              add [ebx],dl
0000593D  DE00              fiadd word [eax]
0000593F  001CDE            add [esi+ebx*8],bl
00005942  0000              add [eax],al
00005944  25DE00002F        and eax,0x2f0000de
00005949  DE00              fiadd word [eax]
0000594B  0028              add [eax],ch
0000594D  DC00              fadd qword [eax]
0000594F  0034DE            add [esi+ebx*8],dh
00005952  0000              add [eax],al
00005954  37                aaa
00005955  DE00              fiadd word [eax]
00005957  003CDE            add [esi+ebx*8],bh
0000595A  0000              add [eax],al
0000595C  47                inc edi
0000595D  DE00              fiadd word [eax]
0000595F  0053DE            add [ebx-0x22],dl
00005962  0000              add [eax],al
00005964  54                push esp
00005965  DE00              fiadd word [eax]
00005967  0055DE            add [ebp-0x22],dl
0000596A  0000              add [eax],al
0000596C  56                push esi
0000596D  DE00              fiadd word [eax]
0000596F  0057DE            add [edi-0x22],dl
00005972  0000              add [eax],al
00005974  58                pop eax
00005975  DE00              fiadd word [eax]
00005977  0059DE            add [ecx-0x22],bl
0000597A  0000              add [eax],al
0000597C  5A                pop edx
0000597D  DE00              fiadd word [eax]
0000597F  005BDE            add [ebx-0x22],bl
00005982  0000              add [eax],al
00005984  5C                pop esp
00005985  DE00              fiadd word [eax]
00005987  005DDE            add [ebp-0x22],bl
0000598A  0000              add [eax],al
0000598C  5E                pop esi
0000598D  DE00              fiadd word [eax]
0000598F  005FDE            add [edi-0x22],bl
00005992  0000              add [eax],al
00005994  60                pusha
00005995  DE00              fiadd word [eax]
00005997  0061DE            add [ecx-0x22],ah
0000599A  0000              add [eax],al
0000599C  62                db 0x62
0000599D  DE00              fiadd word [eax]
0000599F  0063DE            add [ebx-0x22],ah
000059A2  0000              add [eax],al
000059A4  64DE00            fiadd word [fs:eax]
000059A7  0065DE            add [ebp-0x22],ah
000059AA  0000              add [eax],al
000059AC  66DE00            o16 fiadd word [eax]
000059AF  0067DE            add [edi-0x22],ah
000059B2  0000              add [eax],al
000059B4  68DE000069        push dword 0x690000de
000059B9  DE00              fiadd word [eax]
000059BB  006ADE            add [edx-0x22],ch
000059BE  0000              add [eax],al
000059C0  6BDE00            imul ebx,esi,byte +0x0
000059C3  006CDE00          add [esi+ebx*8+0x0],ch
000059C7  006DDE            add [ebp-0x22],ch
000059CA  0000              add [eax],al
000059CC  76DE              jna 0x59ac
000059CE  0000              add [eax],al
000059D0  7FDE              jg 0x59b0
000059D2  0000              add [eax],al
000059D4  25DD000088        and eax,0x880000dd
000059D9  DE00              fiadd word [eax]
000059DB  0029              add [ecx],ch
000059DD  DD00              fld qword [eax]
000059DF  002DDD000092      add [dword 0x920000dd],ch
000059E5  DE00              fiadd word [eax]
000059E7  0030              add [eax],dh
000059E9  DC00              fadd qword [eax]
000059EB  009CDE0000A3DE    add [esi+ebx*8-0x215d0000],bl
000059F2  0000              add [eax],al
000059F4  292E              sub [esi],ebp
000059F6  2E00F5            cs add ch,dh
000059F9  E700              out 0x0,eax
000059FB  0002              add [edx],al
000059FD  0000              add [eax],al
000059FF  00416E            add [ecx+0x6e],al
00005A02  7930              jns 0x5a34
00005A04  3132              xor [edx],esi
00005A06  33343536373839    xor esi,[esi+0x39383736]
00005A0D  61                popa
00005A0E  626364            bound esp,[ebx+0x64]
00005A11  65667261          gs o16 jc 0x5a76
00005A15  6E                outsb
00005A16  676520656E        and [gs:di+0x6e],ah
00005A1B  6420696E          and [fs:ecx+0x6e],ch
00005A1F  64657820          gs js 0x5a43
00005A23  2920              sub [eax],esp
00005A25  7768              ja 0x5a8f
00005A27  656E              gs outsb
00005A29  20736C            and [ebx+0x6c],dh
00005A2C  6963696E672060    imul esp,[ebx+0x69],dword 0x6020676e
00005A33  3A6361            cmp ah,[ebx+0x61]
00005A36  6C                insb
00005A37  6C                insb
00005A38  656420604F        and [fs:eax+0x4f],ah
00005A3D  7074              jo 0x5ab3
00005A3F  696F6E3A3A756E    imul ebp,[edi+0x6e],dword 0x6e753a3a
00005A46  7772              ja 0x5aba
00005A48  61                popa
00005A49  7028              jo 0x5a73
00005A4B  296020            sub [eax+0x20],esp
00005A4E  6F                outsd
00005A4F  6E                outsb
00005A50  206120            and [ecx+0x20],ah
00005A53  60                pusha
00005A54  4E                dec esi
00005A55  6F                outsd
00005A56  6E                outsb
00005A57  6560              gs pusha
00005A59  207661            and [esi+0x61],dh
00005A5C  6C                insb
00005A5D  7565              jnz 0x5ac4
00005A5F  00F4              add ah,dh
00005A61  E700              out 0x0,eax
00005A63  0000              add [eax],al
00005A65  0000              add [eax],al
00005A67  0033              add [ebx],dh
00005A69  E800000100        call 0x15a6e
00005A6E  0000              add [eax],al
00005A70  33E8              xor ebp,eax
00005A72  0000              add [eax],al
00005A74  0100              add [eax],eax
00005A76  0000              add [eax],al
00005A78  F394              rep xchg eax,esp
00005A7A  0000              add [eax],al
00005A7C  0000              add [eax],al
00005A7E  0000              add [eax],al
00005A80  0100              add [eax],eax
00005A82  0000              add [eax],al
00005A84  24B3              and al,0xb3
00005A86  0000              add [eax],al
00005A88  696E646578206F    imul ebp,[esi+0x64],dword 0x6f207865
00005A8F  7574              jnz 0x5b05
00005A91  206F66            and [edi+0x66],ch
00005A94  20626F            and [edx+0x6f],ah
00005A97  756E              jnz 0x5b07
00005A99  64733A            fs jnc 0x5ad6
00005A9C  20746865          and [eax+ebp*2+0x65],dh
00005AA0  206C656E          and [ebp+0x6e],ch
00005AA4  206973            and [ecx+0x73],ch
00005AA7  2020              and [eax],ah
00005AA9  627574            bound esi,[ebp+0x74]
00005AAC  20746865          and [eax+ebp*2+0x65],dh
00005AB0  20696E            and [ecx+0x6e],ch
00005AB3  64657820          gs js 0x5ad7
00005AB7  697320000088E8    imul esi,[ebx+0x20],dword 0xe8880000
00005ABE  0000              add [eax],al
00005AC0  2000              and [eax],al
00005AC2  0000              add [eax],al
00005AC4  A8E8              test al,0xe8
00005AC6  0000              add [eax],al
00005AC8  1200              adc al,[eax]
00005ACA  0000              add [eax],al
00005ACC  3A20              cmp ah,[eax]
00005ACE  0000              add [eax],al
00005AD0  F4                hlt
00005AD1  E700              out 0x0,eax
00005AD3  0000              add [eax],al
00005AD5  0000              add [eax],al
00005AD7  00CC              add ah,cl
00005AD9  E800000200        call 0x25ade
00005ADE  0000              add [eax],al
00005AE0  F294              repne xchg eax,esp
00005AE2  0000              add [eax],al
00005AE4  0C00              or al,0x0
00005AE6  0000              add [eax],al
00005AE8  0400              add al,0x0
00005AEA  0000              add [eax],al
00005AEC  72BF              jc 0x5aad
00005AEE  0000              add [eax],al
00005AF0  31C6              xor esi,eax
00005AF2  0000              add [eax],al
00005AF4  71C6              jno 0x5abc
00005AF6  0000              add [eax],al
00005AF8  207B20            and [ebx+0x20],bh
00005AFB  2C20              sub al,0x20
00005AFD  207B0A            and [ebx+0xa],bh
00005B00  2C0A              sub al,0xa
00005B02  207B20            and [ebx+0x20],bh
00005B05  2E2E207D7D        and [cs:ebp+0x7d],bh
00005B0A  207D28            and [ebp+0x28],bh
00005B0D  280A              sub [edx],cl
00005B0F  2F                das
00005B10  686F6D652F        push dword 0x2f656d6f
00005B15  646965676F2F2E72  imul esp,[fs:ebp+0x67],dword 0x722e2f6f
00005B1D  7573              jnz 0x5b92
00005B1F  7475              jz 0x5b96
00005B21  702F              jo 0x5b52
00005B23  746F              jz 0x5b94
00005B25  6F                outsd
00005B26  6C                insb
00005B27  636861            arpl [eax+0x61],bp
00005B2A  696E732F6E6967    imul ebp,[esi+0x73],dword 0x67696e2f
00005B31  68746C792D        push dword 0x2d796c74
00005B36  7838              js 0x5b70
00005B38  365F              ss pop edi
00005B3A  36342D            ss xor al,0x2d
00005B3D  756E              jnz 0x5bad
00005B3F  6B6E6F77          imul ebp,[esi+0x6f],byte +0x77
00005B43  6E                outsb
00005B44  2D6C696E75        sub eax,0x756e696c
00005B49  782D              js 0x5b78
00005B4B  676E              a16 outsb
00005B4D  752F              jnz 0x5b7e
00005B4F  6C                insb
00005B50  69622F72757374    imul esp,[edx+0x2f],dword 0x74737572
00005B57  6C                insb
00005B58  69622F7372632F    imul esp,[edx+0x2f],dword 0x2f637273
00005B5F  7275              jc 0x5bd6
00005B61  7374              jnc 0x5bd7
00005B63  2F                das
00005B64  6C                insb
00005B65  6962726172792F    imul esp,[edx+0x72],dword 0x2f797261
00005B6C  636F72            arpl [edi+0x72],bp
00005B6F  652F              gs das
00005B71  7372              jnc 0x5be5
00005B73  632F              arpl [edi],bp
00005B75  666D              insw
00005B77  742F              jz 0x5ba8
00005B79  6E                outsb
00005B7A  756D              jnz 0x5be9
00005B7C  2E7273            cs jc 0x5bf2
00005B7F  000F              add [edi],cl
00005B81  E900007000        jmp 0x705b86
00005B86  0000              add [eax],al
00005B88  690000001700      imul eax,[eax],dword 0x170000
00005B8E  0000              add [eax],al
00005B90  306230            xor [edx+0x30],ah
00005B93  3030              xor [eax],dh
00005B95  3130              xor [eax],esi
00005B97  3230              xor dh,[eax]
00005B99  3330              xor esi,[eax]
00005B9B  3430              xor al,0x30
00005B9D  3530363037        xor eax,0x37303630
00005BA2  3038              xor [eax],bh
00005BA4  3039              xor [ecx],bh
00005BA6  3130              xor [eax],esi
00005BA8  3131              xor [ecx],esi
00005BAA  3132              xor [edx],esi
00005BAC  3133              xor [ebx],esi
00005BAE  313431            xor [ecx+esi],esi
00005BB1  3531363137        xor eax,0x37313631
00005BB6  3138              xor [eax],edi
00005BB8  3139              xor [ecx],edi
00005BBA  3230              xor dh,[eax]
00005BBC  3231              xor dh,[ecx]
00005BBE  3232              xor dh,[edx]
00005BC0  3233              xor dh,[ebx]
00005BC2  323432            xor dh,[edx+esi]
00005BC5  3532363237        xor eax,0x37323632
00005BCA  3238              xor bh,[eax]
00005BCC  3239              xor bh,[ecx]
00005BCE  3330              xor esi,[eax]
00005BD0  3331              xor esi,[ecx]
00005BD2  3332              xor esi,[edx]
00005BD4  3333              xor esi,[ebx]
00005BD6  333433            xor esi,[ebx+esi]
00005BD9  3533363337        xor eax,0x37333633
00005BDE  3338              xor edi,[eax]
00005BE0  3339              xor edi,[ecx]
00005BE2  3430              xor al,0x30
00005BE4  3431              xor al,0x31
00005BE6  3432              xor al,0x32
00005BE8  3433              xor al,0x33
00005BEA  3434              xor al,0x34
00005BEC  3435              xor al,0x35
00005BEE  3436              xor al,0x36
00005BF0  3437              xor al,0x37
00005BF2  3438              xor al,0x38
00005BF4  3439              xor al,0x39
00005BF6  3530353135        xor eax,0x35313530
00005BFB  323533353435      xor dh,[dword 0x35343533]
00005C01  3535363537        xor eax,0x37353635
00005C06  3538353936        xor eax,0x36393538
00005C0B  3036              xor [esi],dh
00005C0D  3136              xor [esi],esi
00005C0F  3236              xor dh,[esi]
00005C11  3336              xor esi,[esi]
00005C13  3436              xor al,0x36
00005C15  3536363637        xor eax,0x37363636
00005C1A  363836            cmp [ss:esi],dh
00005C1D  3937              cmp [edi],esi
00005C1F  3037              xor [edi],dh
00005C21  3137              xor [edi],esi
00005C23  3237              xor dh,[edi]
00005C25  3337              xor esi,[edi]
00005C27  3437              xor al,0x37
00005C29  3537363737        xor eax,0x37373637
00005C2E  37                aaa
00005C2F  3837              cmp [edi],dh
00005C31  3938              cmp [eax],edi
00005C33  3038              xor [eax],bh
00005C35  3138              xor [eax],edi
00005C37  3238              xor bh,[eax]
00005C39  3338              xor edi,[eax]
00005C3B  3438              xor al,0x38
00005C3D  3538363837        xor eax,0x37383638
00005C42  3838              cmp [eax],bh
00005C44  3839              cmp [ecx],bh
00005C46  3930              cmp [eax],esi
00005C48  3931              cmp [ecx],esi
00005C4A  3932              cmp [edx],esi
00005C4C  3933              cmp [ebx],esi
00005C4E  393439            cmp [ecx+edi],esi
00005C51  3539363937        xor eax,0x37393639
00005C56  3938              cmp [eax],edi
00005C58  3939              cmp [ecx],edi
00005C5A  2F                das
00005C5B  686F6D652F        push dword 0x2f656d6f
00005C60  646965676F2F2E72  imul esp,[fs:ebp+0x67],dword 0x722e2f6f
00005C68  7573              jnz 0x5cdd
00005C6A  7475              jz 0x5ce1
00005C6C  702F              jo 0x5c9d
00005C6E  746F              jz 0x5cdf
00005C70  6F                outsd
00005C71  6C                insb
00005C72  636861            arpl [eax+0x61],bp
00005C75  696E732F6E6967    imul ebp,[esi+0x73],dword 0x67696e2f
00005C7C  68746C792D        push dword 0x2d796c74
00005C81  7838              js 0x5cbb
00005C83  365F              ss pop edi
00005C85  36342D            ss xor al,0x2d
00005C88  756E              jnz 0x5cf8
00005C8A  6B6E6F77          imul ebp,[esi+0x6f],byte +0x77
00005C8E  6E                outsb
00005C8F  2D6C696E75        sub eax,0x756e696c
00005C94  782D              js 0x5cc3
00005C96  676E              a16 outsb
00005C98  752F              jnz 0x5cc9
00005C9A  6C                insb
00005C9B  69622F72757374    imul esp,[edx+0x2f],dword 0x74737572
00005CA2  6C                insb
00005CA3  69622F7372632F    imul esp,[edx+0x2f],dword 0x2f637273
00005CAA  7275              jc 0x5d21
00005CAC  7374              jnc 0x5d22
00005CAE  2F                das
00005CAF  6C                insb
00005CB0  6962726172792F    imul esp,[edx+0x72],dword 0x2f797261
00005CB7  636F72            arpl [edi+0x72],bp
00005CBA  652F              gs das
00005CBC  7372              jnc 0x5d30
00005CBE  632F              arpl [edi],bp
00005CC0  666D              insw
00005CC2  742F              jz 0x5cf3
00005CC4  6D                insd
00005CC5  6F                outsd
00005CC6  642E7273          cs jc 0x5d3d
00005CCA  6661              popaw
00005CCC  6C                insb
00005CCD  7365              jnc 0x5d34
00005CCF  005AEA            add [edx-0x16],bl
00005CD2  0000              add [eax],al
00005CD4  7000              jo 0x5cd6
00005CD6  0000              add [eax],al
00005CD8  350900001A        xor eax,0x1a000009
00005CDD  0000              add [eax],al
00005CDF  005AEA            add [edx-0x16],bl
00005CE2  0000              add [eax],al
00005CE4  7000              jo 0x5ce6
00005CE6  0000              add [eax],al
00005CE8  2E0900            or [cs:eax],eax
00005CEB  0022              add [edx],ah
00005CED  0000              add [eax],al
00005CEF  007261            add [edx+0x61],dh
00005CF2  6E                outsb
00005CF3  6765207374        and [gs:bp+di+0x74],dh
00005CF8  61                popa
00005CF9  7274              jc 0x5d6f
00005CFB  20696E            and [ecx+0x6e],ch
00005CFE  64657820          gs js 0x5d22
00005D02  206F75            and [edi+0x75],ch
00005D05  7420              jz 0x5d27
00005D07  6F                outsd
00005D08  66207261          o16 and [edx+0x61],dh
00005D0C  6E                outsb
00005D0D  676520666F        and [gs:bp+0x6f],ah
00005D12  7220              jc 0x5d34
00005D14  736C              jnc 0x5d82
00005D16  696365206F6620    imul esp,[ebx+0x65],dword 0x20666f20
00005D1D  6C                insb
00005D1E  656E              gs outsb
00005D20  677468            jz 0x5d8b
00005D23  20F0              and al,dh
00005D25  EA000012000000    jmp 0x0:0x120000
00005D2C  02EB              add ch,bl
00005D2E  0000              add [eax],al
00005D30  2200              and al,[eax]
00005D32  0000              add [eax],al
00005D34  13E8              adc ebp,eax
00005D36  0000              add [eax],al
00005D38  1000              adc [eax],al
00005D3A  0000              add [eax],al
00005D3C  02EB              add ch,bl
00005D3E  0000              add [eax],al
00005D40  2200              and al,[eax]
00005D42  0000              add [eax],al
00005D44  736C              jnc 0x5db2
00005D46  69636520696E64    imul esp,[ebx+0x65],dword 0x646e6920
00005D4D  657820            gs js 0x5d70
00005D50  7374              jnc 0x5dc6
00005D52  61                popa
00005D53  7274              jc 0x5dc9
00005D55  7320              jnc 0x5d77
00005D57  61                popa
00005D58  7420              jz 0x5d7a
00005D5A  206275            and [edx+0x75],ah
00005D5D  7420              jz 0x5d7f
00005D5F  656E              gs outsb
00005D61  647320            fs jnc 0x5d84
00005D64  61                popa
00005D65  7420              jz 0x5d87
00005D67  0044EB00          add [ebx+ebp*8+0x0],al
00005D6B  0016              add [esi],dl
00005D6D  0000              add [eax],al
00005D6F  005AEB            add [edx-0x15],bl
00005D72  0000              add [eax],al
00005D74  0D0000002F        or eax,0x2f000000
00005D79  686F6D652F        push dword 0x2f656d6f
00005D7E  646965676F2F2E72  imul esp,[fs:ebp+0x67],dword 0x722e2f6f
00005D86  7573              jnz 0x5dfb
00005D88  7475              jz 0x5dff
00005D8A  702F              jo 0x5dbb
00005D8C  746F              jz 0x5dfd
00005D8E  6F                outsd
00005D8F  6C                insb
00005D90  636861            arpl [eax+0x61],bp
00005D93  696E732F6E6967    imul ebp,[esi+0x73],dword 0x67696e2f
00005D9A  68746C792D        push dword 0x2d796c74
00005D9F  7838              js 0x5dd9
00005DA1  365F              ss pop edi
00005DA3  36342D            ss xor al,0x2d
00005DA6  756E              jnz 0x5e16
00005DA8  6B6E6F77          imul ebp,[esi+0x6f],byte +0x77
00005DAC  6E                outsb
00005DAD  2D6C696E75        sub eax,0x756e696c
00005DB2  782D              js 0x5de1
00005DB4  676E              a16 outsb
00005DB6  752F              jnz 0x5de7
00005DB8  6C                insb
00005DB9  69622F72757374    imul esp,[edx+0x2f],dword 0x74737572
00005DC0  6C                insb
00005DC1  69622F7372632F    imul esp,[edx+0x2f],dword 0x2f637273
00005DC8  7275              jc 0x5e3f
00005DCA  7374              jnc 0x5e40
00005DCC  2F                das
00005DCD  6C                insb
00005DCE  6962726172792F    imul esp,[edx+0x72],dword 0x2f797261
00005DD5  636F72            arpl [edi+0x72],bp
00005DD8  652F              gs das
00005DDA  7372              jnc 0x5e4e
00005DDC  632F              arpl [edi],bp
00005DDE  736C              jnc 0x5e4c
00005DE0  6963652F697465    imul esp,[ebx+0x65],dword 0x6574692f
00005DE7  722E              jc 0x5e17
00005DE9  7273              jc 0x5e5e
00005DEB  0078EB            add [eax-0x15],bh
00005DEE  0000              add [eax],al
00005DF0  7300              jnc 0x5df2
00005DF2  0000              add [eax],al
00005DF4  CC                int3
00005DF5  0500002500        add eax,0x250000
00005DFA  0000              add [eax],al
00005DFC  61                popa
00005DFD  7373              jnc 0x5e72
00005DFF  657274            gs jc 0x5e76
00005E02  696F6E20666169    imul ebp,[edi+0x6e],dword 0x69616620
00005E09  6C                insb
00005E0A  65643A20          cmp ah,[fs:eax]
00005E0E  6D                insd
00005E0F  6964203C3D207365  imul esp,[eax+0x3c],dword 0x6573203d
00005E17  6C                insb
00005E18  662E6C            cs o16 insb
00005E1B  656E              gs outsb
00005E1D  2829              sub [ecx],ch
00005E1F  736F              jnc 0x5e90
00005E21  7572              jnz 0x5e95
00005E23  636520            arpl [ebp+0x20],sp
00005E26  736C              jnc 0x5e94
00005E28  696365206C656E    imul esp,[ebx+0x65],dword 0x6e656c20
00005E2F  677468            jz 0x5e9a
00005E32  2028              and [eax],ch
00005E34  2920              sub [eax],esp
00005E36  646F              fs outsd
00005E38  657320            gs jnc 0x5e5b
00005E3B  6E                outsb
00005E3C  6F                outsd
00005E3D  7420              jz 0x5e5f
00005E3F  6D                insd
00005E40  61                popa
00005E41  7463              jz 0x5ea6
00005E43  6820646573        push dword 0x73656420
00005E48  7469              jz 0x5eb3
00005E4A  6E                outsb
00005E4B  61                popa
00005E4C  7469              jz 0x5eb7
00005E4E  6F                outsd
00005E4F  6E                outsb
00005E50  20736C            and [ebx+0x6c],dh
00005E53  696365206C656E    imul esp,[ebx+0x65],dword 0x6e656c20
00005E5A  677468            jz 0x5ec5
00005E5D  2028              and [eax],ch
00005E5F  001F              add [edi],bl
00005E61  EC                in al,dx
00005E62  0000              add [eax],al
00005E64  1500000034        adc eax,0x34000000
00005E69  EC                in al,dx
00005E6A  0000              add [eax],al
00005E6C  2B00              sub eax,[eax]
00005E6E  0000              add [eax],al
00005E70  F4                hlt
00005E71  E700              out 0x0,eax
00005E73  0001              add [ecx],al
00005E75  0000              add [eax],al
00005E77  002F              add [edi],ch
00005E79  686F6D652F        push dword 0x2f656d6f
00005E7E  646965676F2F2E72  imul esp,[fs:ebp+0x67],dword 0x722e2f6f
00005E86  7573              jnz 0x5efb
00005E88  7475              jz 0x5eff
00005E8A  702F              jo 0x5ebb
00005E8C  746F              jz 0x5efd
00005E8E  6F                outsd
00005E8F  6C                insb
00005E90  636861            arpl [eax+0x61],bp
00005E93  696E732F6E6967    imul ebp,[esi+0x73],dword 0x67696e2f
00005E9A  68746C792D        push dword 0x2d796c74
00005E9F  7838              js 0x5ed9
00005EA1  365F              ss pop edi
00005EA3  36342D            ss xor al,0x2d
00005EA6  756E              jnz 0x5f16
00005EA8  6B6E6F77          imul ebp,[esi+0x6f],byte +0x77
00005EAC  6E                outsb
00005EAD  2D6C696E75        sub eax,0x756e696c
00005EB2  782D              js 0x5ee1
00005EB4  676E              a16 outsb
00005EB6  752F              jnz 0x5ee7
00005EB8  6C                insb
00005EB9  69622F72757374    imul esp,[edx+0x2f],dword 0x74737572
00005EC0  6C                insb
00005EC1  69622F7372632F    imul esp,[edx+0x2f],dword 0x2f637273
00005EC8  7275              jc 0x5f3f
00005ECA  7374              jnc 0x5f40
00005ECC  2F                das
00005ECD  6C                insb
00005ECE  6962726172792F    imul esp,[edx+0x72],dword 0x2f797261
00005ED5  636F72            arpl [edi+0x72],bp
00005ED8  652F              gs das
00005EDA  7372              jnc 0x5f4e
00005EDC  632F              arpl [edi],bp
00005EDE  7374              jnc 0x5f54
00005EE0  722F              jc 0x5f11
00005EE2  636F75            arpl [edi+0x75],bp
00005EE5  6E                outsb
00005EE6  742E              jz 0x5f16
00005EE8  7273              jc 0x5f5d
00005EEA  0000              add [eax],al
00005EEC  78EC              js 0x5eda
00005EEE  0000              add [eax],al
00005EF0  7200              jc 0x5ef2
00005EF2  0000              add [eax],al
00005EF4  4F                dec edi
00005EF5  0000              add [eax],al
00005EF7  0032              add [edx],dh
00005EF9  0000              add [eax],al
00005EFB  002F              add [edi],ch
00005EFD  686F6D652F        push dword 0x2f656d6f
00005F02  646965676F2F2E72  imul esp,[fs:ebp+0x67],dword 0x722e2f6f
00005F0A  7573              jnz 0x5f7f
00005F0C  7475              jz 0x5f83
00005F0E  702F              jo 0x5f3f
00005F10  746F              jz 0x5f81
00005F12  6F                outsd
00005F13  6C                insb
00005F14  636861            arpl [eax+0x61],bp
00005F17  696E732F6E6967    imul ebp,[esi+0x73],dword 0x67696e2f
00005F1E  68746C792D        push dword 0x2d796c74
00005F23  7838              js 0x5f5d
00005F25  365F              ss pop edi
00005F27  36342D            ss xor al,0x2d
00005F2A  756E              jnz 0x5f9a
00005F2C  6B6E6F77          imul ebp,[esi+0x6f],byte +0x77
00005F30  6E                outsb
00005F31  2D6C696E75        sub eax,0x756e696c
00005F36  782D              js 0x5f65
00005F38  676E              a16 outsb
00005F3A  752F              jnz 0x5f6b
00005F3C  6C                insb
00005F3D  69622F72757374    imul esp,[edx+0x2f],dword 0x74737572
00005F44  6C                insb
00005F45  69622F7372632F    imul esp,[edx+0x2f],dword 0x2f637273
00005F4C  7275              jc 0x5fc3
00005F4E  7374              jnc 0x5fc4
00005F50  2F                das
00005F51  6C                insb
00005F52  6962726172792F    imul esp,[edx+0x72],dword 0x2f797261
00005F59  636F72            arpl [edi+0x72],bp
00005F5C  652F              gs das
00005F5E  7372              jnc 0x5fd2
00005F60  632F              arpl [edi],bp
00005F62  7374              jnc 0x5fd8
00005F64  722F              jc 0x5f95
00005F66  7061              jo 0x5fc9
00005F68  7474              jz 0x5fde
00005F6A  65726E            gs jc 0x5fdb
00005F6D  2E7273            cs jc 0x5fe3
00005F70  FC                cld
00005F71  EC                in al,dx
00005F72  0000              add [eax],al
00005F74  7400              jz 0x5f76
00005F76  0000              add [eax],al
00005F78  B801000037        mov eax,0x37000001
00005F7D  0000              add [eax],al
00005F7F  005B2E            add [ebx+0x2e],bl
00005F82  2E2E5D            cs pop ebp
00005F85  626567            bound esp,[ebp+0x67]
00005F88  696E203C3D2065    imul ebp,[esi+0x20],dword 0x65203d3c
00005F8F  6E                outsb
00005F90  642028            and [fs:eax],ch
00005F93  60                pusha
00005F94  85ED              test ebp,ebp
00005F96  0000              add [eax],al
00005F98  0E                push cs
00005F99  0000              add [eax],al
00005F9B  0049DD            add [ecx-0x23],cl
00005F9E  0000              add [eax],al
00005FA0  0400              add al,0x0
00005FA2  0000              add [eax],al
00005FA4  23E8              and ebp,eax
00005FA6  0000              add [eax],al
00005FA8  1000              adc [eax],al
00005FAA  0000              add [eax],al
00005FAC  93                xchg eax,ebx
00005FAD  ED                in eax,dx
00005FAE  0000              add [eax],al
00005FB0  0100              add [eax],eax
00005FB2  0000              add [eax],al
00005FB4  627974            bound edi,[ecx+0x74]
00005FB7  6520696E          and [gs:ecx+0x6e],ch
00005FBB  64657820          gs js 0x5fdf
00005FBF  206973            and [ecx+0x73],ch
00005FC2  206E6F            and [esi+0x6f],ch
00005FC5  7420              jz 0x5fe7
00005FC7  61                popa
00005FC8  206368            and [ebx+0x68],ah
00005FCB  61                popa
00005FCC  7220              jc 0x5fee
00005FCE  626F75            bound ebp,[edi+0x75]
00005FD1  6E                outsb
00005FD2  6461              fs popa
00005FD4  7279              jc 0x604f
00005FD6  3B20              cmp esp,[eax]
00005FD8  697420697320696E  imul esi,[eax+0x69],dword 0x6e692073
00005FE0  7369              jnc 0x604b
00005FE2  64652029          and [gs:ecx],ch
00005FE6  206F66            and [edi+0x66],ch
00005FE9  206000            and [eax+0x0],ah
00005FEC  B4ED              mov ah,0xed
00005FEE  0000              add [eax],al
00005FF0  0B00              or eax,[eax]
00005FF2  0000              add [eax],al
00005FF4  BFED000026        mov edi,0x260000ed
00005FF9  0000              add [eax],al
00005FFB  0048DC            add [eax-0x24],cl
00005FFE  0000              add [eax],al
00006000  0800              or [eax],al
00006002  0000              add [eax],al
00006004  E5ED              in eax,0xed
00006006  0000              add [eax],al
00006008  06                push es
00006009  0000              add [eax],al
0000600B  0093ED000001      add [ebx+0x10000ed],dl
00006011  0000              add [eax],al
00006013  0020              add [eax],ah
00006015  6973206F757420    imul esi,[ebx+0x20],dword 0x2074756f
0000601C  6F                outsd
0000601D  6620626F          o16 and [edx+0x6f],ah
00006021  756E              jnz 0x6091
00006023  647320            fs jnc 0x6046
00006026  6F                outsd
00006027  66206000          o16 and [eax+0x0],ah
0000602B  00B4ED00000B00    add [ebp+ebp*8+0xb0000],dh
00006032  0000              add [eax],al
00006034  14EE              adc al,0xee
00006036  0000              add [eax],al
00006038  16                push ss
00006039  0000              add [eax],al
0000603B  0093ED000001      add [ebx+0x10000ed],dl
00006041  0000              add [eax],al
00006043  002F              add [edi],ch
00006045  686F6D652F        push dword 0x2f656d6f
0000604A  646965676F2F2E72  imul esp,[fs:ebp+0x67],dword 0x722e2f6f
00006052  7573              jnz 0x60c7
00006054  7475              jz 0x60cb
00006056  702F              jo 0x6087
00006058  746F              jz 0x60c9
0000605A  6F                outsd
0000605B  6C                insb
0000605C  636861            arpl [eax+0x61],bp
0000605F  696E732F6E6967    imul ebp,[esi+0x73],dword 0x67696e2f
00006066  68746C792D        push dword 0x2d796c74
0000606B  7838              js 0x60a5
0000606D  365F              ss pop edi
0000606F  36342D            ss xor al,0x2d
00006072  756E              jnz 0x60e2
00006074  6B6E6F77          imul ebp,[esi+0x6f],byte +0x77
00006078  6E                outsb
00006079  2D6C696E75        sub eax,0x756e696c
0000607E  782D              js 0x60ad
00006080  676E              a16 outsb
00006082  752F              jnz 0x60b3
00006084  6C                insb
00006085  69622F72757374    imul esp,[edx+0x2f],dword 0x74737572
0000608C  6C                insb
0000608D  69622F7372632F    imul esp,[edx+0x2f],dword 0x2f637273
00006094  7275              jc 0x610b
00006096  7374              jnc 0x610c
00006098  2F                das
00006099  6C                insb
0000609A  6962726172792F    imul esp,[edx+0x72],dword 0x2f797261
000060A1  636F72            arpl [edi+0x72],bp
000060A4  652F              gs das
000060A6  7372              jnc 0x611a
000060A8  632F              arpl [edi],bp
000060AA  7374              jnc 0x6120
000060AC  722F              jc 0x60dd
000060AE  6D                insd
000060AF  6F                outsd
000060B0  642E7273          cs jc 0x6127
000060B4  44                inc esp
000060B5  EE                out dx,al
000060B6  0000              add [eax],al
000060B8  7000              jo 0x60ba
000060BA  0000              add [eax],al
000060BC  0901              or [ecx],eax
000060BE  0000              add [eax],al
000060C0  2C00              sub al,0x0
000060C2  0000              add [eax],al
000060C4  2F                das
000060C5  686F6D652F        push dword 0x2f656d6f
000060CA  646965676F2F2E72  imul esp,[fs:ebp+0x67],dword 0x722e2f6f
000060D2  7573              jnz 0x6147
000060D4  7475              jz 0x614b
000060D6  702F              jo 0x6107
000060D8  746F              jz 0x6149
000060DA  6F                outsd
000060DB  6C                insb
000060DC  636861            arpl [eax+0x61],bp
000060DF  696E732F6E6967    imul ebp,[esi+0x73],dword 0x67696e2f
000060E6  68746C792D        push dword 0x2d796c74
000060EB  7838              js 0x6125
000060ED  365F              ss pop edi
000060EF  36342D            ss xor al,0x2d
000060F2  756E              jnz 0x6162
000060F4  6B6E6F77          imul ebp,[esi+0x6f],byte +0x77
000060F8  6E                outsb
000060F9  2D6C696E75        sub eax,0x756e696c
000060FE  782D              js 0x612d
00006100  676E              a16 outsb
00006102  752F              jnz 0x6133
00006104  6C                insb
00006105  69622F72757374    imul esp,[edx+0x2f],dword 0x74737572
0000610C  6C                insb
0000610D  69622F7372632F    imul esp,[edx+0x2f],dword 0x2f637273
00006114  7275              jc 0x618b
00006116  7374              jnc 0x618c
00006118  2F                das
00006119  6C                insb
0000611A  6962726172792F    imul esp,[edx+0x72],dword 0x2f797261
00006121  636F72            arpl [edi+0x72],bp
00006124  652F              gs das
00006126  7372              jnc 0x619a
00006128  632F              arpl [edi],bp
0000612A  756E              jnz 0x619a
0000612C  69636F64652F70    imul esp,[ebx+0x6f],dword 0x702f6564
00006133  7269              jc 0x619e
00006135  6E                outsb
00006136  7461              jz 0x6199
00006138  626C652E          bound ebp,[ebp+0x2e]
0000613C  7273              jc 0x61b1
0000613E  0000              add [eax],al
00006140  C4                db 0xc4
00006141  EE                out dx,al
00006142  0000              add [eax],al
00006144  7A00              jpe 0x6146
00006146  0000              add [eax],al
00006148  1A00              sbb al,[eax]
0000614A  0000              add [eax],al
0000614C  360000            add [ss:eax],al
0000614F  00C4              add ah,al
00006151  EE                out dx,al
00006152  0000              add [eax],al
00006154  7A00              jpe 0x6156
00006156  0000              add [eax],al
00006158  0A00              or al,[eax]
0000615A  0000              add [eax],al
0000615C  2B00              sub eax,[eax]
0000615E  0000              add [eax],al
00006160  0006              add [esi],al
00006162  0101              add [ecx],eax
00006164  0301              add eax,[ecx]
00006166  0402              add al,0x2
00006168  0507070208        add eax,0x8020707
0000616D  0809              or [ecx],cl
0000616F  020A              add cl,[edx]
00006171  050B020E04        add eax,0x40e020b
00006176  1001              adc [ecx],al
00006178  1102              adc [edx],eax
0000617A  120513111401      adc al,[dword 0x1141113]
00006180  1502170219        adc eax,0x19021702
00006185  0D1C051D08        or eax,0x81d051c
0000618A  1F                pop ds
0000618B  012401            add [ecx+eax],esp
0000618E  6A04              push byte +0x4
00006190  6B02AF            imul eax,[edx],byte -0x51
00006193  03B102BC02CF      add esi,[ecx-0x30fd43fe]
00006199  02D1              add dl,cl
0000619B  02D4              add dl,ah
0000619D  0CD5              or al,0xd5
0000619F  09D6              or esi,edx
000061A1  02D7              add dl,bh
000061A3  02DA              add bl,dl
000061A5  01E0              add eax,esp
000061A7  05E102E704        add eax,0x4e702e1
000061AC  E802EE20F0        call 0xf0214fb3
000061B1  04F8              add al,0xf8
000061B3  02FA              add bh,dl
000061B5  03FB              add edi,ebx
000061B7  010C27            add [edi],ecx
000061BA  3B3E              cmp edi,[esi]
000061BC  4E                dec esi
000061BD  4F                dec edi
000061BE  8F                db 0x8f
000061BF  9E                sahf
000061C0  9E                sahf
000061C1  9F                lahf
000061C2  7B8B              jpo 0x614f
000061C4  93                xchg eax,ebx
000061C5  96                xchg eax,esi
000061C6  A2B2BA86B1        mov [0xb186bab2],al
000061CB  06                push es
000061CC  07                pop es
000061CD  0936              or [esi],esi
000061CF  3D3E56F3D0        cmp eax,0xd0f3563e
000061D4  D10414            rol dword [esp+edx],1
000061D7  1836              sbb [esi],dh
000061D9  37                aaa
000061DA  56                push esi
000061DB  57                push edi
000061DC  7FAA              jg 0x6188
000061DE  AE                scasb
000061DF  AF                scasd
000061E0  BD35E01287        mov ebp,0x8712e035
000061E5  898E9E040D0E      mov [esi+0xe0d049e],ecx
000061EB  1112              adc [edx],edx
000061ED  2931              sub [ecx],esi
000061EF  343A              xor al,0x3a
000061F1  45                inc ebp
000061F2  46                inc esi
000061F3  49                dec ecx
000061F4  4A                dec edx
000061F5  4E                dec esi
000061F6  4F                dec edi
000061F7  64655C            gs pop esp
000061FA  B6B7              mov dh,0xb7
000061FC  1B1C07            sbb ebx,[edi+eax]
000061FF  080A              or [edx],cl
00006201  0B1417            or edx,[edi+edx]
00006204  36393A            cmp [ss:edx],edi
00006207  A8A9              test al,0xa9
00006209  D8D9              fcomp st1
0000620B  0937              or [edi],esi
0000620D  90                nop
0000620E  91                xchg eax,ecx
0000620F  A807              test al,0x7
00006211  0A3B              or bh,[ebx]
00006213  3E66698F92116F5F  imul cx,[ds:edi+0x5f6f1192],word 0xeebf
         -BFEE
0000621D  EF                out dx,eax
0000621E  5A                pop edx
0000621F  62                db 0x62
00006220  F4                hlt
00006221  FC                cld
00006222  FF5354            call [ebx+0x54]
00006225  9A9B2E2F272855    call 0x5528:0x272f2e9b
0000622C  9D                popf
0000622D  A0A1A3A4A7        mov al,[0xa7a4a3a1]
00006232  A8AD              test al,0xad
00006234  BABCC4060B        mov edx,0xb06c4bc
00006239  0C15              or al,0x15
0000623B  1D3A3F4551        sbb eax,0x51453f3a
00006240  A6                cmpsb
00006241  A7                cmpsd
00006242  CC                int3
00006243  CDA0              int 0xa0
00006245  07                pop es
00006246  191A              sbb [edx],ebx
00006248  22253E3FE7EC      and ah,[dword 0xece73f3e]
0000624E  EF                out dx,eax
0000624F  FFC5              inc ebp
00006251  C6042023          mov byte [eax],0x23
00006255  2526283338        and eax,0x38332826
0000625A  3A484A            cmp cl,[eax+0x4a]
0000625D  4C                dec esp
0000625E  50                push eax
0000625F  53                push ebx
00006260  55                push ebp
00006261  56                push esi
00006262  58                pop eax
00006263  5A                pop edx
00006264  5C                pop esp
00006265  5E                pop esi
00006266  60                pusha
00006267  636566            arpl [ebp+0x66],sp
0000626A  6B73787D          imul esi,[ebx+0x78],byte +0x7d
0000626E  7F8A              jg 0x61fa
00006270  A4                movsb
00006271  AA                stosb
00006272  AF                scasd
00006273  B0C0              mov al,0xc0
00006275  D0AEAF6E6FBE      shr byte [esi-0x41909151],1
0000627B  93                xchg eax,ebx
0000627C  5E                pop esi
0000627D  227B05            and bh,[ebx+0x5]
00006280  03042D03660301    add eax,[ebp+0x1036603]
00006287  2F                das
00006288  2E80821D03310F1C  add byte [cs:edx+0xf31031d],0x1c
00006290  0424              add al,0x24
00006292  091E              or [esi],ebx
00006294  052B054404        add eax,0x444052b
00006299  0E                push cs
0000629A  2A80AA062404      sub al,[eax+0x42406aa]
000062A0  2404              and al,0x4
000062A2  2808              sub [eax],cl
000062A4  340B              xor al,0xb
000062A6  4E                dec esi
000062A7  43                inc ebx
000062A8  813709160A08      xor dword [edi],0x80a1609
000062AE  183B              sbb [ebx],bh
000062B0  45                inc ebp
000062B1  3903              cmp [ebx],eax
000062B3  6308              arpl [eax],cx
000062B5  0930              or [eax],esi
000062B7  16                push ss
000062B8  0521031B05        add eax,0x51b0321
000062BD  014038            add [eax+0x38],eax
000062C0  044B              add al,0x4b
000062C2  052F040A07        add eax,0x70a042f
000062C7  0907              or [edi],eax
000062C9  40                inc eax
000062CA  2027              and [edi],ah
000062CC  040C              add al,0xc
000062CE  0936              or [esi],esi
000062D0  033A              add edi,[edx]
000062D2  051A07040C        add eax,0xc04071a
000062D7  07                pop es
000062D8  50                push eax
000062D9  49                dec ecx
000062DA  37                aaa
000062DB  330D33072E08      xor ecx,[dword 0x82e0733]
000062E1  0A8126524B2B      or al,[ecx+0x2b4b5226]
000062E7  082A              or [edx],ch
000062E9  16                push ss
000062EA  1A26              sbb ah,[esi]
000062EC  1C14              sbb al,0x14
000062EE  17                pop ss
000062EF  094E04            or [esi+0x4],ecx
000062F2  2409              and al,0x9
000062F4  44                inc esp
000062F5  0D19070A06        or eax,0x60a0719
000062FA  48                dec eax
000062FB  0827              or [edi],ah
000062FD  09750B            or [ebp+0xb],esi
00006300  42                inc edx
00006301  3E2A06            sub al,[ds:esi]
00006304  3B050A065106      cmp eax,[dword 0x651060a]
0000630A  010510030580      add [dword 0x80050310],eax
00006310  8B621E            mov esp,[edx+0x1e]
00006313  48                dec eax
00006314  080A              or [edx],cl
00006316  80A65E22450B0A    and byte [esi+0xb45225e],0xa
0000631D  06                push es
0000631E  0D133A060A        or eax,0xa063a13
00006323  362C04            ss sub al,0x4
00006326  17                pop ss
00006327  80B93C64530C48    cmp byte [ecx+0xc53643c],0x48
0000632E  090A              or [edx],ecx
00006330  46                inc esi
00006331  45                inc ebp
00006332  1B4808            sbb ecx,[eax+0x8]
00006335  53                push ebx
00006336  0D49070A80        or eax,0x800a0749
0000633B  F6460A1D          test byte [esi+0xa],0x1d
0000633F  034749            add eax,[edi+0x49]
00006342  37                aaa
00006343  030E              add ecx,[esi]
00006345  080A              or [edx],cl
00006347  06                push es
00006348  3907              cmp [edi],eax
0000634A  0A813619073B      or al,[ecx+0x3b071936]
00006350  031C56            add ebx,[esi+edx*2]
00006353  010F              add [edi],ecx
00006355  320D839B6675      xor cl,[dword 0x75669b83]
0000635B  0B80C48A4C63      or eax,[eax+0x634c8ac4]
00006361  0D84301016        or eax,0x16103084
00006366  8F                db 0x8f
00006367  AA                stosb
00006368  82                db 0x82
00006369  47                inc edi
0000636A  A1B9823907        mov eax,[0x73982b9]
0000636F  2A045C            sub al,[esp+ebx*2]
00006372  06                push es
00006373  260A460A          or al,[es:esi+0xa]
00006377  28051382B05B      sub [dword 0x5bb08213],al
0000637D  654B              gs dec ebx
0000637F  0439              add al,0x39
00006381  07                pop es
00006382  114005            adc [eax+0x5],eax
00006385  0B02              or eax,[edx]
00006387  0E                push cs
00006388  97                xchg eax,edi
00006389  F8                clc
0000638A  0884D62A09A2E7    or [esi+edx*8-0x185df6d6],al
00006391  81330F011D06      xor dword [ebx],0x61d010f
00006397  0E                push cs
00006398  0408              add al,0x8
0000639A  818C89046B050D03  or dword [ecx+ecx*4+0xd056b04],0x10070903
         -090710
000063A5  92                xchg eax,edx
000063A6  60                pusha
000063A7  47                inc edi
000063A8  09743C80          or [esp+edi-0x80],esi
000063AC  F6                db 0xf6
000063AD  0A7308            or dh,[ebx+0x8]
000063B0  7015              jo 0x63c7
000063B2  46                inc esi
000063B3  7A14              jpe 0x63c9
000063B5  0C14              or al,0x14
000063B7  0C57              or al,0x57
000063B9  0919              or [ecx],ebx
000063BB  80878147038542    add byte [edi-0x7afcb87f],0x42
000063C2  0F1584501F060680  unpckhps xmm0,oword [eax+edx*2-0x7ff9f9e1]
000063CA  D52B              aad 0x2b
000063CC  053E210170        add eax,0x7001213e
000063D1  2D031A0402        sub eax,0x2041a03
000063D6  81401F113A0501    add dword [eax+0x1f],0x1053a11
000063DD  81D02A82E680      adc eax,0x80e6822a
000063E3  F729              imul dword [ecx]
000063E5  4C                dec esp
000063E6  040A              add al,0xa
000063E8  0402              add al,0x2
000063EA  831144            adc dword [ecx],byte +0x44
000063ED  4C                dec esp
000063EE  3D80C23C06        cmp eax,0x63cc280
000063F3  010455051B3402    add [edx*2+0x2341b05],eax
000063FA  810E2C04640C      or dword [esi],0xc64042c
00006400  56                push esi
00006401  0A80AE381D0D      or al,[eax+0xd1d38ae]
00006407  2C04              sub al,0x4
00006409  0907              or [edi],eax
0000640B  020E              add cl,[esi]
0000640D  06                push es
0000640E  809A83D8041103    sbb byte [edx+0x1104d883],0x3
00006415  0D0377045F        or eax,0x5f047703
0000641A  06                push es
0000641B  0C04              or al,0x4
0000641D  010F              add [edi],ecx
0000641F  0C04              or al,0x4
00006421  3808              cmp [eax],cl
00006423  0A06              or al,[esi]
00006425  2808              sub [eax],cl
00006427  224E81            and cl,[esi-0x7f]
0000642A  54                push esp
0000642B  0C1D              or al,0x1d
0000642D  0309              add ecx,[ecx]
0000642F  07                pop es
00006430  36080E            or [ss:esi],cl
00006433  0409              add al,0x9
00006435  07                pop es
00006436  0907              or [edi],eax
00006438  80CB25            or bl,0x25
0000643B  0A840600010305    or al,[esi+eax+0x5030100]
00006442  0506060207        add eax,0x7020606
00006447  06                push es
00006448  0807              or [edi],al
0000644A  0911              or [ecx],edx
0000644C  0A1C0B            or bl,[ebx+ecx]
0000644F  190C1A            sbb [edx+ebx],ecx
00006452  0D100E0C0F        or eax,0xf0c0e10
00006457  0410              add al,0x10
00006459  0312              add edx,[edx]
0000645B  1213              adc dl,[ebx]
0000645D  0916              or [esi],edx
0000645F  0117              add [edi],edx
00006461  0418              add al,0x18
00006463  0119              add [ecx],ebx
00006465  031A              add ebx,[edx]
00006467  07                pop es
00006468  1B01              sbb eax,[ecx]
0000646A  1C02              sbb al,0x2
0000646C  1F                pop ds
0000646D  16                push ss
0000646E  2003              and [ebx],al
00006470  2B03              sub eax,[ebx]
00006472  2D0B2E0130        sub eax,0x30012e0b
00006477  0331              add esi,[ecx]
00006479  0232              add dh,[edx]
0000647B  01A702A902AA      add [edi-0x55fd56fe],esp
00006481  04AB              add al,0xab
00006483  08FA              or dl,bh
00006485  02FB              add bh,bl
00006487  05FD02FE03        add eax,0x3fe02fd
0000648C  FF09              dec dword [ecx]
0000648E  AD                lodsd
0000648F  7879              js 0x650a
00006491  8B8DA2305758      mov ecx,[ebp+0x585730a2]
00006497  8B8C901CDD0E0F    mov ecx,[eax+edx*4+0xf0edd1c]
0000649E  4B                dec ebx
0000649F  4C                dec esp
000064A0  FB                sti
000064A1  FC                cld
000064A2  2E2F              cs das
000064A4  3F                aas
000064A5  5C                pop esp
000064A6  5D                pop ebp
000064A7  5F                pop edi
000064A8  E284              loop 0x642e
000064AA  8D8E9192A9B1      lea ecx,[esi-0x4e566d6f]
000064B0  BABBC5C6C9        mov edx,0xc9c6c5bb
000064B5  CADEE4            retf 0xe4de
000064B8  E5FF              in eax,0xff
000064BA  000411            add [ecx+edx],al
000064BD  1229              adc ch,[ecx]
000064BF  313437            xor [edi+esi],esi
000064C2  3A3B              cmp bh,[ebx]
000064C4  3D494A5D84        cmp eax,0x845d4a49
000064C9  8E92A9B1B4BA      mov ss,[edx-0x454b4e57]
000064CF  BBC6CACECF        mov ebx,0xcfcecac6
000064D4  E4E5              in al,0xe5
000064D6  00040D0E111229    add [ecx+0x2912110e],al
000064DD  31343A            xor [edx+edi],esi
000064E0  3B4546            cmp eax,[ebp+0x46]
000064E3  49                dec ecx
000064E4  4A                dec edx
000064E5  5E                pop esi
000064E6  646584919B9DC9CE  test [gs:ecx-0x31366265],dl
000064EE  CF                iret
000064EF  0D11293A3B        or eax,0x3b3a2911
000064F4  45                inc ebp
000064F5  49                dec ecx
000064F6  57                push edi
000064F7  5B                pop ebx
000064F8  5C                pop esp
000064F9  5E                pop esi
000064FA  5F                pop edi
000064FB  64658D91A9B4BABB  lea edx,[gs:ecx-0x44454b57]
00006503  C5C9DFE4          vpandn xmm4,xmm6,xmm4
00006507  E5F0              in eax,0xf0
00006509  0D11454964        or eax,0x64494511
0000650E  658084B2BCBEBFD5  add byte [gs:edx+esi*4-0x2a404144],0xd7
         -D7
00006517  F0F1              lock int1
00006519  83858BA4A6BEBF    add dword [ebp-0x41595b75],byte -0x41
00006520  C5                db 0xc5
00006521  C7                db 0xc7
00006522  CF                iret
00006523  DADB              fcmovu st3
00006525  48                dec eax
00006526  98                cwde
00006527  BDCDC6CECF        mov ebp,0xcfcec6cd
0000652C  49                dec ecx
0000652D  4E                dec esi
0000652E  4F                dec edi
0000652F  57                push edi
00006530  59                pop ecx
00006531  5E                pop esi
00006532  5F                pop edi
00006533  898E8FB1B6B7      mov [esi-0x48494e71],ecx
00006539  BFC1C6C7D7        mov edi,0xd7c7c6c1
0000653E  1116              adc [esi],edx
00006540  17                pop ss
00006541  5B                pop ebx
00006542  5C                pop esp
00006543  F6F7              div bh
00006545  FE                db 0xfe
00006546  FF806D71DEDF      inc dword [eax-0x20218e93]
0000654C  0E                push cs
0000654D  1F                pop ds
0000654E  6E                outsb
0000654F  6F                outsd
00006550  1C1D              sbb al,0x1d
00006552  5F                pop edi
00006553  7D7E              jnl 0x65d3
00006555  AE                scasb
00006556  AF                scasd
00006557  7FBB              jg 0x6514
00006559  BC16171E1F        mov esp,0x1f1e1716
0000655E  46                inc esi
0000655F  47                inc edi
00006560  4E                dec esi
00006561  4F                dec edi
00006562  58                pop eax
00006563  5A                pop edx
00006564  5C                pop esp
00006565  5E                pop esi
00006566  7E7F              jng 0x65e7
00006568  B5C5              mov ch,0xc5
0000656A  D4D5              aam 0xd5
0000656C  DCF0              fdivr to st0
0000656E  F1                int1
0000656F  F5                cmc
00006570  7273              jc 0x65e5
00006572  8F                db 0x8f
00006573  7475              jz 0x65ea
00006575  96                xchg eax,esi
00006576  262E2F            cs das
00006579  A7                cmpsd
0000657A  AF                scasd
0000657B  B7BF              mov bh,0xbf
0000657D  C7                db 0xc7
0000657E  CF                iret
0000657F  D7                xlatb
00006580  DF9A40979830      fistp word [edx+0x30989740]
00006586  8F                db 0x8f
00006587  1F                pop ds
00006588  D2D4              rcl ah,cl
0000658A  CE                into
0000658B  FF4E4F            dec dword [esi+0x4f]
0000658E  5A                pop edx
0000658F  5B                pop ebx
00006590  07                pop es
00006591  080F              or [edi],cl
00006593  1027              adc [edi],ah
00006595  2F                das
00006596  EE                out dx,al
00006597  EF                out dx,eax
00006598  6E                outsb
00006599  6F                outsd
0000659A  37                aaa
0000659B  3D3F424590        cmp eax,0x9045423f
000065A0  91                xchg eax,ecx
000065A1  53                push ebx
000065A2  6775C8            jnz 0x656d
000065A5  C9                leave
000065A6  D0D1              rcl cl,1
000065A8  D8D9              fcomp st1
000065AA  E7FE              out 0xfe,eax
000065AC  FF00              inc dword [eax]
000065AE  205F22            and [edi+0x22],bl
000065B1  82                db 0x82
000065B2  DF0482            fild word [edx+eax*4]
000065B5  44                inc esp
000065B6  081B              or [ebx],bl
000065B8  0406              add al,0x6
000065BA  1181AC0E80AB      adc [ecx-0x547ff154],eax
000065C0  051F09811B        add eax,0x1b81091f
000065C5  0319              add ebx,[ecx]
000065C7  0801              or [ecx],al
000065C9  042F              add al,0x2f
000065CB  0434              add al,0x34
000065CD  0407              add al,0x7
000065CF  0301              add eax,[ecx]
000065D1  07                pop es
000065D2  06                push es
000065D3  07                pop es
000065D4  110A              adc [edx],ecx
000065D6  50                push eax
000065D7  0F1207            movlps xmm0,qword [edi]
000065DA  55                push ebp
000065DB  07                pop es
000065DC  03041C            add eax,[esp+ebx]
000065DF  0A09              or cl,[ecx]
000065E1  0308              add ecx,[eax]
000065E3  0307              add eax,[edi]
000065E5  0302              add eax,[edx]
000065E7  0303              add eax,[ebx]
000065E9  030C04            add ecx,[esp+eax]
000065EC  05030B0601        add eax,0x1060b03
000065F1  0E                push cs
000065F2  15054E071B        adc eax,0x1b074e05
000065F7  07                pop es
000065F8  57                push edi
000065F9  07                pop es
000065FA  0206              add al,[esi]
000065FC  17                pop ss
000065FD  0C50              or al,0x50
000065FF  0443              add al,0x43
00006601  032D03010411      add ebp,[dword 0x11040103]
00006607  06                push es
00006608  0F                db 0x0f
00006609  0C3A              or al,0x3a
0000660B  041D              add al,0x1d
0000660D  255F206D04        and eax,0x46d205f
00006612  6A25              push byte +0x25
00006614  80C805            or al,0x5
00006617  82                db 0x82
00006618  B003              mov al,0x3
0000661A  1A06              sbb al,[esi]
0000661C  82                db 0x82
0000661D  FD                std
0000661E  035907            add ebx,[ecx+0x7]
00006621  16                push ss
00006622  0918              or [eax],ebx
00006624  09140C            or [esp+ecx],edx
00006627  140C              adc al,0xc
00006629  6A06              push byte +0x6
0000662B  0A06              or al,[esi]
0000662D  1A06              sbb al,[esi]
0000662F  59                pop ecx
00006630  07                pop es
00006631  2B05460A2C04      sub eax,[dword 0x42c0a46]
00006637  0C04              or al,0x4
00006639  0103              add [ebx],eax
0000663B  310B              xor [ebx],ecx
0000663D  2C04              sub al,0x4
0000663F  1A06              sbb al,[esi]
00006641  0B03              or eax,[ebx]
00006643  80AC060A062F314D  sub byte [esi+eax+0x312f060a],0x4d
0000664B  0380A4083C03      add eax,[eax+0x33c08a4]
00006651  0F033C07          lsl edi,[edi+eax]
00006655  3808              cmp [eax],cl
00006657  2B0582FF1118      sub eax,[dword 0x1811ff82]
0000665D  082F              or [edi],ch
0000665F  112D03210F21      adc [dword 0x210f2103],ebp
00006665  0F808C048297      jo near 0x97826af7
0000666B  190B              sbb [ebx],ecx
0000666D  158894052F        adc eax,0x2f059488
00006672  053B07020E        add eax,0xe02073b
00006677  1809              sbb [ecx],cl
00006679  80BE22740C80D6    cmp byte [esi-0x7ff38bde],0xd6
00006680  1A0C0580FF0580    sbb cl,[eax-0x7ffa0080]
00006687  DF0CF2            fisttp word [edx+esi*8]
0000668A  9D                popf
0000668B  0337              add esi,[edi]
0000668D  09815C1480B8      or [ecx-0x477feba4],eax
00006693  0880CB050A18      or [eax+0x180a05cb],al
00006699  3B03              cmp eax,[ebx]
0000669B  0A06              or al,[esi]
0000669D  3808              cmp [eax],cl
0000669F  46                inc esi
000066A0  080C06            or [esi+eax],cl
000066A3  740B              jz 0x66b0
000066A5  1E                push ds
000066A6  035A04            add ebx,[edx+0x4]
000066A9  59                pop ecx
000066AA  098083181C0A      or [eax+0xa1c1883],eax
000066B0  16                push ss
000066B1  094C0480          or [esp+eax-0x80],ecx
000066B5  8A06              mov al,[esi]
000066B7  AB                stosd
000066B8  A4                movsb
000066B9  0C17              or al,0x17
000066BB  0431              add al,0x31
000066BD  A10481DA26        mov eax,[0x26da8104]
000066C2  07                pop es
000066C3  0C05              or al,0x5
000066C5  0580A61081        add eax,0x8110a680
000066CA  F5                cmc
000066CB  07                pop es
000066CC  0120              add [eax],esp
000066CE  2A06              sub al,[esi]
000066D0  4C                dec esp
000066D1  0480              add al,0x80
000066D3  8D0480            lea eax,[eax+eax*4]
000066D6  BE031B030F        mov esi,0xf031b03
000066DB  0D2F686F6D        or eax,0x6d6f682f
000066E0  652F              gs das
000066E2  646965676F2F2E72  imul esp,[fs:ebp+0x67],dword 0x722e2f6f
000066EA  7573              jnz 0x675f
000066EC  7475              jz 0x6763
000066EE  702F              jo 0x671f
000066F0  746F              jz 0x6761
000066F2  6F                outsd
000066F3  6C                insb
000066F4  636861            arpl [eax+0x61],bp
000066F7  696E732F6E6967    imul ebp,[esi+0x73],dword 0x67696e2f
000066FE  68746C792D        push dword 0x2d796c74
00006703  7838              js 0x673d
00006705  365F              ss pop edi
00006707  36342D            ss xor al,0x2d
0000670A  756E              jnz 0x677a
0000670C  6B6E6F77          imul ebp,[esi+0x6f],byte +0x77
00006710  6E                outsb
00006711  2D6C696E75        sub eax,0x756e696c
00006716  782D              js 0x6745
00006718  676E              a16 outsb
0000671A  752F              jnz 0x674b
0000671C  6C                insb
0000671D  69622F72757374    imul esp,[edx+0x2f],dword 0x74737572
00006724  6C                insb
00006725  69622F7372632F    imul esp,[edx+0x2f],dword 0x2f637273
0000672C  7275              jc 0x67a3
0000672E  7374              jnc 0x67a4
00006730  2F                das
00006731  6C                insb
00006732  6962726172792F    imul esp,[edx+0x72],dword 0x2f797261
00006739  636F72            arpl [edi+0x72],bp
0000673C  652F              gs das
0000673E  7372              jnc 0x67b2
00006740  632F              arpl [edi],bp
00006742  756E              jnz 0x67b2
00006744  69636F64652F75    imul esp,[ebx+0x6f],dword 0x752f6564
0000674B  6E                outsb
0000674C  69636F64655F64    imul esp,[ebx+0x6f],dword 0x645f6564
00006753  61                popa
00006754  7461              jz 0x67b7
00006756  2E7273            cs jc 0x67cc
00006759  0000              add [eax],al
0000675B  00DC              add ah,bl
0000675D  F4                hlt
0000675E  0000              add [eax],al
00006760  7D00              jnl 0x6762
00006762  0000              add [eax],al
00006764  50                push eax
00006765  0000              add [eax],al
00006767  0028              add [eax],ch
00006769  0000              add [eax],al
0000676B  00DC              add ah,bl
0000676D  F4                hlt
0000676E  0000              add [eax],al
00006770  7D00              jnl 0x6772
00006772  0000              add [eax],al
00006774  5C                pop esp
00006775  0000              add [eax],al
00006777  0016              add [esi],dl
00006779  0000              add [eax],al
0000677B  002F              add [edi],ch
0000677D  686F6D652F        push dword 0x2f656d6f
00006782  646965676F2F2E72  imul esp,[fs:ebp+0x67],dword 0x722e2f6f
0000678A  7573              jnz 0x67ff
0000678C  7475              jz 0x6803
0000678E  702F              jo 0x67bf
00006790  746F              jz 0x6801
00006792  6F                outsd
00006793  6C                insb
00006794  636861            arpl [eax+0x61],bp
00006797  696E732F6E6967    imul ebp,[esi+0x73],dword 0x67696e2f
0000679E  68746C792D        push dword 0x2d796c74
000067A3  7838              js 0x67dd
000067A5  365F              ss pop edi
000067A7  36342D            ss xor al,0x2d
000067AA  756E              jnz 0x681a
000067AC  6B6E6F77          imul ebp,[esi+0x6f],byte +0x77
000067B0  6E                outsb
000067B1  2D6C696E75        sub eax,0x756e696c
000067B6  782D              js 0x67e5
000067B8  676E              a16 outsb
000067BA  752F              jnz 0x67eb
000067BC  6C                insb
000067BD  69622F72757374    imul esp,[edx+0x2f],dword 0x74737572
000067C4  6C                insb
000067C5  69622F7372632F    imul esp,[edx+0x2f],dword 0x2f637273
000067CC  7275              jc 0x6843
000067CE  7374              jnc 0x6844
000067D0  2F                das
000067D1  6C                insb
000067D2  6962726172792F    imul esp,[edx+0x72],dword 0x2f797261
000067D9  636F72            arpl [edi+0x72],bp
000067DC  652F              gs das
000067DE  7372              jnc 0x6852
000067E0  632F              arpl [edi],bp
000067E2  657363            gs jnc 0x6848
000067E5  61                popa
000067E6  7065              jo 0x684d
000067E8  2E7273            cs jc 0x685e
000067EB  007CF500          add [ebp+esi*8+0x0],bh
000067EF  006F00            add [edi+0x0],ch
000067F2  0000              add [eax],al
000067F4  3800              cmp [eax],al
000067F6  0000              add [eax],al
000067F8  0B00              or eax,[eax]
000067FA  0000              add [eax],al
000067FC  5C                pop esp
000067FD  757B              jnz 0x687a
000067FF  007CF500          add [ebp+esi*8+0x0],bh
00006803  006F00            add [edi+0x0],ch
00006806  0000              add [eax],al
00006808  3800              cmp [eax],al
0000680A  0000              add [eax],al
0000680C  1A00              sbb al,[eax]
0000680E  0000              add [eax],al
00006810  7CF5              jl 0x6807
00006812  0000              add [eax],al
00006814  6F                outsd
00006815  0000              add [eax],al
00006817  005500            add [ebp+0x0],dl
0000681A  0000              add [eax],al
0000681C  1300              adc eax,[eax]
0000681E  0000              add [eax],al
00006820  7CF5              jl 0x6817
00006822  0000              add [eax],al
00006824  6F                outsd
00006825  0000              add [eax],al
00006827  006600            add [esi+0x0],ah
0000682A  0000              add [eax],al
0000682C  2300              and eax,[eax]
0000682E  0000              add [eax],al
00006830  0003              add [ebx],al
00006832  0000              add [eax],al
00006834  83042000          add dword [eax],byte +0x0
00006838  91                xchg eax,ecx
00006839  0560005D13        add eax,0x135d0060
0000683E  A000121720        mov al,[0x20171200]
00006843  1F                pop ds
00006844  0C20              or al,0x20
00006846  60                pusha
00006847  1F                pop ds
00006848  EF                out dx,eax
00006849  2CA0              sub al,0xa0
0000684B  2B2A              sub ebp,[edx]
0000684D  3020              xor [eax],ah
0000684F  2C6F              sub al,0x6f
00006851  A6                cmpsb
00006852  E02C              loopne 0x6880
00006854  02A8602D1EFB      add ch,[eax-0x4e1d2a0]
0000685A  60                pusha
0000685B  2E00FE            cs add dh,bh
0000685E  2036              and [esi],dh
00006860  9E                sahf
00006861  FF6036            jmp [eax+0x36]
00006864  FD                std
00006865  01E1              add ecx,esp
00006867  36010A            add [ss:edx],ecx
0000686A  2137              and [edi],esi
0000686C  240D              and al,0xd
0000686E  E137              loope 0x68a7
00006870  AB                stosd
00006871  0E                push cs
00006872  61                popa
00006873  392F              cmp [edi],ebp
00006875  18A139301C61      sbb [ecx+0x611c3039],ah
0000687B  48                dec eax
0000687C  F31E              rep push ds
0000687E  A14C403461        mov eax,[0x6134404c]
00006883  50                push eax
00006884  F06AA1            lock push byte -0x5f
00006887  51                push ecx
00006888  4F                dec edi
00006889  6F                outsd
0000688A  21529D            and [edx-0x63],edx
0000688D  BCA15200CF        mov esp,0xcf0052a1
00006892  61                popa
00006893  53                push ebx
00006894  65D1A15300DA21    shl dword [gs:ecx+0x21da0053],1
0000689B  54                push esp
0000689C  00E0              add al,ah
0000689E  E155              loope 0x68f5
000068A0  AE                scasb
000068A1  E261              loop 0x6904
000068A3  57                push edi
000068A4  EC                in al,dx
000068A5  E421              in al,0x21
000068A7  59                pop ecx
000068A8  D0E8              shr al,1
000068AA  A1592000EE        mov eax,[0xee002059]
000068AF  59                pop ecx
000068B0  F0017F5A          lock add [edi+0x5a],edi
000068B4  007000            add [eax+0x0],dh
000068B7  07                pop es
000068B8  002D01010102      add [dword 0x2010101],ch
000068BE  0102              add [edx],eax
000068C0  0101              add [ecx],eax
000068C2  48                dec eax
000068C3  0B30              or esi,[eax]
000068C5  1510016507        adc eax,0x7650110
000068CA  0206              add al,[esi]
000068CC  0202              add al,[edx]
000068CE  010423            add [ebx],eax
000068D1  011E              add [esi],ebx
000068D3  1B5B0B            sbb ebx,[ebx+0xb]
000068D6  3A09              cmp cl,[ecx]
000068D8  0901              or [ecx],eax
000068DA  180401            sbb [ecx+eax],al
000068DD  0901              or [ecx],eax
000068DF  0301              add eax,[ecx]
000068E1  052B033C08        add eax,0x83c032b
000068E6  2A18              sub bl,[eax]
000068E8  0120              add [eax],esp
000068EA  37                aaa
000068EB  0101              add [ecx],eax
000068ED  010408            add [eax+ecx],eax
000068F0  0401              add al,0x1
000068F2  0307              add eax,[edi]
000068F4  0A02              or al,[edx]
000068F6  1D013A0101        sbb eax,0x1013a01
000068FB  0102              add [edx],eax
000068FD  0408              add al,0x8
000068FF  0109              add [ecx],ecx
00006901  010A              add [edx],ecx
00006903  021A              add bl,[edx]
00006905  0102              add [edx],eax
00006907  0239              add bh,[ecx]
00006909  010402            add [edx+eax],eax
0000690C  0402              add al,0x2
0000690E  0203              add al,[ebx]
00006910  0301              add eax,[ecx]
00006912  1E                push ds
00006913  0203              add al,[ebx]
00006915  010B              add [ebx],ecx
00006917  0239              add bh,[ecx]
00006919  01040501020401    add [eax+0x1040201],eax
00006920  1402              adc al,0x2
00006922  16                push ss
00006923  06                push es
00006924  0101              add [ecx],eax
00006926  3A01              cmp al,[ecx]
00006928  0102              add [edx],eax
0000692A  010408            add [eax+ecx],eax
0000692D  0107              add [edi],eax
0000692F  030A              add ecx,[edx]
00006931  021E              add bl,[esi]
00006933  013B              add [ebx],edi
00006935  0101              add [ecx],eax
00006937  010C01            add [ecx+eax],ecx
0000693A  0901              or [ecx],eax
0000693C  2801              sub [ecx],al
0000693E  0301              add eax,[ecx]
00006940  37                aaa
00006941  0101              add [ecx],eax
00006943  030503010407      add eax,[dword 0x7040103]
00006949  020B              add cl,[ebx]
0000694B  021D013A0102      add bl,[dword 0x2013a01]
00006951  0102              add [edx],eax
00006953  0103              add [ebx],eax
00006955  01050207020B      add [dword 0xb020702],eax
0000695B  021C02            add bl,[edx+eax]
0000695E  3902              cmp [edx],eax
00006960  0101              add [ecx],eax
00006962  020408            add al,[eax+ecx]
00006965  0109              add [ecx],ecx
00006967  010A              add [edx],ecx
00006969  021D01480104      add bl,[dword 0x4014801]
0000696F  0102              add [edx],eax
00006971  0301              add eax,[ecx]
00006973  0108              add [eax],ecx
00006975  015101            add [ecx+0x1],edx
00006978  0207              add al,[edi]
0000697A  0C08              or al,0x8
0000697C  6201              bound eax,[ecx]
0000697E  0209              add cl,[ecx]
00006980  0B07              or eax,[edi]
00006982  49                dec ecx
00006983  021B              add bl,[ebx]
00006985  0101              add [ecx],eax
00006987  0101              add [ecx],eax
00006989  0137              add [edi],esi
0000698B  0E                push cs
0000698C  01050102050B      add [dword 0xb050201],eax
00006992  012409            add [ecx+ecx],esp
00006995  016604            add [esi+0x4],esp
00006998  0106              add [esi],eax
0000699A  0102              add [edx],eax
0000699C  0202              add al,[edx]
0000699E  1902              sbb [edx],eax
000069A0  0403              add al,0x3
000069A2  10040D01020206    adc [ecx+0x6020201],al
000069A9  010F              add [edi],ecx
000069AB  0100              add [eax],eax
000069AD  0300              add eax,[eax]
000069AF  031D021E021E      add ebx,[dword 0x1e021e02]
000069B5  024002            add al,[eax+0x2]
000069B8  0107              add [edi],eax
000069BA  0801              or [ecx],al
000069BC  020B              add cl,[ebx]
000069BE  0901              or [ecx],eax
000069C0  2D03010175        sub eax,0x75010103
000069C5  0222              add ah,[edx]
000069C7  017603            add [esi+0x3],esi
000069CA  0402              add al,0x2
000069CC  0901              or [ecx],eax
000069CE  06                push es
000069CF  03DB              add ebx,ebx
000069D1  0202              add al,[edx]
000069D3  013A              add [edx],edi
000069D5  0101              add [ecx],eax
000069D7  07                pop es
000069D8  0101              add [ecx],eax
000069DA  0101              add [ecx],eax
000069DC  0208              add cl,[eax]
000069DE  06                push es
000069DF  0A02              or al,[edx]
000069E1  0130              add [eax],esi
000069E3  1F                pop ds
000069E4  310430            xor [eax+esi],eax
000069E7  07                pop es
000069E8  0101              add [ecx],eax
000069EA  050128090C        add eax,0xc092801
000069EF  0220              add ah,[eax]
000069F1  0402              add al,0x2
000069F3  0201              add al,[ecx]
000069F5  0338              add edi,[eax]
000069F7  0101              add [ecx],eax
000069F9  0203              add al,[ebx]
000069FB  0101              add [ecx],eax
000069FD  033A              add edi,[edx]
000069FF  0802              or [edx],al
00006A01  029803010D01      add bl,[eax+0x10d0103]
00006A07  07                pop es
00006A08  0401              add al,0x1
00006A0A  06                push es
00006A0B  0103              add [ebx],eax
00006A0D  02C6              add al,dh
00006A0F  40                inc eax
00006A10  0001              add [ecx],al
00006A12  C3                ret
00006A13  2100              and [eax],eax
00006A15  038D01602000      add ecx,[ebp+0x206001]
00006A1B  06                push es
00006A1C  69020004010A      imul eax,[edx],dword 0xa010400
00006A22  2002              and [edx],al
00006A24  50                push eax
00006A25  0200              add al,[eax]
00006A27  0103              add [ebx],eax
00006A29  010401            add [ecx+eax],eax
00006A2C  1902              sbb [edx],eax
00006A2E  050197021A        add eax,0x1a029701
00006A33  120D01260819      adc cl,[dword 0x19082601]
00006A39  0B2E              or ebp,[esi]
00006A3B  0330              add esi,[eax]
00006A3D  0102              add [edx],eax
00006A3F  0402              add al,0x2
00006A41  0227              add ah,[edi]
00006A43  014306            add [ebx+0x6],eax
00006A46  0202              add al,[edx]
00006A48  0202              add al,[edx]
00006A4A  0C01              or al,0x1
00006A4C  0801              or [ecx],al
00006A4E  2F                das
00006A4F  0133              add [ebx],esi
00006A51  0101              add [ecx],eax
00006A53  0302              add eax,[edx]
00006A55  02050201012A      add al,[dword 0x2a010102]
00006A5B  0208              add cl,[eax]
00006A5D  01EE              add esi,ebp
00006A5F  0102              add [edx],eax
00006A61  010401            add [ecx+eax],eax
00006A64  0001              add [ecx],al
00006A66  0010              add [eax],dl
00006A68  1010              adc [eax],dl
00006A6A  0002              add [edx],al
00006A6C  0001              add [ecx],al
00006A6E  E201              loop 0x6a71
00006A70  95                xchg eax,ebp
00006A71  0500030102        add eax,0x2010300
00006A76  0504280304        add eax,0x4032804
00006A7B  01A502000400      add [ebp+0x40002],esp
00006A81  025003            add dl,[eax+0x3]
00006A84  46                inc esi
00006A85  0B31              or esi,[ecx]
00006A87  047B              add al,0x7b
00006A89  0136              add [esi],esi
00006A8B  0F2901            movaps oword [ecx],xmm0
00006A8E  0202              add al,[edx]
00006A90  0A03              or al,[ebx]
00006A92  310402            xor [edx+eax],eax
00006A95  0207              add al,[edi]
00006A97  013D03240501      add [dword 0x1052403],edi
00006A9D  083E              or [esi],bh
00006A9F  010C02            add [edx+eax],ecx
00006AA2  3409              xor al,0x9
00006AA4  0A0402            or al,[edx+eax]
00006AA7  015F03            add [edi+0x3],ebx
00006AAA  0201              add al,[ecx]
00006AAC  0102              add [edx],eax
00006AAE  06                push es
00006AAF  0102              add [edx],eax
00006AB1  019D01030815      add [ebp+0x15080301],ebx
00006AB7  0239              add bh,[ecx]
00006AB9  0201              add al,[ecx]
00006ABB  0101              add [ecx],eax
00006ABD  0116              add [esi],edx
00006ABF  010E              add [esi],ecx
00006AC1  07                pop es
00006AC2  0305C3080203      add eax,[dword 0x30208c3]
00006AC8  0101              add [ecx],eax
00006ACA  17                pop ss
00006ACB  015101            add [ecx+0x1],edx
00006ACE  0206              add al,[esi]
00006AD0  0101              add [ecx],eax
00006AD2  0201              add al,[ecx]
00006AD4  0102              add [edx],eax
00006AD6  0102              add [edx],eax
00006AD8  EB01              jmp short 0x6adb
00006ADA  020406            add al,[esi+eax]
00006ADD  0201              add al,[ecx]
00006ADF  021B              add bl,[ebx]
00006AE1  025508            add dl,[ebp+0x8]
00006AE4  0201              add al,[ecx]
00006AE6  0102              add [edx],eax
00006AE8  6A01              push byte +0x1
00006AEA  0101              add [ecx],eax
00006AEC  0206              add al,[esi]
00006AEE  0101              add [ecx],eax
00006AF0  650302            add eax,[gs:edx]
00006AF3  0401              add al,0x1
00006AF5  0500090102        add eax,0x2010900
00006AFA  F5                cmc
00006AFB  010A              add [edx],ecx
00006AFD  0201              add al,[ecx]
00006AFF  010401            add [ecx+eax],eax
00006B02  90                nop
00006B03  0402              add al,0x2
00006B05  020401            add al,[ecx+eax]
00006B08  200A              and [edx],cl
00006B0A  2806              sub [esi],al
00006B0C  020408            add al,[eax+ecx]
00006B0F  0109              add [ecx],ecx
00006B11  06                push es
00006B12  0203              add al,[ebx]
00006B14  2E0D01020007      cs or eax,0x7000201
00006B1A  0106              add [esi],eax
00006B1C  0101              add [ecx],eax
00006B1E  52                push edx
00006B1F  16                push ss
00006B20  0207              add al,[edi]
00006B22  0102              add [edx],eax
00006B24  0102              add [edx],eax
00006B26  7A06              jpe 0x6b2e
00006B28  0301              add eax,[ecx]
00006B2A  0102              add [edx],eax
00006B2C  0107              add [edi],eax
00006B2E  0101              add [ecx],eax
00006B30  48                dec eax
00006B31  0203              add al,[ebx]
00006B33  0101              add [ecx],eax
00006B35  0100              add [eax],eax
00006B37  020B              add cl,[ebx]
00006B39  02340505010101    add dh,[eax+0x1010105]
00006B40  0001              add [ecx],al
00006B42  06                push es
00006B43  0F00053B070001    sldt [dword 0x100073b]
00006B4A  3F                aas
00006B4B  0451              add al,0x51
00006B4D  0100              add [eax],eax
00006B4F  0200              add al,[eax]
00006B51  2E0217            add dl,[cs:edi]
00006B54  0001              add [ecx],al
00006B56  0103              add [ebx],eax
00006B58  0405              add al,0x5
00006B5A  0808              or [eax],cl
00006B5C  0207              add al,[edi]
00006B5E  1E                push ds
00006B5F  0494              add al,0x94
00006B61  0300              add eax,[eax]
00006B63  37                aaa
00006B64  0432              add al,0x32
00006B66  0801              or [ecx],al
00006B68  0E                push cs
00006B69  0116              add [esi],edx
00006B6B  05010F0007        add eax,0x7000f01
00006B70  0111              add [ecx],edx
00006B72  0207              add al,[edi]
00006B74  0102              add [edx],eax
00006B76  01056401A007      add [dword 0x7a00164],eax
00006B7C  0001              add [ecx],al
00006B7E  3D04000400        cmp eax,0x40004
00006B83  07                pop es
00006B84  6D                insd
00006B85  07                pop es
00006B86  006080            add [eax-0x80],ah
00006B89  F0002F            lock add [edi],ch
00006B8C  686F6D652F        push dword 0x2f656d6f
00006B91  646965676F2F2E63  imul esp,[fs:ebp+0x67],dword 0x632e2f6f
00006B99  61                popa
00006B9A  7267              jc 0x6c03
00006B9C  6F                outsd
00006B9D  2F                das
00006B9E  7265              jc 0x6c05
00006BA0  6769737472792F73  imul esi,[bp+di+0x74],dword 0x732f7972
00006BA8  7263              jc 0x6c0d
00006BAA  2F                das
00006BAB  696E6465782E63    imul ebp,[esi+0x64],dword 0x632e7865
00006BB2  7261              jc 0x6c15
00006BB4  7465              jz 0x6c1b
00006BB6  732E              jnc 0x6be6
00006BB8  696F2D36663137    imul ebp,[edi+0x2d],dword 0x37316636
00006BBF  643232            xor dh,[fs:edx]
00006BC2  626261            bound esp,[edx+0x61]
00006BC5  313530303166      xor [dword 0x66313030],esi
00006BCB  2F                das
00006BCC  7063              jo 0x6c31
00006BCE  2D6B657962        sub eax,0x6279656b
00006BD3  6F                outsd
00006BD4  61                popa
00006BD5  7264              jc 0x6c3b
00006BD7  2D302E352E        sub eax,0x2e352e30
00006BDC  312F              xor [edi],ebp
00006BDE  7372              jnc 0x6c52
00006BE0  632F              arpl [edi],bp
00006BE2  7363              jnc 0x6c47
00006BE4  61                popa
00006BE5  6E                outsb
00006BE6  636F64            arpl [edi+0x64],bp
00006BE9  65732E            gs jnc 0x6c1a
00006BEC  7273              jc 0x6c61
00006BEE  6E                outsb
00006BEF  6F                outsd
00006BF0  7420              jz 0x6c12
00006BF2  696D706C656D65    imul ebp,[ebp+0x70],dword 0x656d656c
00006BF9  6E                outsb
00006BFA  7465              jz 0x6c61
00006BFC  640000            add [fs:eax],al
00006BFF  008BF9000063      add [ebx+0x630000f9],cl
00006C05  0000              add [eax],al
00006C07  004200            add [edx+0x0],al
00006C0A  0000              add [eax],al
00006C0C  1100              adc [eax],eax
00006C0E  0000              add [eax],al
00006C10  207C2030          and [eax+0x30],bh
00006C14  7828              js 0x6c3e
00006C16  656D              gs insd
00006C18  7074              jo 0x6c8e
00006C1A  7929              jns 0x6c45
00006C1C  52                push edx
00006C1D  50                push eax
00006C1E  4C                dec esp
00006C1F  5F                pop edi
00006C20  305250            xor [edx+0x50],dl
00006C23  4C                dec esp
00006C24  5F                pop edi
00006C25  315250            xor [edx+0x50],edx
00006C28  4C                dec esp
00006C29  5F                pop edi
00006C2A  325250            xor dl,[edx+0x50]
00006C2D  4C                dec esp
00006C2E  5F                pop edi
00006C2F  3354495F          xor edx,[ecx+ecx*2+0x5f]
00006C33  47                inc edi
00006C34  44                inc esp
00006C35  54                push esp
00006C36  54                push esp
00006C37  49                dec ecx
00006C38  5F                pop edi
00006C39  4C                dec esp
00006C3A  44                inc esp
00006C3B  54                push esp
